xc:_glClearStencil
eAg:_UInt16_System_IConvertible_ToChar_m2096055221_AdjustorThunk
dOh:__Z91RuntimeInvoker_Int32_t2950945753_UILineInfo_t4195266810_UILineInfo_t4195266810_Il2CppObjectPK10MethodInfoPvPS2_
_Ei:_TextGenerator_GetPreferredWidth_m2934157277
aNb:__ZN18StreamedBinaryReadILb1EE21TransferSTLStyleArrayIN4core12basic_stringIcNS2_20StringStorageDefaultIcEEEEEEvRT_17TransferMetaFlags
TEj:__ZN6il2cpp2vm5Array13GetByteLengthEP11Il2CppArray
HTi:_KeyBuilder_get_Rng_m3373220441
kF:__Z102Register_UnityEngine_Experimental_Director_AnimatorControllerPlayable_INTERNAL_CALL_ResetTriggerStringv
r$g:_Rect_get_y_m3218181675
t8f:_ValueCollection_System_Collections_IEnumerable_GetEnumerator_m1660189994_gshared
Cxh:__Z45RuntimeInvoker_RuntimeFieldHandle_t1871169219PK10MethodInfoPvPS2_
MNi:_U3CCreateWhereIteratorU3Ec__Iterator1D_1_System_Collections_Generic_IEnumeratorU3CTSourceU3E_get_Current_m1909387290_gshared
Yyh:__Z122RuntimeInvoker_Void_t1185182177_Il2CppObject_Il2CppObject_Il2CppObject_Il2CppObject_Il2CppObject_Il2CppObject_Il2CppObjectPK10MethodInfoPvPS2_
eAa:__Z21SourceMipLevelForBlitiiii
Zjb:__ZN31CanvasBatchIntermediateRenderer15AddAsRenderNodeER15RenderNodeQueueRK20DeprecatedSourceData
sxg:_TimeSpan_get_Hours_m550761902
hPf:__ZL72GUISkin_t1244372282_CustomAttributesCacheGenerator_m_verticalSliderThumbP21CustomAttributesCache
KVd:_CanvasScaler_get_defaultSpriteDPI_m871626936
yPc:__ZN11UnityEngine7Connect14AppUpdateEventD0Ev
tLh:__Z30RuntimeInvoker_Axis_t809944411PK10MethodInfoPvPS2_
ERf:__ZL104SendMouseEvents_t3273302915_CustomAttributesCacheGenerator_SendMouseEvents_DoSendMouseEvents_m4217845379P21CustomAttributesCache
s9h:_AnimationEvent_set_intParameter_m3678717901
PS:__ZdlPv
gD:__ZN23AnimationOffsetPlayable11SetRotationE11Quaternionf
fB:__ZN11UnityEngine9Animation28GenericAnimationBindingCacheD2Ev
Yug:_UTF8Encoding_GetHashCode_m641510078
eDi:_X509Store_LoadCrl_m1881903843
JKd:_Array_Sort_TisUICharInfo_t75501106_TisUICharInfo_t75501106_m722747892_gshared
_ed:_CaseInsensitiveComparer__ctor_m2101975011
x2a:__Z18RestoreRenderStateR20CameraRenderOldStateR17ShaderPassContext
sMb:__Z18Transfer_BlittableI18StreamedBinaryReadILb1EELb1E5RectTIfEEvRK29SerializationCommandArgumentsR31RuntimeSerializationCommandInfo
cJb:__Z18Transfer_BlittableI24GenerateTypeTreeTransferLb0E11ColorRGBA32EvRK29SerializationCommandArgumentsR31RuntimeSerializationCommandInfo
L1:__Z25scripting_class_from_name17ScriptingImagePtrPKcS1_
AHd:_Array_InternalArray__Insert_TisSingle_t1397266774_m3161726127_gshared
crj:__ZN14dense_hash_mapI10KeyWrapperINSt3__24pairIPK12PropertyInfoP11Il2CppClassEEEj17ReflectionMapHashIS8_ENS9_14EqualsComparerINS1_8equal_toIS8_EEEENS1_9allocatorINS2_IKS9_jEEEEE15set_deleted_keyERSH_
TCb:__Z29scripting_class_enum_basetype17ScriptingClassPtr
H1e:_List_1_Clear_m3097985365_gshared
q$j:_emscripten_glDeleteBuffers__wrapper
jKh:__Z78RuntimeInvoker_Int32_t2950945753_RaycastHit_t1056001966_RaycastHit_t1056001966PK10MethodInfoPvPS2_
f$g:_Rect_set_y_m946788033
oSh:__Z37RuntimeInvoker_UILineInfo_t4195266810PK10MethodInfoPvPS2_
Koh:_InternalEnumerator_1_get_Current_m1477715453_gshared
GPe:_Enumerator__ctor_m2827156589_AdjustorThunk
$U:__ZNK20LocalFileSystemPosix6ParentERK13FileEntryDataRN4core12basic_stringIcNS3_20StringStorageDefaultIcEEEE
lWh:_Collection_1_System_Collections_IList_Remove_m1476284619_gshared
wpe:_ContractionComparer__ctor_m3439667810
Gne:_MonoType_IsPrimitiveImpl_m2401722705
LXc:_SHA1CryptoServiceProvider__ctor_m4195188793
Uzf:__ZL64MissingFieldException_t1989070983_CustomAttributesCacheGeneratorP21CustomAttributesCache
rGh:__Z70RuntimeInvoker_Color_t2555686324_Single_t1397266774_Single_t1397266774PK10MethodInfoPvPS2_
CO:__ZNSt3__26__treeINS_12__value_typeIN19CloudServiceHandler11ServiceTypeEPS2_EENS_19__map_value_compareIS3_S5_NS_4lessIS3_EELb1EEE13stl_allocatorIS5_L18MemLabelIdentifier85ELi16EEE7destroyEPNS_11__tree_nodeIS5_PvEE
DCh:__Z80RuntimeInvoker_Void_t1185182177_Int32_t2950945753_Int32_t2950945753_Il2CppObjectPK10MethodInfoPvPS2_
oZd:_Dropdown_Hide_m504034854
Xob:__ZN9Texture2D25CreateScaledAndPaddedDataEPP17SharedTextureDataS2_
Yxa:__ZN7ApiGLES17CopyBufferSubDataEjjlll
Fzh:__Z149RuntimeInvoker_Int32_t2950945753_Il2CppObject_Int32_t2950945753_Int32_t2950945753_Il2CppObject_Int32_t2950945753_DecoderFallbackBufferU26_t3866396827PK10MethodInfoPvPS2_
zGd:_Array_InternalArray__ICollection_CopyTo_TisUInt64_t4134040092_m691431926_gshared
B9e:_IPAddress_ToString_m1181734207
dtg:_StringBuilder_Append_m1965104174
L8f:_ValueCollection_CopyTo_m2188334703_gshared
V7i:__ZNSt3__26vectorIPK10Il2CppTypeNS_9allocatorIS3_EEE7reserveEj
Cgg:_EqualityComparer_1__cctor_m3766928733_gshared
YVa:__ZN25CameraStackRenderingState20GetOrCreateBuiltinRTE24BuiltinRenderTextureTypeii17DepthBufferFormat19RenderTextureFormatj22RenderTextureReadWrite14VRTextureUsagei
ykb:__Z32TransferEnumWithNameForceIntSizeI14SafeBinaryRead16LightmappingMaskEvRT_RT0_PKc17TransferMetaFlags
vN:__ZN11AudioModule26SetDefaultMicrophoneDriverEPv
MAe:_Kernel_modInverse_m652700340
_sb:__ZNK14Texture2DArray26CanReuploadDataToGfxDeviceEv
A_a:__ZN17PrePassRenderLoop14RenderBasePassEP13RenderTextureRK14LightingLayersR13dynamic_arrayI16RenderObjectDataLj4EERbR10MinMaxAABB
pgb:__ZN17GlobalGameManager23VirtualRedirectTransferER17RemapPPtrTransfer
wBc:_sfnt_stream_close
Tic:__ZN5IMGUI18RepaintModalWindowER8GUIState
U6e:_HybridDictionary_get_IsSynchronized_m2987560362
mfb:__ZN21ArchiveStorageCreator10InitializeERKN4core12basic_stringIcNS0_20StringStorageDefaultIcEEEEb
jQf:__ZL85GUIStyle_t3956901511_CustomAttributesCacheGenerator_GUIStyle_get_richText_m4083172303P21CustomAttributesCache
Owd:_CompareInfo_Finalize_m404687489
esb:__Z23SetSpriteMeshIndexCountP14SharedMeshDataj
$ug:_UTF8Decoder_GetChars_m1236346907
Aaa:__ZN7Texture13SetFilterModeEi
j0h:_ReadOnlyCollection_1_System_Collections_IList_get_Item_m2699872404_gshared
FGj:__ZN6il2cpp8metadata13GenericMethod9GetMethodEPK19Il2CppGenericMethod
iq:__ZNSt3__26vectorIN4core12basic_stringIcNS1_20StringStorageDefaultIcEEEENS_9allocatorIS5_EEE7reserveEj
$Fg:_Default_SelectProperty_m1220817815
jkg:_RemotingConfiguration_IsRemotelyActivatedClientType_m4117048589
$Gd:_Array_InternalArray__Insert_TisKeyValuePair_2_t3016395677_m3206545914_gshared
iTi:_ListPool_1_Get_m738675669_gshared
Hsa:__ZN13GfxDeviceGLES11SetViewportERK5RectTIiE
BOf:__ZL82Event_t2956885303_CustomAttributesCacheGenerator_Event_get_commandName_m3342234398P21CustomAttributesCache
Pd:_emscripten_glDepthRange
vMe:_SslStreamBase_BeginNegotiateHandshake_m4180435790
CRb:__Z14resize_trimmedINSt3__26vectorIN9ShaderLab20SerializedSubProgram12UAVParameterENS0_9allocatorIS4_EEEEEvRT_j
rci:_Camera_get_main_m882983993
QTd:_StandaloneInputModule_GetRawMoveVector_m2737091079
oZf:__ZL62Selectable_t3250028441_CustomAttributesCacheGenerator_m_ColorsP21CustomAttributesCache
xTh:__Z55RuntimeInvoker_Int32_t2950945753_Navigation_t3049316579PK10MethodInfoPvPS2_
XMe:_SslStreamBase_EndWrite_m4073224031
B3:__ZNSt3__218__insertion_sort_3IRNS_6__lessI14ObjectLoadDataS2_EEPS2_EEvT0_S6_T_
TFf:__ZL86GameObject_t1113636619_CustomAttributesCacheGenerator_GameObject_SetActive_m3735894026P21CustomAttributesCache
Gyh:__Z87RuntimeInvoker_Boolean_t97287965_Il2CppObject_StringU26_t181565287_StringU26_t181565287PK10MethodInfoPvPS2_
Eza:__ZN4crndL20crnd_default_reallocEPvjPjbS0_
Q1g:_SkinChangedDelegate_Invoke_m2228841850
A5b:__ZN7Texture11SetWrapModeEi
ATj:__ZNSt3__212basic_stringIcNS_11char_traitsIcEENS_9allocatorIcEEEC2ERKS5_
RIi:_WWW_get_responseHeadersString_m1547750086
zug:_UTF7Decoder_GetChars_m3413809261
Ufc:__Z33Texture_CUSTOM_Internal_GetHeightP12Il2CppObject
hfe:_BinaryReader_ReadInt64_m939370142
Fle:_UnmanagedMemoryStream_Write_m930787521
xUa:__ZN23ScriptableRenderContextC2Ev
b0d:_GridLayoutGroup_get_spacing_m2409263614
OWe:_List_1_System_Collections_ICollection_get_IsSynchronized_m704780517_gshared
Ohb:__ZN4PPtrI13RenderTextureE8TransferI18StreamedBinaryReadILb0EEEEvRT_
wTe:_List_1_CheckIndex_m581273900_gshared
tIc:_UNITY_FT_Stream_GetChar
DIi:_WaitForSeconds_t1699091251_marshal_pinvoke
zTi:_ObjectPool_1_get_countAll_m819305395_gshared
OMb:__Z18Transfer_BlittableI18StreamedBinaryReadILb1EELb1EdEvRK29SerializationCommandArgumentsR31RuntimeSerializationCommandInfo
mZe:_List_1_ToArray_m190175978_gshared
dDb:__Z26BuildSerializationCacheFor17ScriptingClassPtrRb
ZPd:_EventSystem_get_firstSelectedGameObject_m1576206896
v2f:_Enumerator_get_CurrentKey_m1376540780_AdjustorThunk
hoh:_InternalEnumerator_1_System_Collections_IEnumerator_get_Current_m3553395619_AdjustorThunk
gnf:__ZL70AssemblyVersionCompatibility_t766556580_CustomAttributesCacheGeneratorP21CustomAttributesCache
t4i:__ZL25UnresolvedVirtualCall_176P12Il2CppObject19Vector3_t3722313464PK10MethodInfo
t6c:_Array_SetValue_m3998268557
sig:_ServerContextTerminatorSink__ctor_m2519287841
zWd:_ColorBlock_set_highlightedColor_m2089444414_AdjustorThunk
BIe:_Context_EndSwitchingSecurityParameters_m4148956166
gsh:__Z66RuntimeInvoker_Boolean_t97287965_Il2CppObject_Int16U26_t3269100373PK10MethodInfoPvPS2_
wZc:_ToBase64Transform_InternalTransformFinalBlock_m360524956
Wwf:__ZL63ThreadStateException_t3003788475_CustomAttributesCacheGeneratorP21CustomAttributesCache
$db:__ZN10FileSystem12MountHandlerEP17FileSystemHandler
Zjj:__ZNSt3__213__vector_baseIiNS_9allocatorIiEEED2Ev
Qgj:__ZN6il2cpp6icalls8mscorlib6SystemL8IsStaticEPK12PropertyInfo
xB:__ZN13ProduceHelperI8AnimatorLb0EE7ProduceE18MemLabelIdentifier18ObjectCreationMode
C8:__Z9InitInputv
oqj:__ZN30dense_hashtable_const_iteratorINSt3__24pairIK10KeyWrapperIPK22Il2CppGenericParameterEPK24MonoGenericParameterInfoEES6_N6il2cpp5utils11PointerHashIS4_EEN14dense_hash_mapIS6_SA_SF_NS6_14EqualsComparerINS0_8equal_toIS5_EEEENS0_9allocatorISB_EEE9SelectKeyESK_SM_E30advance_past_empty_and_deletedEv
W8g:_Plane_get_normal_m4269270389_AdjustorThunk
qBc:_UNITY_tt_face_build_cmaps
Dmj:__ZN6il2cpp2gc19AppendOnlyGCHashMapINSt3__24pairIPK10MethodInfoP11Il2CppClassEEP22Il2CppReflectionMethod17ReflectionMapHashIS9_ENS2_8equal_toIS9_EEE3AddERKS9_SB_
_8a:__ZN16MemoryFileSystem6DeleteER13FileEntryDatab
dVi:_U3CU3Ec__DisplayClass17__ctor_m2097074385
Ana:__ZL21BlitScaleStbImageImplRK14ImageReferenceRS_NS_10ColorSpaceE
i9c:_Boolean_System_IConvertible_ToUInt16_m3465173538_AdjustorThunk
ZA:__ZN18StreamedBinaryReadILb0EE21TransferSTLStyleArrayI13dynamic_arrayIjLj4EEEEvRT_17TransferMetaFlags
Bah:_Rect_get_yMax_m2926206027_AdjustorThunk
Y2d:_InputField_get_keyboardType_m1248105267
LFb:__Z29Transfer_Blittable_ArrayFieldI14SafeBinaryReadyEvRT_R9ArrayInfoRK23StaticTransferFieldInfo
Mti:_Match__ctor_m2425511580
eof:__ZL63FileNotFoundException_t225391025_CustomAttributesCacheGeneratorP21CustomAttributesCache
lc:invoke_vifffii
dAb:__ZN20ArchiveStorageReader17MakeStorageUnusedEv
SIa:__ZNK25MultiBlocksMemoryFileData5CloneEv
wQi:_UnityAction_1_EndInvoke_m36082240_gshared
Cih:_InternalEnumerator_1_System_Collections_IEnumerator_Reset_m3873091784_AdjustorThunk
sLj:_GC_add_ext_descriptor
OMd:_LayoutGroup_SetProperty_TisSingle_t1397266774_m793506911_gshared
GMj:__ZN6il2cpp2os14WindowsRuntime22GetRestrictedErrorInfoEv
Mpg:_CryptoConfig_CreateFromName_m1538277313
luh:__Z102RuntimeInvoker_Il2CppObject_Il2CppObject_Il2CppObject_Il2CppObject_SByte_t1669577662_SByte_t1669577662PK10MethodInfoPvPS2_
IKa:__ZN17ArchiveFileSystem11CreateAsDirER13FileEntryData
l3i:__ZL25UnresolvedVirtualCall_114P12Il2CppObjectssaaaPK10MethodInfo
xVj:dynCall_iiiiiiiiiiii
h3d:_InputField_set_caretPositionInternal_m3823580651
e3h:_ReadOnlyCollection_1_get_Item_m2700699993_gshared
wC:__ZN26AnimatorControllerPlayable26ParameterControlledByCurveEi
Era:__ZN22VertexDeclarationCacheD0Ev
QWg:_Selectable_set_interactable_m3105888815
OVb:__ZL26KeywordSetToStringDontSortRKNSt3__26vectorIN4core12basic_stringIcNS1_20StringStorageDefaultIcEEEENS_9allocatorIS5_EEEERS5_
Lia:__ZN6prcoreL17RemapGenericFloatI16TexFormatRGFloat17TexFormatRGBAHalfEEvPKNS_9InnerInfoE
web:__ZNK21AssetBundleFileSystem8PositionERK13FileEntryData
yG:__ZN12AudioManager22CreateFMODSoundFromWWWEP10IWWWStream15FMOD_SOUND_TYPE17FMOD_SOUND_FORMATjjbbP10SampleClip
W$b:__ZNK32RendererMaterialAnimationBinding15GenerateBindingERKN4core12basic_stringIcNS0_20StringStorageDefaultIcEEEEbRN11UnityEngine9Animation14GenericBindingE
awh:__Z58RuntimeInvoker_DSAParameters_t1885824122_SByte_t1669577662PK10MethodInfoPvPS2_
HQg:_TargetException__ctor_m4172127019
qbi:_PCMSetPositionCallback_BeginInvoke_m2733210754
iYe:_List_1_CheckCollection_m274117203_gshared
QTf:__ZL70EventSystem_t1003666588_CustomAttributesCacheGenerator_m_FirstSelectedP21CustomAttributesCache
lIi:_Vector4_set_Item_m2494924945_AdjustorThunk
$0:__ZN8Remapper23GetOrGenerateInstanceIDERK26SerializedObjectIdentifier
iXd:_ColorTween_get_startColor_m3792586410_AdjustorThunk
OKa:__ZN17FileSystemHandler10AtomicMoveER13FileEntryDataS1_
Wa:invoke_iiiiiifffiiifii
hud:_Double_CompareTo_m3151899116
lxe:_X509CertificateCollection__ctor_m3365535796
ape:_CustomInfo__ctor_m426096741
TDi:_Sprite_INTERNAL_get_border_m2829993226
pQd:_EventSystem_ToString_m3779610692
qsb:__ZN6Sprite8TransferI24GenerateTypeTreeTransferEEvRT_
_ig:_SoapTypeAttribute_get_IsInteropXmlType_m629667929
Wgc:__Z48Register_UnityEngine_Transform_SetAsFirstSiblingv
ssb:__ZN7SubMesh8TransferI24GenerateTypeTreeTransferEEvRT_
_xi:_Literal_IsComplex_m4067122560
Bpj:__ZN14dense_hash_mapI10KeyWrapperIPK14Il2CppAssemblyEPK16MonoAssemblyNameN6il2cpp5utils11PointerHashIS2_EENS4_14EqualsComparerINSt3__28equal_toIS3_EEEENSD_9allocatorINSD_4pairIKS4_S7_EEEEE13set_empty_keyERSJ_
N1g:_GUISkin_FindStyle_m3581816133
iyh:__Z88RuntimeInvoker_Void_t1185182177_Il2CppObject_Il2CppObject_Il2CppObject_Int32_t2950945753PK10MethodInfoPvPS2_
$Yh:_Collection_1_System_Collections_IList_Contains_m296643274_gshared
rfe:_DirectoryInfo__ctor_m126519516
U2g:_GUIStyle_Draw_m4068961451
cNg:_MethodBase_GetMethodFromIntPtr_m3014201362
rWh:__ZN21InterfaceFuncInvoker1I19Color32_t2600501292iE6InvokeEjP11Il2CppClassP12Il2CppObjecti
d_b:__ZN13ProduceHelperI14Texture2DArrayLb0EE7ProduceE18MemLabelIdentifier18ObjectCreationMode
cxi:_Reference_get_CapturingGroup_m3861468528
O6g:_Mesh_PrintErrorBadSubmeshIndexTriangles_m4077719301
qdc:__Z46Mesh_CUSTOM_PrintErrorCantAccessMeshForIndicesP12Il2CppObject
K8b:__ZN9Transform23SetSiblingIndexInternalEib
FMg:_AddEventAdapter__ctor_m2428277574
Y_h:_Collection_1_SetItem_m794903769_gshared
Ygi:_InvokableCall__ctor_m2864671469
vid:_Enumerator_MoveNext_m635366482
Kye:_X509Extension_Equals_m1222951829
jx:__ZN7mecanim5human12HumanPoseSubERNS0_9HumanPoseERKS1_S4_
Qyj:__ZN6il2cpp8metadata15GenericMetadata15GetGenericClassEiPK17Il2CppGenericInst
dcd:_Char_GetTypeCode_m2433327340_AdjustorThunk
EEb:__Z18Transfer_BlittableI14SafeBinaryReadLb0E10Matrix4x4fEvRK29SerializationCommandArgumentsR31RuntimeSerializationCommandInfo
BMa:__Z24GetFixedBehaviourManagerv
njf:__ZL69IntPtr_t_CustomAttributesCacheGenerator_IntPtr_op_Equality_m408849716P21CustomAttributesCache
WSa:__ZN12FlareManager9UpdateJobEP25FlareManagerUpdateJobData
au:__Z28AnimationPlayableEvaluateEndP35AnimationPlayableEvaluationConstantP32AnimationPlayableEvaluationInputP33AnimationPlayableEvaluationOutput
jZg:_Text_UpdateGeometry_m3634850647
QCi:_X509Crl_VerifySignature_m1377612461
QQj:_vfprintf
Lid:_Stack_Clear_m2010200235
Oga:__ZL13SortTexByNameRKNSt3__24pairIN9ShaderLab16FastPropertyNameEN18UnityPropertySheet11UnityTexEnvEEES7_
cSd:_PointerEventData_set_pointerPressRaycast_m1363193059
JTa:__ZN20DynamicPropertySheetD0Ev
Ioi:_SafeHandle_Dispose_m4229010569
O6a:__ZN14SafeBinaryRead17RegisterConverterEPKcS1_PFbPvRS_E
vX:__ZN35RegisterRuntimeInitializeAndCleanup8RegisterEPFvPvES2_iS0_
HJg:_FieldBuilder_SetValue_m828035213
tzh:__Z165RuntimeInvoker_Void_t1185182177_UInt32U26_t3735378166_Int32_t2950945753_UInt32U26_t3735378166_Int32_t2950945753_Int32_t2950945753_Int32_t2950945753_Int32_t2950945753PK10MethodInfoPvPS2_
h5h:_ReadOnlyCollection_1_System_Collections_IList_get_IsFixedSize_m733459177_gshared
Qjf:__ZL72Enum_t4135868527_CustomAttributesCacheGenerator_Enum_ToObject_m121962870P21CustomAttributesCache
fUe:__ZN23InterfaceActionInvoker2IP24ObjectU5BU5D_t2843939325iE6InvokeEjP11Il2CppClassP12Il2CppObjectS1_i
dhc:__Z21Object_CUSTOM_DestroyP12Il2CppObjectf
FMa:__ZN8Material26ResetAllCachedMaterialDataEP6Shader
EIc:_UNITY_TT_Get_MM_Var
cng:_ObjectManager_AddFixup_m2154325362
Vph:_Comparer_1__cctor_m3761458313_gshared
nqd:_DateTimeOffset_CompareTo_m1350732322_AdjustorThunk
aa:invoke_diddi
WJc:__ZNK2UI6Canvas13GetRenderModeEv
g0g:_GUILayoutUtility_Internal_GetWindowRect_m3164426898
gGh:__Z116RuntimeInvoker_Void_t1185182177_Int32_t2950945753_Int32_t2950945753_Int32_t2950945753_Il2CppObject_Int32_t2950945753PK10MethodInfoPvPS2_
nCd:_Array_compare_TisCustomAttributeTypedArgument_t2723150157_m1384644047_gshared
jxe:_StrongName_get_TokenAlgorithm_m1794722022
cEb:__Z18Transfer_BlittableI14SafeBinaryReadLb0EiEvRK29SerializationCommandArgumentsR31RuntimeSerializationCommandInfo
Fdj:__ZN6il2cpp2vm13MetadataCache30GetPropertyDefinitionFromIndexEi
STi:_SymmetricTransform_Transform_m1683494363
IRc:__ZN22BaseUnityConnectClient17InitializeSessionERKN4core12basic_stringIcNS0_20StringStorageDefaultIcEEEES6_N19CloudServiceHandler13InitModeFlagsE
c2e:_List_1_get_Item_m200663048_gshared
pig:_ReturnMessage_get_Exception_m3375728265
gkh:_InternalEnumerator_1_MoveNext_m3664960764_AdjustorThunk
a1f:__ZL118Panel_MainScene_t1057628098_CustomAttributesCacheGenerator_Panel_MainScene_U3CButtonClick_getMyInfoU3Em__D_m3869863579P21CustomAttributesCache
cec:__ZN13MonoBehaviour34StopCoroutineFromEnumeratorManagedE18ScriptingObjectPtr
_zc:_gray_raster_reset
iF:__Z100Register_UnityEngine_Experimental_Director_AnimatorControllerPlayable_INTERNAL_CALL_SetTriggerStringv
LB:__ZN7mecanim9animation14AvatarConstant15InitializeClassEv
Hzb:__ZN30RuntimeInitializeOnLoadManager8TransferI18StreamedBinaryReadILb0EEEEvRT_
Bkd:_DateTimeOffset__ctor_m2084804982
JAc:_UNITY_tt_face_load_pclt
GAb:__ZN21ArchiveStorageCreator14StoreDirectoryEv
A7b:__ZL34GetComponentsImplementationRecurseILb1ELi0ELi2EEbR10GameObjectbRK17CompareParametersRK39GetComponentsImplementation_ReturnValue
hib:__ZN4PPtrI5FlareE8TransferI14SafeBinaryReadEEvRT_
kte:_ASN1_get_Length_m1923878580
JWi:_EqualityComparer_1__cctor_m4244842342_gshared
qai:_AnimatorTransitionInfo_get_exit_m3346751000_AdjustorThunk
XSa:__ZNK6Camera18WorldToScreenPointERK8Vector3fPb
G7g:_MonoBehaviour_StopCoroutine_m18469544
EQi:_UnityAction_1_EndInvoke_m312813767_gshared
uue:_KeyBuilder_IV_m2230195376
BQg:_PropertyInfo_SetValue_m2777755129
TDf:__ZL105AssetBundleRequest_t699759206_CustomAttributesCacheGenerator_AssetBundleRequest_get_allAssets_m4044557684P21CustomAttributesCache
q8e:_TypeConverterAttribute_GetHashCode_m948291090
m0:__ZNSt3__227__insertion_sort_incompleteIRPFbRKN18AwakeFromLoadQueue4ItemES4_EPS2_EEbT0_S9_T_
NJf:__ZL57ScriptPlayable_t1800649443_CustomAttributesCacheGeneratorP21CustomAttributesCache
sRf:__ZL73RuntimePlatform_t4159857903_CustomAttributesCacheGenerator_MetroPlayerARMP21CustomAttributesCache
Jee:_InvalidOperationException__ctor_m1685032583
iTh:__Z68RuntimeInvoker_Boolean_t97287965_Il2CppObject_BooleanU26_t4125257963PK10MethodInfoPvPS2_
oyg:_TimeSpan_op_Subtraction_m3592306516
WJi:_JsonData_LitJson_IJsonWrapper_get_IsInt_m940710080
HYi:_EqualityComparer_1_System_Collections_IEqualityComparer_GetHashCode_m1517903420_gshared
GBh:__Z83RuntimeInvoker_Il2CppObject_Il2CppObject_SByte_t1669577662_ExceptionU26_t3600731591PK10MethodInfoPvPS2_
hXe:_List_1_IndexOf_m2805654716_gshared
pFi:_Texture_Internal_GetWidth_m2495281491
Dpb:__ZN26EnlightenSystemInformation8TransferI14SafeBinaryReadEEvRT_
qvb:__ZN12MeshRendererD0Ev
MDi:_Sprite_get_pixelsPerUnit_m2018825938
uh:_utime
gxi:_BalancingGroup_Compile_m2575117193
Rfj:__ZN6il2cpp6icalls8mscorlib6System8MonoType18IsGenericParameterEPK10Il2CppType
ckj:__ZNSt3__26vectorIN6il2cpp2vm17TypeNameParseInfoENS_9allocatorIS3_EEE8allocateEj
vfi:_StateChanged_EndInvoke_m1411426168
Hti:_Mark_get_Index_m3048692661_AdjustorThunk
TLe:_TlsServerSettings_get_CertificateRequest_m842655670
NQi:_UnityAction_1__ctor_m508631773_gshared
Bph:_DefaultComparer_Compare_m3931992727_gshared
jn:FUNCTION_TABLE_viiiiii
VLf:__ZL123AnimatorControllerPlayable_t1397024487_CustomAttributesCacheGenerator_AnimatorControllerPlayable_PlayInFixedTime_m844122953P21CustomAttributesCache
wce:_Int32_System_IConvertible_ToType_m3009233912_AdjustorThunk
NLi:_JsonReader_ProcessSymbol_m137365372
Ckd:_DateTimeOffset__ctor_m74032857
Z0g:_GUISkin_set_label_m3058193957
qXe:_List_1_Sort_m835021664_gshared
wA:__ZN7mecanim9animation22DestroyAvatarWorkspaceEPNS0_15AvatarWorkspaceERNS_6memory9AllocatorE
izg:_Type_type_is_assignable_from_m76737532
$Rg:_MaskableGraphic_ParentMaskStateChanged_m1092090553
Oic:__ZNSt3__210__list_impIN10GUIManager12SortedScriptE11memory_poolIS2_EE5clearEv
Wmb:__ZN14PlayableOutput17SetSourcePlayableEP8Playable
Oef:_X509ExtensionCollection_get_IsSynchronized_m2607599544
ulc:__Z32GUIStyle_Set_Custom_PropRichTextP12Il2CppObjecth
lu:__ZN7mecanim9animation29MotionOutputGetDeltaTransformEPKNS0_12MotionOutputE
gC:__ZN8Animator14OnAddComponentEPN5Unity9ComponentE
AJe:_ValidationResult_get_ErrorCode_m1533688152
tgc:__Z43Transform_CUSTOM_INTERNAL_get_localRotationP12Il2CppObjectP11Quaternionf
sxd:_CultureInfo_get_Parent_m672689885
_Lj:__ZN6il2cpp6icalls8mscorlib6System10Reflection4Emit13ModuleBuilder13RegisterTokenEP29Il2CppReflectionModuleBuilderP12Il2CppObjecti
S0b:__ZZL23RegisterLightPropertiesR22GenericPropertyBindingEN20Wrapper_LightColorr013SetFloatValueEPvf
Nmg:_ObjectReader_ReadObjectGraph_m340866276
a6f:_Transform_1_EndInvoke_m2716226219_gshared
Xh:_emscripten_glGetTexParameteriv
bRh:__Z55RuntimeInvoker_TableRange_t3332867892_Int32_t2950945753PK10MethodInfoPvPS2_
cKi:_JsonData_System_Collections_IList_get_IsFixedSize_m2437965165
Srh:__Z67RuntimeInvoker_Boolean_t97287965_Il2CppObject_UInt64U26_t1265593412PK10MethodInfoPvPS2_
Ntg:_UnicodeEncoding_GetHashCode_m354003420
C_c:_SecurityElement_AddAttribute_m311510562
gYb:__Z13RegisterClassI4MeshEvv
LKf:__ZL74SharedBetweenAnimatorsAttribute_t2857104338_CustomAttributesCacheGeneratorP21CustomAttributesCache
svd:_Enum_Equals_m3617313991
Amb:__ZN8PlayableD0Ev
PH:__ZN12AudioManager8TransferI19StreamedBinaryWriteILb0EEEEvRT_
AXg:_Slider_UpdateCachedReferences_m3259451627
XUi:_resultFunction__ctor_m3691576387
FMe:_SslStreamBase_get_KeyExchangeStrength_m217695965
DNb:__ZN18StreamedBinaryReadILb1EE21TransferSTLStyleArrayI13dynamic_arrayI11ColorRGBA32Lj4EEEEvRT_17TransferMetaFlags
iKh:__Z85RuntimeInvoker_Void_t1185182177_Il2CppObject_RayU26_t3515555043_SingleU26_t1922108698PK10MethodInfoPvPS2_
Xsj:__ZN15dense_hashtableINSt3__24pairIK10KeyWrapperINS1_IP11Il2CppClassjEEES4_EES6_N6il2cpp8metadata14ArrayClassHashEN14dense_hash_mapIS6_S4_SB_NS6_14EqualsComparerINSA_17ArrayClassCompareEEENS0_9allocatorIS8_EEE9SelectKeyESF_SH_E6insertERKS8_
LZd:_U3CShowU3Ec__AnonStorey1_U3CU3Em__0_m2340880019
ILi:_JsonReader_Read_m1579829852
EWg:_Selectable_OnSetProperty_m1693943217
sTe:_List_1_GetIndex_m2300811709_gshared
V$b:__ZNK32RendererMaterialAnimationBinding12GetPPtrValueERKN11UnityEngine9Animation10BoundCurveE
qOb:__Z18Transfer_BlittableI18StreamedBinaryReadILb0EELb0E8Vector2fEvRK29SerializationCommandArgumentsR31RuntimeSerializationCommandInfo
BMc:__ZN2UI11CanvasGroup12CleanupClassEv
wNe:_TlsStream_Flush_m3793197834
oUe:_List_1_GetIndex_m2832472557_gshared
rV:__ZN22LocalFileSystemHandler9MakeLocalER13FileEntryDatab
KHj:__ZN6il2cpp2vm8Profiler10AllocationEP12Il2CppObjectP11Il2CppClass
xKf:__ZL100RectTransform_t3704657025_CustomAttributesCacheGenerator_RectTransform_INTERNAL_get_pivot_m878744508P21CustomAttributesCache
hXf:__ZL61Graphic_t1660335611_CustomAttributesCacheGenerator_m_MaterialP21CustomAttributesCache
Bxc:__ZNSt3__23mapIN20TextRenderingPrivate7FontRefENS1_6OSFontENS_4lessIS2_EENS_9allocatorINS_4pairIKS2_S3_EEEEEixERS8_
jfj:__ZN6il2cpp2vm8basepathEPKc
Lwd:_CompareInfo_internal_compare_m2522722857
Kuc:__ZN14SafeBinaryRead21TransferSTLStyleArrayI10vector_mapINSt3__24pairIttEEfN20TextRenderingPrivate8FontImpl14KerningCompareENS2_9allocatorINS3_IS4_fEEEEEEEvRT_17TransferMetaFlags
mHe:_TlsServerFinished__ctor_m1445633918
I6d:_NumberFormatter_FastIntegerToString_m390846811
eRg:__ZN21InterfaceFuncInvoker0IfE6InvokeEjP11Il2CppClassP12Il2CppObject
Kve:_PKCS1_RSASP1_m3912327535
p_a:__ZN25DeferredRenderLoopScratchD0Ev
py:__ZN27AnimationLayerMixerPlayable14SetInputWeightEif
HRd:_PhysicsRaycaster_Raycast_m776323695
bNi:_Lexer_State10_m3929854498
fx:__ZN7mecanim9animation17EvaluateHumanPoseERKNS0_18ClipMuscleConstantERKNS0_15ClipMuscleInputEPKfRKNS0_12MotionOutputERNS_5human9HumanPoseE
LUf:__ZL92PointerEventData_t3807901092_CustomAttributesCacheGenerator_U3CscrollDeltaU3Ek__BackingFieldP21CustomAttributesCache
pRb:__ZN15dense_hashtableINSt3__24pairIKiN4core17string_with_labelILi1EEEEEi18SInt32HashFunctionN14dense_hash_mapIiS5_S7_NS0_8equal_toIiEE13stl_allocatorIS6_L18MemLabelIdentifier1ELi16EEE9SelectKeyESA_SD_E9copy_fromERKSG_j
Pca:__ZN6Camera11ResetAspectEv
WRa:__ZNSt3__227__insertion_sort_incompleteIRPFbP10GUIElementS2_EPS2_EEbT0_S7_T_
i1i:__ZL23UnresolvedVirtualCall_3P12Il2CppObjectS0_PK10MethodInfo
HWi:_EqualityComparer_1_get_Default_m990790318_gshared
Wjb:__ZNK17InstancedPropInfo22FillInstancePropertiesER19ShaderPropertySheetjPK17BatchInstanceDatajRK15RenderNodeQueue
mlg:_WellKnownClientTypeEntry_ToString_m1119458503
mea:__ZN22CreateGpuProgramOutputD2Ev
f1e:_List_1_get_Item_m1378751541_gshared
EKb:__Z18Transfer_BlittableI19StreamedBinaryWriteILb0EELb1EsEvRK29SerializationCommandArgumentsR31RuntimeSerializationCommandInfo
Twj:__ZN6il2cpp6icalls8mscorlib6System2IO6MonoIO9SetLengthE12Il2CppIntPtrxPi
ouf:__ZL52HMACSHA512_t923916539_CustomAttributesCacheGeneratorP21CustomAttributesCache
OGi:_Enumerator_get_Current_m2709653417
_7h:_Comparison_1_EndInvoke_m624165032_gshared
MM:__ZN13ProduceHelperI13AudioListenerLb0EE7ProduceE18MemLabelIdentifier18ObjectCreationMode
zMd:_GameObject_GetComponents_TisIl2CppObject_m974145097_gshared
pGi:_Transform_INTERNAL_get_localRotation_m3945325706
NXc:_SHA1CryptoServiceProvider_Finalize_m1793183797
fzf:__ZL78Convert_t2465617642_CustomAttributesCacheGenerator_Convert_ToUInt64_m409548990P21CustomAttributesCache
m_i:_HashSet_1_System_Collections_Generic_ICollectionU3CTU3E_CopyTo_m408073502_gshared
qeh:_InternalEnumerator_1_get_Current_m2597556806_gshared
tJa:__ZN12HandlerChain4OpenER13FileEntryData14FilePermission16FileAutoBehavior
Hyf:__ZL79Convert_t2465617642_CustomAttributesCacheGenerator_Convert_ToUInt16_m1147931813P21CustomAttributesCache
Hmj:__ZN15dense_hashtableINSt3__24pairIK10KeyWrapperINS1_IPK10MethodInfoP11Il2CppClassEEEjEES9_17ReflectionMapHashIS8_EN14dense_hash_mapIS9_jSD_NS9_14EqualsComparerINS0_8equal_toIS8_EEEENS0_9allocatorISB_EEE9SelectKeyESI_SK_E6insertERKSB_
Oug:_UTF8Encoding_GetCharCount_m2272165989
wSf:__ZL94UnityString_t1423233093_CustomAttributesCacheGenerator_UnityString_Format_m3741272017____args1P21CustomAttributesCache
r6c:_Array_SetValue_m394135409
a3:__ZN14FileCacherReadD2Ev
Roa:__ZN13RendererScene23UpdatePreviousFrameDataEii
i3c:_String_Remove_m562998446
Wac:__Z50Register_UnityEngine_CullingGroup_FinalizerFailurev
y_c:_SecurityPermission_IsSubsetOf_m545000671
ska:__ZN27UnloadUnusedAssetsOperationD0Ev
aib:__ZN6Camera15ThreadedCleanupEv
Sy:__ZN26AnimatorControllerPlayable6MemoryD2Ev
Avh:__Z235RuntimeInvoker_Int32_t2950945753_Il2CppObject_Int32_t2950945753_Int32_t2950945753_Il2CppObject_Int32_t2950945753_Int32_t2950945753_BooleanU26_t4125257963_BooleanU26_t4125257963_SByte_t1669577662_SByte_t1669577662_ContextU26_t3937453398PK10MethodInfoPvPS2_
Pwj:__ZN6il2cpp6icalls8mscorlib6System2IO6MonoIO9GetLengthE12Il2CppIntPtrPi
zTj:__ZNKSt3__221__basic_string_commonILb1EE20__throw_out_of_rangeEv
$Ld:_Dictionary_2_Do_ICollectionCopyTo_TisBoolean_t97287965_m3600337818_gshared
oQi:_InvokableCall_4_Find_m4153917558_gshared
_xj:__ZNK15dense_hashtableINSt3__24pairIK10KeyWrapperIP14Il2CppIUnknownEjEES5_N6il2cpp5utils11PointerHashIS3_EEN14dense_hash_mapIS5_jSB_NS5_14EqualsComparerINS0_8equal_toIS4_EEEENS0_9allocatorIS7_EEE9SelectKeyESG_SI_E12test_deletedERK24dense_hashtable_iteratorIS7_S5_SB_SK_SG_SI_E
Ugi:_ArgumentCache_OnAfterDeserialize_m4176438319
PF:__ZN9AudioClip23VirtualRedirectTransferER18StreamedBinaryReadILb0EE
XFf:__ZL83GameObject_t1113636619_CustomAttributesCacheGenerator_GameObject_set_tag_m551092519P21CustomAttributesCache
D1e:_List_1_AddEnumerable_m2724989594_gshared
MMa:__ZNSt3__26vectorIPN9ShaderLab9SubShaderENS_9allocatorIS3_EEE21__push_back_slow_pathIKS3_EEvRT_
F2e:_List_1_Contains_m2043463915_gshared
rcb:__ZN24GenerateTypeTreeTransfer8TransferIN11AssetBundle9AssetInfoEEEvRT_PKc17TransferMetaFlags
lHi:_Vector2_get_sqrMagnitude_m3719918747
dL:__ZN5audio5mixer22UpdateAudioMixerMemoryERKNS0_18AudioMixerConstantERNS0_16AudioMixerMemoryEfPN4FMOD6SystemEf
sj:_glCopyTexSubImage2D
c0b:__ZNK24RendererAnimationBinding13GetFloatValueERKN11UnityEngine9Animation10BoundCurveE
sOa:_UNITY_png_write_zTXt
yWc:_RIPEMD160Managed_CompressFinal_m497690796
jU:__ZN18ScreenManagerWebGL13SetShowCursorEb
Zgh:_InternalEnumerator_1_MoveNext_m1773160976_gshared
PLa:__ZZ23InitPlayerLoopCallbacksvEN37EarlyUpdateProcessMouseInWindowstruct7ForwardEv
$Qj:_frexp
c$i:_Button_SignIn_U3CSignInU3Em__1_m1912313594
EMc:__ZN2UI13CanvasManager14GetRenderOrderEPKNS_6CanvasE
CEb:__Z18Transfer_BlittableI14SafeBinaryReadLb0E5RectTIfEEvRK29SerializationCommandArgumentsR31RuntimeSerializationCommandInfo
Tde:_NumberFormatter_NumberToString_m2562899600
$Yc:_SymmetricAlgorithm_get_FeedbackSize_m3666584308
VQj:_fmt_u
mza:__ZN18AsyncUploadManager19AsyncResourceUploadER9GfxDeviceii9TextureID
vya:__ZN14GfxContextGLES14GetFramebufferEv
H$j:_emscripten_glGenVertexArrays__wrapper
RDg:_Version_Clone_m1749041863
d5f:_ShimEnumerator_get_Key_m4155849607_gshared
Aha:__ZN6prcoreL21CreateRemapAnyBlitterE13TextureFormatS0_
bEe:_RSAManaged_ExportParameters_m1754454264
c6b:__ZN17AnimationCurveTplIfE16StripInvalidKeysEv
v9c:_Boolean_Equals_m535526264_AdjustorThunk
wLc:__ZNK2UI6Canvas17GetSortingLayerIDEv
h9c:_Convert_ToUInt16_m3116648921
ujf:__ZL40UIntPtr_t_CustomAttributesCacheGeneratorP21CustomAttributesCache
Aij:_il2cpp_method_has_attribute
B2b:__Z13RegisterClassI17GlobalGameManagerEvv
Qyh:__Z135RuntimeInvoker_Void_t1185182177_Byte_t1134296376_Il2CppObject_Int64U26_t200113976_ObjectU26_t2146539884_SerializationInfoU26_t419328957PK10MethodInfoPvPS2_
N0a:__ZN8Renderer24SetupNewRendererForSceneEv
czg:_Type_internal_from_name_m1721940673
hLd:_Array_swap_TisCustomAttributeTypedArgument_t2723150157_TisCustomAttributeTypedArgument_t2723150157_m365781156_gshared
Lkg:_RemotingServices_GetMethodBaseFromName_m3194612939
yQ:__ZN11UnityEngine15CloudWebService13WWWRestClient18GetEditableHeadersEv
zfa:__ZN4PPtrI7TextureE8TransferI14SafeBinaryReadEEvRT_
a$g:_GUILayoutEntry_CalcHeight_m52429841
w3b:__ZN14PlayableOutput6HandleEv
ESe:_List_1_RemoveAll_m1199016980_gshared
dn:FUNCTION_TABLE_iiiiiiiiiiiiii
hRc:__ZN19UnityConnectService18OnPlayerQuitStaticEPS_
slb:__ZN11Tetrahedron8TransferI24GenerateTypeTreeTransferEEvRT_
zBc:_UNITY_tt_get_cmap_info
YLe:_SslClientStream_RaiseServerCertificateValidation_m3477149273
G4a:__ZN16ReflectionProbes8ScheduleEN18ReflectionProbeJob7JobTypeEP15ReflectionProbei
qHe:_ClientSessionInfo_KeepAlive_m1020179566
W2e:_List_1_ToArray_m4056539300_gshared
qnf:__ZL51Calendar_t1661121569_CustomAttributesCacheGeneratorP21CustomAttributesCache
Z3:__ZN16MessageForwarder13HandleMessageEPviR11MessageData
cUc:_HashAlgorithm_get_InputBlockSize_m257350079
HV:__Z18IsDirectoryCreatedRKN4core12basic_stringIcNS_20StringStorageDefaultIcEEEE
Rci:_Canvas_set_sortingOrder_m2825109295
k_c:_String_FormatHelper_m3913915042
uVi:_PASDK_getShopInfo_m3346524387
eGg:_ConstructorInfo__cctor_m1016079270
aZh:__ZN21InterfaceFuncInvoker1Ib20UIVertex_t4057497605E6InvokeEjP11Il2CppClassP12Il2CppObjectS0_
QLd:_Dictionary_2_Do_CopyTo_TisObjectMetadata_t3566284522_TisIl2CppObject_m278885265_gshared
wGg:_CustomAttributeData_GetHashCode_m3727773664
gxc:_UNITY_FT_GlyphLoader_Done
LOh:__Z48RuntimeInvoker_Int32_t2950945753_Slot_t384495010PK10MethodInfoPvPS2_
Edi:_CanvasRenderer_SplitUIVertexStreamsInternal_m2784275415
utd:_StackTrace_get_FrameCount_m344690939
sle:_UnexceptionalStreamWriter_Write_m363195622
e9i:__ZNK15dense_hashtableINSt3__24pairIK10KeyWrapperIPKcEP11Il2CppClassEES5_N6il2cpp5utils11StringUtils12StringHasherIS4_EEN14dense_hash_mapIS5_S8_SE_NS5_14EqualsComparerINSC_21CaseSensitiveComparerEEENS0_9allocatorIS9_EEE9SelectKeyESI_SK_E10test_emptyERK30dense_hashtable_const_iteratorIS9_S5_SE_SM_SI_SK_E
zxc:__ZN20TextRenderingPrivate25ReadFontFileAndAddToCacheERKN4core12basic_stringIcNS0_20StringStorageDefaultIcEEEE
nCc:_tt_cmap14_char_var_index
VDh:__Z47RuntimeInvoker_X509ChainStatusFlags_t1026973125PK10MethodInfoPvPS2_
IHi:_Vector3_GetHashCode_m4064605418_AdjustorThunk
nUg:_Selectable_OnPointerDown_m1086067264
MDc:_psh_globals_new
dZd:_Dropdown_SetupTemplate_m628218778
fvg:_Thread_GetCompressedStack_m2923422412
hth:__Z67RuntimeInvoker_Boolean_t97287965_Il2CppObject_DoubleU26_t1739162597PK10MethodInfoPvPS2_
wed:_SynchronizedArrayListWrapper_CopyTo_m4207791406
v4e:_Collection_1_get_Count_m1030669952_gshared
vbf:_X509BasicConstraintsExtension_ToString_m1809935297
asa:__ZN9GfxDevice20SetMaxBufferedFramesEi
WSi:_TweenRunner_1_StartTween_m1055628540_gshared
iGi:_Transform_set_localPosition_m3327877514
rEh:__Z89RuntimeInvoker_Boolean_t97287965_Int32_t2950945753_Int32U26_t1369213839_Int32_t2950945753PK10MethodInfoPvPS2_
FK:__ZN24AudioScriptBufferManagerD2Ev
_sh:__Z51RuntimeInvoker_Int32_t2950945753_Single_t1397266774PK10MethodInfoPvPS2_
OVj:dynCall_vdd
$Lc:__ZN2UIL17UnloadAllCanvasesEv
h8a:__Z23ConvertIntegerToTypePtrIsEbPvR14SafeBinaryRead
K3g:_GUIStyle_set_wordWrap_m3423085392
X7i:__ZN6il2cpp2vm5Class12HasAttributeEP11Il2CppClassS3_
gdd:_ArrayListWrapper_get_Capacity_m51087796
g5d:_LayoutElement_get_minHeight_m4160507569
Sgg:_EqualityComparer_1_System_Collections_IEqualityComparer_GetHashCode_m2230215241_gshared
o_f:__ZL60ContentSizeFitter_t3850442145_CustomAttributesCacheGeneratorP21CustomAttributesCache
Qgd:_Hashtable_Contains_m2145146412
BMf:__ZL138AnimatorControllerPlayable_t1397024487_CustomAttributesCacheGenerator_AnimatorControllerPlayable_INTERNAL_CALL_SetIntegerString_m941765352P21CustomAttributesCache
Iha:__ZN6prcoreL29inner_stretch_rgb565_bilinearEPKNS_9InnerInfoE
Cbh:_RectTransform_SetSizeWithCurrentAnchors_m3629118313
lPf:__ZL83GUISkin_t1244372282_CustomAttributesCacheGenerator_m_horizontalScrollbarRightButtonP21CustomAttributesCache
Ukj:__ZNK15dense_hashtableINSt3__24pairIK10KeyWrapperINS1_IPK14Il2CppAssemblyP11Il2CppClassEEEjEES9_17ReflectionMapHashIS8_EN14dense_hash_mapIS9_jSD_NS9_14EqualsComparerINS0_8equal_toIS8_EEEENS0_9allocatorISB_EEE9SelectKeyESI_SK_E12test_deletedEj
xOj:__ZN6il2cpp2os9FastMutex4LockEv
iDh:__Z80RuntimeInvoker_Void_t1185182177_Il2CppObject_Int32_t2950945753_Int16_t2552820387PK10MethodInfoPvPS2_
Nbe:_Int32_FindCurrency_m3541026887
khf:_Interval_CompareTo_m3282557545
xZa:__ZNK14RenderSettings19GetFlatAmbientColorEv
C4a:__ZN6prcoreL10inner_flipILj4EEEvPhS1_j
pxb:__ZN18StreamedBinaryReadILb0EE21TransferSTLStyleArrayI10vector_mapIPKN5Unity4TypeE7Hash128NSt3__24lessIS6_EENS8_9allocatorINS8_4pairIS6_S7_EEEEEEEvRT_17TransferMetaFlags
Cu:__ZNK27StateMachineBehaviourPlayer15IsSenderEnabledEv
RZf:__ZL58Text_t1901882714_CustomAttributesCacheGenerator_m_FontDataP21CustomAttributesCache
bKg:_GenericTypeParameterBuilder_IsPrimitiveImpl_m1952010459
W1h:_ReadOnlyCollection_1_CopyTo_m3474153465_gshared
hWc:_RijndaelManagedTransform_TransformBlock_m1610137419
Rgc:__Z40Register_UnityEngine_Transform_SetParentv
nvf:__ZL94WindowsIdentity_t2948242406_CustomAttributesCacheGenerator_WindowsIdentity_Dispose_m3466258450P21CustomAttributesCache
lGf:__ZL79Screen_t3860757715_CustomAttributesCacheGenerator_Screen_get_height_m1569321028P21CustomAttributesCache
gtb:__ZN14Texture2DArray17UploadToGfxDeviceEv
AJ:__Z14FMODMemoryFreePvjPKc
JFf:__ZL98GameObject_t1113636619_CustomAttributesCacheGenerator_GameObject_GetComponentInChildren_m230563287P21CustomAttributesCache
eeb:__ZN15dense_hashtableINSt3__24pairIKN4core12basic_stringIcNS2_20StringStorageDefaultIcEEEES6_EES6_20StringHash32FunctionIS6_EN14dense_hash_mapIS6_S6_SA_NS0_8equal_toIS6_EE13stl_allocatorIS8_L18MemLabelIdentifier54ELi16EEE9SelectKeyESD_SG_EC2ERKSJ_j
Pxe:_X509CertificateEnumerator_MoveNext_m2269241175
PIh:__Z37RuntimeInvoker_TextAnchor_t2035777396PK10MethodInfoPvPS2_
abd:_Char_System_IConvertible_ToDecimal_m3534906463
dFc:_cf2_glyphpath_moveTo
GHe:_ClientSessionInfo_Finalize_m2165787049
O$e:_List_1_Contains_m1908611371_gshared
kjc:__ZN5IMGUI14GUIWindowStateD2Ev
tGe:_ClientContext_Clear_m1774063253
ypd:_DateTime_AddSeconds_m332574389_AdjustorThunk
had:_Byte_System_IConvertible_ToSByte_m1869482168
Buj:__GLOBAL__sub_I_Assembly_cpp
$ai:_AsyncOperation_set_allowSceneActivation_m1319035743
D_g:_GUIContent_set_text_m172527295
y$i:_U3CFadeAlphaU3Ec__Iterator0_System_Collections_Generic_IEnumeratorU3CobjectU3E_get_Current_m3848452170
At:__ZN7mecanim5human10RetargetToEPKNS0_5HumanEPKNS0_9HumanPoseES6_RKN4math4trsXEPS4_PNS_8skeleton13SkeletonPoseTIS8_EESF_
Cx:__ZN7mecanim9animation8SeekClipERKNS0_12StreamedClipERNS0_18StreamedClipMemoryEf
t2i:__ZL24UnresolvedVirtualCall_68P12Il2CppObjectS0_iS0_S0_S0_S0_S0_S0_PK10MethodInfo
Yl:_emscripten_glIsTexture
qji:_AnimatorControllerPlayable_INTERNAL_CALL_SetTriggerString_m4096539940
Dk:_emscripten_glHint
y2i:__ZL24UnresolvedVirtualCall_73P12Il2CppObjectPK10MethodInfo
fUi:_Check_SourceAndPredicate_m2332465641
rIc:_ft_var_readpackeddeltas
F$c:_String_op_Inequality_m215368492
Vdg:_Dictionary_2_Clear_m1938428402_gshared
hFh:__Z90RuntimeInvoker_Void_t1185182177_Il2CppObject_Vector3U26_t3464235976_Vector3U26_t3464235976PK10MethodInfoPvPS2_
xuh:__Z81RuntimeInvoker_Il2CppObject_Int64_t3736567304_Int64_t3736567304_Int64_t3736567304PK10MethodInfoPvPS2_
cEi:_StackTraceUtility_ExtractFormattedStackTrace_m3979573127
mBg:_UInt32_System_IConvertible_ToInt64_m2261037378
$l:_SDL_UpperBlit
c_a:__Z35GetTextureDecodeValuesWithIntensity16TextureUsageMode17TextureColorSpace10ColorSpacef
qzd:_Array_InternalArray__ICollection_Remove_TisChar_t3634460470_m4143749387_gshared
Xqj:__ZN15dense_hashtableINSt3__24pairIK10KeyWrapperINS1_IPK9EventInfoP11Il2CppClassEEEjEES9_17ReflectionMapHashIS8_EN14dense_hash_mapIS9_jSD_NS9_14EqualsComparerINS0_8equal_toIS8_EEEENS0_9allocatorISB_EEE9SelectKeyESI_SK_E15set_deleted_keyERKSB_
doj:__ZN15dense_hashtableINSt3__24pairIK10KeyWrapperINS1_IPK12PropertyInfoP11Il2CppClassEEEjEES9_17ReflectionMapHashIS8_EN14dense_hash_mapIS9_jSD_NS9_14EqualsComparerINS0_8equal_toIS8_EEEENS0_9allocatorISB_EEE9SelectKeyESI_SK_ED2Ev
tzj:__ZNK6il2cpp2os6Socket12GetLastErrorEv
p6d:_GregorianCalendar__ctor_m979779718
tLe:_SslClientStream__ctor_m2402546929
cth:__Z50RuntimeInvoker_Boolean_t97287965_Double_t594665363PK10MethodInfoPvPS2_
vCb:__ZN14SafeBinaryRead20OverrideRootTypeNameEPKc
w7e:_DictionaryNodeEnumerator_get_Entry_m2309234501
BSh:__Z72RuntimeInvoker_Int32_t2950945753_Vector3_t3722313464_Vector3_t3722313464PK10MethodInfoPvPS2_
e3:__ZN14FileCacherRead16UnlockCacheBlockEj
tCh:__Z80RuntimeInvoker_Void_t1185182177_Il2CppObject_Double_t594665363_Int32_t2950945753PK10MethodInfoPvPS2_
rQe:_Enumerator_Dispose_m951715887_AdjustorThunk
Yuc:__ZNSt3__26vectorIN4core12basic_stringIcNS1_20StringStorageDefaultIcEEEE13stl_allocatorIS5_L18MemLabelIdentifier34ELi16EEE6assignINS_11__wrap_iterIPS5_EEEENS_9enable_ifIXaasr21__is_forward_iteratorIT_EE5valuesr16is_constructibleIS5_NS_15iterator_traitsISF_E9referenceEEE5valueEvE4typeESF_SF_
iih:_InternalEnumerator_1_System_Collections_IEnumerator_Reset_m521819017_AdjustorThunk
kge:_IsolatedStorageException__ctor_m1022659452
r$i:_DisplayManager__ctor_m3885085883
nHb:__Z18Transfer_BlittableI17RemapPPtrTransferLb1E8Vector3fEvRK29SerializationCommandArgumentsR31RuntimeSerializationCommandInfo
Mqf:__ZL61ClassInterfaceType_t4029497327_CustomAttributesCacheGeneratorP21CustomAttributesCache
F0a:__ZN6Camera6RenderER11CullResultsR17ShaderPassContextPK21CameraRenderingParamsNS_10RenderFlagE
iRe:_Enumerator_VerifyState_m1745883925_AdjustorThunk
Kc:_emscripten_glUniform1f
Qhd:_SortedList__ctor_m1261191695
u7h:_ReadOnlyCollection_1_System_Collections_IList_get_IsReadOnly_m165706550_gshared
Hxc:__Z20ParseImageParametersR11UTF16StringRiRN20TextRenderingPrivate16TextFormatChangeE
d_f:__ZL55CanvasScaler_t2767979955_CustomAttributesCacheGeneratorP21CustomAttributesCache
h_h:_Collection_1_RemoveItem_m2942561924_gshared
Pc:_emscripten_glUniform1i
nfj:__ZN6il2cpp5utils9PathUtils8BasenameIcEENSt3__212basic_stringIT_NS3_11char_traitsIS5_EENS3_9allocatorIS5_EEEERKSA_
MFi:_Touch_get_type_m3668036993_AdjustorThunk
mCb:__ZN13MonoBehaviour9CallAwakeEv
F4:__Z33UnregisterDeviceEventCallbackImplPFv23UnityGfxDeviceEventTypeE
MTg:__Z14bankers_roundff
LSb:__ZN9ShaderLab16SerializedTagMapaSERKS0_
jP:__ZN11UnityEngine15CloudWebService16SessionContainer20RestoreSessionHeaderERKN4core12basic_stringIcNS2_20StringStorageDefaultIcEEEES8_RNS0_13SessionHeaderE
A8b:__ZN8Material28ApplyMaterialPropertyDrawersEv
wNj:__ZN6il2cpp2os12Cryptography23GetCryptographyProviderEv
B6i:__ZN24dense_hashtable_iteratorINSt3__24pairIK10KeyWrapperIPK22Il2CppGenericParameterEP11Il2CppClassEES6_N6il2cpp5utils11PointerHashIS4_EEN14dense_hash_mapIS6_S9_SE_NS6_14EqualsComparerINS0_8equal_toIS5_EEEENS0_9allocatorISA_EEE9SelectKeyESJ_SL_E30advance_past_empty_and_deletedEv
kA:__ZN11UnityEngine9Animation27CreateAvatarBindingConstantER9TransformPKN7mecanim9animation14AvatarConstantERNS3_6memory9AllocatorE
ezb:__ZN14SafeBinaryRead21TransferSTLStyleArrayINSt3__26vectorIN30RuntimeInitializeOnLoadManager9ClassInfoE13stl_allocatorIS4_L18MemLabelIdentifier12ELi16EEEEEEvRT_17TransferMetaFlags
RLc:__ZN2UI14CanvasRenderer13SyncTransformENS0_8SyncFlagEb
HRg:_MaskableGraphic_get_onCullStateChanged_m3331479633
n8b:__ZN9BlobWriteC2ER13dynamic_arrayIhLj16EE24TransferInstructionFlags19BuildTargetPlatform
UUd:_CanvasUpdateRegistry__ctor_m2005397069
Dbf:_OidEnumerator__ctor_m257525176
z1:__ZN14MessageHandler3GetEv
Gqf:__ZL70ReliabilityContractAttribute_t502331440_CustomAttributesCacheGeneratorP21CustomAttributesCache
j0d:_LayoutGroup_SetLayoutInputForAxis_m2458344630
ad:_emscripten_glAttachShader
$ra:__ZN9GfxDevice13SetActiveTierE12GraphicsTier
Q1d:_Image__cctor_m1927508576
Yvb:__ZNSt3__26vectorIN4core12basic_stringIcNS1_20StringStorageDefaultIcEEEENS_9allocatorIS5_EEE6assignIPS5_EENS_9enable_ifIXaasr21__is_forward_iteratorIT_EE5valuesr16is_constructibleIS5_NS_15iterator_traitsISC_E9referenceEEE5valueEvE4typeESC_SC_
T7g:_PlayerEditorConnectionEvents__ctor_m3325332137
Foh:_InternalEnumerator_1_get_Current_m3331252162_AdjustorThunk
T$g:_Mathf_Clamp_m500974738
Kif:__ZL76String_t_CustomAttributesCacheGenerator_String_Concat_m1809518182____values0P21CustomAttributesCache
oEb:__Z18Transfer_BlittableI14SafeBinaryReadLb0E11QuaternionfEvRK29SerializationCommandArgumentsR31RuntimeSerializationCommandInfo
POb:__Z18Transfer_BlittableI18StreamedBinaryReadILb0EELb1E12PropertyNameEvRK29SerializationCommandArgumentsR31RuntimeSerializationCommandInfo
wT:_tlsf_walk_heap
itj:__ZNK15dense_hashtableINSt3__24pairIK10KeyWrapperIP11Il2CppClassES4_EES5_N6il2cpp8metadata16SZArrayClassHashEN14dense_hash_mapIS5_S4_SA_NS5_14EqualsComparerINS9_19SZArrayClassCompareEEENS0_9allocatorIS7_EEE9SelectKeyESE_SG_E10test_emptyERK24dense_hashtable_iteratorIS7_S5_SA_SI_SE_SG_E
QKf:__ZL59AnimatorClipInfo_t3156717155_CustomAttributesCacheGeneratorP21CustomAttributesCache
Tnd:_Convert_ToUInt32_m3592050311
jb:invoke_vif
kb:invoke_vid
Jlh:_InternalEnumerator_1__ctor_m2202456613_AdjustorThunk
RTj:__ZNSt3__212basic_stringIcNS_11char_traitsIcEENS_9allocatorIcEEE6insertEjPKc
lb:invoke_vii
fab:__ZN12TLSAllocatorI14StackAllocatorE16ThreadInitializeEP13BaseAllocator
AEf:__ZL99Camera_t4157153871_CustomAttributesCacheGenerator_Camera_INTERNAL_CALL_ScreenPointToRay_m3272660008P21CustomAttributesCache
XKi:__ZN21InterfaceFuncInvoker0IdE6InvokeEjP11Il2CppClassP12Il2CppObject
vNc:__Z41CanvasRenderer_CUSTOM_DisableRectClippingP12Il2CppObject
nne:_MonoType_GetConstructorImpl_m441167626
_ei:_Component_BroadcastMessage_m677337613
aoj:__ZN15dense_hashtableINSt3__24pairIK10KeyWrapperINS1_IPK12PropertyInfoP11Il2CppClassEEEjEES9_17ReflectionMapHashIS8_EN14dense_hash_mapIS9_jSD_NS9_14EqualsComparerINS0_8equal_toIS8_EEEENS0_9allocatorISB_EEE9SelectKeyESI_SK_E8min_sizeEjj
gJa:__ZN25SingleBlockMemoryFileDataD0Ev
jcb:__ZNSt3__26vectorI14ConstantStringNS_9allocatorIS1_EEE6assignINS_11__wrap_iterIPS1_EEEENS_9enable_ifIXaasr21__is_forward_iteratorIT_EE5valuesr16is_constructibleIS1_NS_15iterator_traitsISA_E9referenceEEE5valueEvE4typeESA_SA_
y7h:_ReadOnlyCollection_1_CopyTo_m586367390_gshared
eP:__ZN11UnityEngine15CloudWebService16SessionContainer21ConvertFromFolderTimeERKN4core12basic_stringIcNS2_20StringStorageDefaultIcEEEEPjPt
dYe:_List_1_GetEnumerator_m563931292_gshared
DFb:__ZNSt3__26vectorI8GUIStyle13stl_allocatorIS1_L18MemLabelIdentifier1ELi16EEE7reserveEj
x2h:_ReadOnlyCollection_1_Contains_m3869904379_gshared
SQh:__Z79RuntimeInvoker_Void_t1185182177_UIVertexU5BU5DU26_t2696165624_Int32_t2950945753PK10MethodInfoPvPS2_
xuj:__ZN6il2cpp6icalls8mscorlib6System9Threading6Thread27GetSerializedCurrentCultureEP12Il2CppThread
cIe:_Context_set_ReadSequenceNumber_m2154909392
$Vc:_RijndaelTransform_SubByte_m3037693507
Gii:_AnimatorControllerPlayable_INTERNAL_CALL_GetAnimatorControllerInternal_m820795282
wgj:__ZNSt3__26__treeIP11Il2CppClassNS_4lessIS2_EENS_9allocatorIS2_EEE7destroyEPNS_11__tree_nodeIS2_PvEE
YZb:__Z31CalculateHierarchyTransformType23TransformAccessReadOnly
Yaj:__ZN15dense_hashtableINSt3__24pairIK10KeyWrapperI13dynamic_arrayIPK10Il2CppTypeLj4EEEPFvvEEES8_N6il2cpp8metadata19Il2CppSignatureHashEN14dense_hash_mapIS8_SB_SF_NS8_14EqualsComparerINSE_22Il2CppSignatureCompareEEENS0_9allocatorISC_EEE9SelectKeyESJ_SL_E12resize_deltaEjj
vYb:__Z13RegisterClassI11TimeManagerEvv
qJ:__ZN4FMOD8ChannelI11setPositionEjj
vJj:_GC_set_fl_marks
SPf:__ZL99GUIStyle_t3956901511_CustomAttributesCacheGenerator_GUIStyle_INTERNAL_set_contentOffset_m1976585748P21CustomAttributesCache
zGi:_Transform_set_parentInternal_m158091544
uui:_PatternCompiler_MakeFlags_m1977119795
y7:__ZN17BaseObjectManager13StaticDestroyEPv
fqh:_Comparer_1__cctor_m3891417387_gshared
Iyb:__ZNSt3__26vectorIN15ResourceManager10DependencyE13stl_allocatorIS2_L18MemLabelIdentifier51ELi16EEEC2INS_11__wrap_iterIPS2_EEEET_SB_RKS5_PNS_9enable_ifIXaasr21__is_forward_iteratorISB_EE5valuesr16is_constructibleIS2_NS_15iterator_traitsISB_E9referenceEEE5valueEvE4typeE
YIg:_EnumBuilder_GetEvent_m4074915332
th:_sysconf
kI:__ZN4FMOD6Reverb13setPropertiesEPK22FMOD_REVERB_PROPERTIES
psj:__ZN15dense_hashtableINSt3__24pairIK10KeyWrapperIP11Il2CppClassES4_EES5_N6il2cpp8metadata16SZArrayClassHashEN14dense_hash_mapIS5_S4_SA_NS5_14EqualsComparerINS9_19SZArrayClassCompareEEENS0_9allocatorIS7_EEE9SelectKeyESE_SG_E5clearEv
rUa:__ZN9DepthPass13PrepareSubsetEjRK10RenderNodeifRK17ShaderReplaceData
p2c:_String_IndexOf_m3406607758
rrh:__Z68RuntimeInvoker_Boolean_t97287965_Int16_t2552820387_SByte_t1669577662PK10MethodInfoPvPS2_
LBe:_ASN1__ctor_m3517592395
bBi:_SafeBag_get_BagOID_m2153399743
XRe:_List_1_System_Collections_ICollection_CopyTo_m2821774002_gshared
q6b:__Z18ExtractTagThrowingR11ICallString
lga:__ZN4PPtrI6ShaderE8TransferI19StreamedBinaryWriteILb0EEEEvRT_
dFd:_Array_InternalArray__ICollection_Add_TisCustomAttributeNamedArgument_t287865710_m4157175270_gshared
WLa:__ZZ23InitPlayerLoopCallbacksvEN40EarlyUpdatePlayerCleanupCachedDatastruct7ForwardEv
D4e:_Collection_1_IsFixedSize_m1957637889_gshared
bq:__ZN4core20StringStorageDefaultIcE6assignEPKcj
rCg:_UInt64_System_IConvertible_ToUInt64_m2135047981_AdjustorThunk
lvh:__Z67RuntimeInvoker_Void_t1185182177_SByte_t1669577662_SByte_t1669577662PK10MethodInfoPvPS2_
dBe:_BigInteger_ModPow_m3776562770
ZRi:_UnityEvent_2__ctor_m3404211184_gshared
fHf:__ZL98Quaternion_t2301928331_CustomAttributesCacheGenerator_Quaternion_INTERNAL_CALL_Inverse_m1744399623P21CustomAttributesCache
$zj:__ZN15dense_hashtableINSt3__24pairIK10KeyWrapperIP12Il2CppObjectEN6il2cpp2gc9CachedCCWEEES5_NS7_5utils11PointerHashIS3_EEN14dense_hash_mapIS5_S9_SD_NS5_14EqualsComparerINS0_8equal_toIS4_EEEENS0_9allocatorISA_EEE9SelectKeyESI_SK_E3endEv
hzb:__Z14resize_trimmedINSt3__26vectorIi13stl_allocatorIiL18MemLabelIdentifier12ELi16EEEEEvRT_j
wKe:_RecordProtocol_ProcessChangeCipherSpec_m15839975
Icd:_ArrayList_IndexOf_m305368842
w2e:_List_1_Add_m2996644200_gshared
l2a:__ZN6Camera6SetFarEf
ezc:_UNITY_FT_Init_Class_ft_bitmap_glyph_class
nia:__ZN6prcoreL12RemapGenericI17TexFormatABGR888817TexFormatARGB8888EEvPKNS_9InnerInfoE
$fb:__ZN11GameManager17MainThreadCleanupEv
Iid:_Stack_get_Count_m2258661097
r0h:_ReadOnlyCollection_1__ctor_m1345363288_gshared
cef:_X509Chain__ctor_m2674663382
x9f:_Dictionary_2_System_Collections_ICollection_get_SyncRoot_m2020472285_gshared
Agj:__ZN6il2cpp6icalls8mscorlib6System18CollectTypeMethodsINS_5utils10functional6FilterINSt3__212basic_stringIcNS7_11char_traitsIcEENS7_9allocatorIcEEEENS4_11StringUtils23CaseInsensitiveComparerEEEEEvP11Il2CppClassPKSH_jRKT_RNS7_6vectorIPK10MethodInfoNSB_ISR_EEEERA65535_b
snh:_InternalEnumerator_1_System_Collections_IEnumerator_Reset_m1775752715_AdjustorThunk
eqi:_ConfigHandler_OnProcessingInstruction_m4212209262
g_e:_List_1_Reverse_m3290386475_gshared
Gmg:_SerializationCallbacks_GetSerializationCallbacks_m2939476649
wgd:_Hashtable__cctor_m4112166779
eHc:_UNITY_tt_slot_init
aQb:__Z25scripting_array_class_get17ScriptingClassPtrj
lpc:__ZL22Transfer_ManagedObjectI9JSONWriteLb1EEvRK29SerializationCommandArgumentsR31RuntimeSerializationCommandInfo
vta:__ZN9GfxDevice20DestroyRenderSurfaceER12ObjectHandleI17RenderSurface_TagP17RenderSurfaceBaseE
Fid:_Stack__ctor_m2602729586
Lxf:__ZL81Convert_t2465617642_CustomAttributesCacheGenerator_Convert_ToDateTime_m1031474510P21CustomAttributesCache
YGa:__ZN9GfxDevice22UpdateComputeResourcesEjPK9TextureIDPK16TextureDimensionPKijPKjjPK15ComputeBufferIDS7_PK20ComputeBufferCounterjSC_S2_S5_S9_SF_
j2b:__ZN12_GLOBAL__N_15qAsinEff
k1f:_Comparer_1__cctor_m3470905005_gshared
zhh:_InternalEnumerator_1_System_Collections_IEnumerator_get_Current_m2629988057_AdjustorThunk
gab:__ZN12TLSAllocatorI14StackAllocatorE13ThreadCleanupEv
zM:__Z18GetAudioManagerPtrv
cih:_InternalEnumerator_1_Dispose_m2043273260_AdjustorThunk
xHj:__ZThn4_N6il2cpp2vm13ComObjectBase16MarshalInterfaceEP13Il2CppIStreamRK10Il2CppGuidPvjS7_j
Mld:_Convert_ToDouble_m996590115
Vtb:__ZN4Mesh27SwizzleVertexColorsIfNeededEb
Oab:__Z27FindActiveTransformWithPathPKc
B4h:_ReadOnlyCollection_1_System_Collections_IList_Remove_m4169110229_gshared
SAg:_UInt16_ToString_m3020002356
d6d:_LayoutRebuilder_LayoutComplete_m68578143
hNh:__Z69RuntimeInvoker_Void_t1185182177_Int32_t2950945753_Color32_t2600501292PK10MethodInfoPvPS2_
dhb:__ZN12BaseRendererD0Ev
_7a:__Z29StdTemplateConversionFunctionIbyEbPvR14SafeBinaryRead
WVc:_RijndaelManaged_GenerateKey_m1736287430
xUf:__ZL90PointerEventData_t3807901092_CustomAttributesCacheGenerator_U3ClastPressU3Ek__BackingFieldP21CustomAttributesCache
ZXc:_SHA1Internal_Initialize_m499810128
xWa:__ZNK6Camera7GetNearEv
OJg:_GenericTypeParameterBuilder_GetConstructorImpl_m863833310
dya:__ZN7ApiGLES11UnmapBufferEjN2gl12BufferTargetE
iDj:__ZN6il2cpp5utilsL24Utf32CharToSurrogatePairEjRA2_Ds
vob:__Z25GetNextAllowedTextureSizeib13TextureFormat
oV:__ZN20LocalFileSystemWebGL4CopyER13FileEntryDataS1_
eR:__ZN19CloudServiceHandler6RetainEv
pPj:__ZN6il2cpp2os9Semaphore4WaitEb
h1h:_ReadOnlyCollection_1_System_Collections_IList_IndexOf_m198887188_gshared
yXe:_List_1_set_Item_m1129294121_gshared
Rtg:_UTF32Encoding_GetBytes_m3180303867
lhb:__ZN12BaseRenderer20FlattenToRenderQueueER15RenderNodeQueueRK20DeprecatedSourceData
G2e:_List_1_CopyTo_m4034402519_gshared
Tka:__Z34scripting_liveness_calculation_endPv
KDj:__ZN6il2cpp2os6ThreadC2Ev
QPf:__ZL85GUIStyle_t3956901511_CustomAttributesCacheGenerator_GUIStyle_set_clipping_m2402710559P21CustomAttributesCache
Vch:_U3CGetEnumeratorU3Ec__Iterator0_System_Collections_Generic_IEnumeratorU3CTU3E_get_Current_m1566629109_gshared
Bqd:_DateTimeOffset_get_UtcDateTime_m1021718282_AdjustorThunk
fyc:__ZNK19TextRenderingModule8TMGenGetERK11UTF16StringPN13TextRendering4FontE10TextAnchor13TextAlignmentfffbb11ColorRGBA32fii
T6e:_HybridDictionary_get_Count_m1166314536
_lb:__ZN14RenderSettings23VirtualRedirectTransferER19StreamedBinaryWriteILb0EE
Fqc:__Z18Transfer_BlittableI8JSONReadLb0E8Vector3fEvRK29SerializationCommandArgumentsR31RuntimeSerializationCommandInfo
LJf:__ZL113PlayableHandle_t882318307_CustomAttributesCacheGenerator_PlayableHandle_INTERNAL_CALL_IsValidInternal_m3243430721P21CustomAttributesCache
qtj:__ZN6il2cpp2vm6Thread6DetachEP12Il2CppThread
_zi:_GeneralNames_get_DNSNames_m3788548987
eUe:_List_1_AddCollection_m2026039026_gshared
Gef:_X509ChainStatus_get_Status_m2572005749_AdjustorThunk
XPg:_MonoProperty_GetOptionalCustomModifiers_m62958967
k2i:__ZL24UnresolvedVirtualCall_59P12Il2CppObjectS0_aPK10MethodInfo
rng:_SerializationEntry_t648286436_marshal_pinvoke
qA:__ZN7mecanim8skeleton30SkeletonBuildReverseIndexArrayEPiPKiPKNS0_8SkeletonES6_
jic:__Z19GetGUIBlendMaterialv
Wdh:_InternalEnumerator_1_System_Collections_IEnumerator_Reset_m1394395022_AdjustorThunk
Tle:_Math_Round_m3018379666
wEj:__ZN6il2cpp2os10ThreadImpl5SleepEjb
j1h:_ReadOnlyCollection_1_System_Collections_IList_Remove_m1965826685_gshared
zsd:_Delegate_CreateDelegate_m1051651521
xAb:__ZN15FileSystemEntry4MoveERS_23FileSystemCopyMoveFlags
gTf:__ZL120RenderPipelineManager_t4036911426_CustomAttributesCacheGenerator_RenderPipelineManager_DoRenderLoop_Internal_m2167339710P21CustomAttributesCache
g$j:_glBindSampler__wrapper
Gf:_emscripten_set_mouseup_callback
LGa:__ZN9GfxDevice27SetRandomWriteTargetTextureEi9TextureID
Ocg:_Dictionary_2_System_Collections_Generic_ICollectionU3CSystem_Collections_Generic_KeyValuePairU3CTKeyU2CTValueU3EU3E_Contains_m3033743418_gshared
WTe:_List_1_System_Collections_IList_Remove_m3140917266_gshared
yrg:_Encoding_get_DecoderFallback_m1525880676
Ksf:__ZL59ITrackingHandler_t1244553475_CustomAttributesCacheGeneratorP21CustomAttributesCache
wvi:_CompositeExpression__ctor_m2434860303
V9h:_AnimatorStateInfo_get_nameHash_m3988777370_AdjustorThunk
ldg:_Dictionary_2_get_Values_m2682483593_gshared
xef:_X509ChainElementCollection_System_Collections_IEnumerable_GetEnumerator_m3829089536
ZYh:_Collection_1_System_Collections_IEnumerable_GetEnumerator_m801406918_gshared
UHh:__Z405RuntimeInvoker_Boolean_t97287965_Il2CppObject_Il2CppObject_Color_t2555686324_Int32_t2950945753_Single_t1397266774_Single_t1397266774_Int32_t2950945753_SByte_t1669577662_SByte_t1669577662_Int32_t2950945753_Int32_t2950945753_Int32_t2950945753_Int32_t2950945753_SByte_t1669577662_Int32_t2950945753_Vector2_t2156229523_Vector2_t2156229523_SByte_t1669577662_SByte_t1669577662_TextGenerationErrorU26_t2161108057PK10MethodInfoPvPS2_
uU:__ZNK18ScreenManagerWebGL8GetWidthEv
Adj:__ZN6il2cpp2vm13MetadataCache33GetFieldDefaultValueDataFromIndexEi
uF:__ZN10SampleClipD2Ev
LLi:__ZN23InterfaceActionInvoker1IxE6InvokeEjP11Il2CppClassP12Il2CppObjectx
VOi:_Predicate_1_Invoke_m2389850270_gshared
vEj:__ZN6il2cpp2os10ThreadImpl13SetWaitObjectEPNS0_5posix15PosixWaitObjectE
xD:__Z56AnimationOffsetPlayable_CUSTOM_INTERNAL_CALL_GetPositionR9HPlayableR8Vector3f
AGc:_cff_cmap_unicode_init
cRa:__ZNSt3__224__buffered_inplace_mergeIRN10vector_mapIiN17InstancedPropInfo12PropertyTypeENS_4lessIiEE13stl_allocatorINS_4pairIiS3_EEL18MemLabelIdentifier1ELi16EEE13value_compareENS_11__wrap_iterIPS8_EEEEvT0_SH_SH_T_NS_15iterator_traitsISH_E15difference_typeESL_PNSK_10value_typeE
BAi:_DeriveBytes_set_Salt_m1400945044
h3:__ZN14FileCacherRead13GetFileLengthEv
ikc:__Z36Event_CUSTOM_Internal_SetNativeEvent13Il2Cpp_IntPtr
j5e:_Collection_1_IsValidItem_m3080586124_gshared
eZd:_DropdownItem_set_text_m3702712387
qWd:_ClipperRegistry_Register_m2407166513
tSj:_readlink
zoj:__ZN15dense_hashtableINSt3__24pairIK10KeyWrapperINS1_IPK9EventInfoP11Il2CppClassEEEjEES9_17ReflectionMapHashIS8_EN14dense_hash_mapIS9_jSD_NS9_14EqualsComparerINS0_8equal_toIS8_EEEENS0_9allocatorISB_EEE9SelectKeyESI_SK_E12resize_deltaEjj
Sci:_Canvas_get_targetDisplay_m486586852
RNg:_MonoCMethod_Invoke_m2700167622
uhd:_KeyMarker__cctor_m2590194914
xDf:__ZL143U3CU3Ec__CompilerGenerated1_t1117331131_CustomAttributesCacheGenerator_U3CU3Ec__CompilerGenerated1_U3CRegisterBaseImportersU3Ec__24_m3976260632P21CustomAttributesCache
vnd:_Convert_ToString_m1282703378
Wvb:__ZNK6Sprite9GetBoundsE8Vector2fbb
fNi:_Lexer_State14_m3354309022
KPa:__ZNK19RenderEventsContext21CleanupCommandBuffersEv
TUe:_List_1_System_Collections_Generic_ICollectionU3CTU3E_get_IsReadOnly_m507350231_gshared
Fwa:__ZN11ContextGLES6CreateEi
KHi:_Vector3_Equals_m496167795_AdjustorThunk
U4d:_U3CMouseDragOutsideRectU3Ec__Iterator1_Dispose_m267465418
csd:_Decimal_CompareTo_m3502307243_AdjustorThunk
BPb:__Z19TransferField_ArrayI18StreamedBinaryReadILb0EE27Converter_SimpleNativeClassI17AnimationCurveTplIfEEEvRK23StaticTransferFieldInfoR31RuntimeSerializationCommandInfoRT0_
T9a:__ZN14StackAllocator16FrameMaintenanceEb
Edb:__Z18ReadStringFromFilePN4core17string_with_labelILi1EEERKNS_12basic_stringIcNS_20StringStorageDefaultIcEEEE
LTg:_Scrollbar_get_value_m760470106
D_:__ZNK10GameObject20QueryComponentByTypeEPKN5Unity4TypeE
vrd:_Decimal_System_IConvertible_ToInt32_m1488426794_AdjustorThunk
ume:_MonoCustomAttrs_IsUserCattrProvider_m2878058089
PXf:__ZL71InputField_t3762917431_CustomAttributesCacheGenerator_m_HideMobileInputP21CustomAttributesCache
AE:__Z78AnimatorControllerPlayable_CUSTOM_INTERNAL_CALL_IsParameterControlledByCurveIDR9HPlayablei
Ypg:_CryptoStream__ctor_m2579441618
dcc:__Z53Register_UnityEngine_GameObject_get_activeInHierarchyv
kze:_ActivationContext_Dispose_m2038725770
g4i:__ZL25UnresolvedVirtualCall_163P12Il2CppObject19Color32_t2600501292S1_PK10MethodInfo
WY:__ZL30InitializeCoreScriptingClassesv
l5h:_ReadOnlyCollection_1_Contains_m1699971074_gshared
MCd:_Array_compare_TisVector4_t3319028937_m1974066282_gshared
Bg:_glBlitFramebuffer
SKa:__ZN17ArchiveFileSystem5TouchER13FileEntryData
fRe:_Enumerator_System_Collections_IEnumerator_get_Current_m3594024719_gshared
bHb:__Z35Transfer_Blittable_SingleValueFieldI14SafeBinaryReadhEvRT_R17GeneralMonoObjectRK23StaticTransferFieldInfo
t4b:__ZN12CachedWriter15CompleteWritingEv
TUa:__ZN13dynamic_arrayI11CulledLightLj4EE6insertEPS0_PKS0_S4_
kuh:__Z120RuntimeInvoker_Il2CppObject_Il2CppObject_Il2CppObject_Il2CppObject_Int32_t2950945753_SByte_t1669577662_SByte_t1669577662PK10MethodInfoPvPS2_
Qsf:__ZL60IRemotingTypeInfo_t2222593263_CustomAttributesCacheGeneratorP21CustomAttributesCache
ylb:__ZN11Tetrahedron8TransferI18StreamedBinaryReadILb0EEEEvRT_
Bn:FUNCTION_TABLE_vif
Cn:FUNCTION_TABLE_vid
Dn:FUNCTION_TABLE_vii
dla:__Z40scripting_liveness_calculation_from_root18ScriptingObjectPtrPv
MWf:__ZL67OptionDataList_t1438173104_CustomAttributesCacheGenerator_m_OptionsP21CustomAttributesCache
pNa:_UNITY_png_create_write_struct
K9g:_RaycastHit_get_point_m177058539_AdjustorThunk
Yrf:__ZL65IContributeDynamicSink_t2255997386_CustomAttributesCacheGeneratorP21CustomAttributesCache
uda:__ZN7Texture23VirtualRedirectTransferER24GenerateTypeTreeTransfer
lwc:_UNITY_FT_Set_Transform
U$b:__ZNK32RendererMaterialAnimationBinding12SetPPtrValueERKN11UnityEngine9Animation10BoundCurveEi
czj:__ZN6il2cpp8metadata15GenericMetadata20RegisterGenericClassEP18Il2CppGenericClass
N_j:_glDeleteFramebuffers__wrapper
eSi:_UnityEvent_4_FindMethod_Impl_m96988021_gshared
QEd:_Array_InternalArray__ICollection_Add_TisKeyValuePair_2_t3177551628_m3762445167_gshared
xfj:__ZN6il2cpp2vm7Runtime17GetDelegateInvokeEP11Il2CppClass
saf:_WebHeaderCollection_ToString_m1263025316
c1f:__ZL118Panel_MainScene_t1057628098_CustomAttributesCacheGenerator_Panel_MainScene_U3CButtonClick_setMyInfoU3Em__F_m2049033213P21CustomAttributesCache
Tkh:_InternalEnumerator_1_MoveNext_m1015797184_gshared
Jvh:__Z171RuntimeInvoker_Int32_t2950945753_Il2CppObject_Int32_t2950945753_Int32_t2950945753_Int32_t2950945753_Il2CppObject_Int32_t2950945753_SByte_t1669577662_ContextU26_t3937453398PK10MethodInfoPvPS2_
aQg:_GetterAdapter_Invoke_m3767885970
xYe:_List_1__ctor_m747758800_gshared
SKg:_MethodBuilder_get_ReflectedType_m3038768129
Q3c:_String_CreateString_m2818852475
N5g:__ZN23InterfaceActionInvoker2IP21Exception_t1436737249P17Object_t631007953E6InvokeEjP11Il2CppClassP12Il2CppObjectS1_S3_
$Pe:_Enumerator_get_Current_m335492761_AdjustorThunk
MPd:_BaseRaycaster_get_renderOrderPriority_m1110184610
RHa:__ZNK15Lz4Decompressor16DecompressMemoryEPKvPjPvS2_
ame:_MemberAccessException__ctor_m3713703094
lNg:_MethodBase_get_ContainsGenericParameters_m2144492325
Iof:__ZL117GenericTypeParameterBuilder_t1988827940_CustomAttributesCacheGenerator_GenericTypeParameterBuilder_Equals_m3260957994P21CustomAttributesCache
_1i:__ZL24UnresolvedVirtualCall_47P12Il2CppObject20DateTime_t3738529785PK10MethodInfo
kDf:__ZL141U3CU3Ec__CompilerGenerated0_t1117396667_CustomAttributesCacheGenerator_U3CU3Ec__CompilerGenerated0_U3CRegisterBaseExportersU3Ec__12_m80474334P21CustomAttributesCache
Drh:__Z108RuntimeInvoker_Boolean_t97287965_Il2CppObject_SByte_t1669577662_Int64U26_t200113976_ExceptionU26_t3600731591PK10MethodInfoPvPS2_
l9a:__ZNSt3__26__treeINS_12__value_typeIN4core12basic_stringIcNS2_20StringStorageDefaultIcEEEEPN16MemoryFileSystem4NodeEEENS_19__map_value_compareIS6_SA_NS_4lessIS6_EELb1EEE13stl_allocatorISA_L18MemLabelIdentifier54ELi16EEE4findIS6_EENS_15__tree_iteratorISA_PNS_11__tree_nodeISA_PvEEiEERKT_
dBf:__ZL72PKCS12_t4101533061_CustomAttributesCacheGenerator_U3CU3Ef__switchU24map8P21CustomAttributesCache
NEh:__Z85RuntimeInvoker_Void_t1185182177_Int32_t2950945753_Int32_t2950945753_SByte_t1669577662PK10MethodInfoPvPS2_
DAc:_UNITY_tt_face_load_os2
JGd:_Array_InternalArray__ICollection_CopyTo_TisUICharInfo_t75501106_m4268526610_gshared
EGb:__Z29Transfer_Blittable_ArrayFieldI14SafeBinaryRead8Vector4fEvRT_R9ArrayInfoRK23StaticTransferFieldInfo
TFg:_Default_check_arguments_m3882727959
Nbi:_Bounds_get_size_m1171376090
Cgd:_Hashtable_get_IsSynchronized_m1426775249
Tug:_UTF8Encoding_GetMaxCharCount_m3762459613
cHg:_ModuleBuilder_RegisterToken_m4166846047
YSg:_RawImage_OnPopulateMesh_m1115858855
JOi:_Predicate_1_Invoke_m2887746805_gshared
Odj:__ZN6il2cpp2vm13MetadataCache25GetStringLiteralFromIndexEi
ggd:_Hashtable_ToPrime_m33531354
bx:__ZN7mecanim9animation12EvaluateClipEPKNS0_4ClipEPKNS0_9ClipInputEPNS0_10ClipMemoryEPNS0_10ClipOutputE
EZh:_Collection_1_IsSynchronized_m1117613618_gshared
S2h:_ReadOnlyCollection_1_System_Collections_IList_Insert_m2506606514_gshared
SLf:__ZL125AnimatorControllerPlayable_t1397024487_CustomAttributesCacheGenerator_AnimatorControllerPlayable_CrossFadeInternal_m325512485P21CustomAttributesCache
Wzg:_TypeInitializationException__ctor_m3546444694
JDd:_Array_InternalArray__IndexOf_TisInt32_t2950945753_m738632427_gshared
Rpb:__ZN4PPtrI11LightProbesE8TransferI18StreamedBinaryReadILb0EEEEvRT_
Opi:_CrossAppDomainData_get_DomainID_m3516796532
E4i:__ZL25UnresolvedVirtualCall_187P12Il2CppObject20UIVertex_t4057497605S1_PK10MethodInfo
fie:_MemoryStream_set_Position_m3169779190
K_a:__ZN13RenderManager29SetCurrentCameraAndStackStateEP6CameraP25CameraStackRenderingState
oRd:_ExecuteEvents_get_scrollHandler_m2659345019
ctj:__ZN15dense_hashtableINSt3__24pairIK10KeyWrapperINS1_IP11Il2CppClassjEEES4_EES6_N6il2cpp8metadata14ArrayClassHashEN14dense_hash_mapIS6_S4_SB_NS6_14EqualsComparerINSA_17ArrayClassCompareEEENS0_9allocatorIS8_EEE9SelectKeyESF_SH_E12resize_deltaEjj
Nh:_JS_WebRequest_Release
jKf:__ZL82Transform_t3600365921_CustomAttributesCacheGenerator_Transform_IsChildOf_m98488483P21CustomAttributesCache
EP:__ZN11UnityEngine15CloudWebService14DataErrorEventD0Ev
iTf:__ZL72RequiredByNativeCodeAttribute_t4130846357_CustomAttributesCacheGeneratorP21CustomAttributesCache
Gqi:_Context__ctor_m254302079
SKf:__ZL113AnimatorStateInfo_t509032636_CustomAttributesCacheGenerator_AnimatorStateInfo_t509032636____nameHash_PropertyInfoP21CustomAttributesCache
_yj:__ZN6il2cpp8metadata15GenericMetadata7InflateEPK19Il2CppGenericMethodPK20Il2CppGenericContext
wwe:_KeyGeneratedEventHandler_EndInvoke_m3057317531
yQa:__ZN19ShaderPropertySheet16SetArrayPropertyEN9ShaderLab16FastPropertyNameENS_12PropertyTypeEPKvj
BUg:_Selectable_FindSelectable_m2348614027
KXd:_FloatTween_get_duration_m1227071020
Hzj:__ZN15dense_hashtableINSt3__24pairIK10KeyWrapperIP12Il2CppObjectEN6il2cpp2gc9CachedCCWEEES5_NS7_5utils11PointerHashIS3_EEN14dense_hash_mapIS5_S9_SD_NS5_14EqualsComparerINS0_8equal_toIS4_EEEENS0_9allocatorISA_EEE9SelectKeyESI_SK_E16reset_thresholdsEv
Kji:_AnimatorControllerPlayable_GetLayerNameInternal_m4115043378
uKc:__ZN2UI11CanvasGroup23VirtualRedirectTransferER19StreamedBinaryWriteILb0EE
k9f:_ValueCollection_System_Collections_ICollection_get_SyncRoot_m1849311106_gshared
ubg:_Dictionary_2_pick_value_m1061019309_gshared
_qf:__ZL91SafeHandle_t3273388951_CustomAttributesCacheGenerator_SafeHandle_DangerousAddRef_m614714386P21CustomAttributesCache
lHc:_UNITY_TT_Get_VMetrics
XWi:_EqualityComparer_1__ctor_m2283513024_gshared
Zdd:_SimpleEnumerator__cctor_m2844299657
Hle:_LocalDataStoreSlot__ctor_m4104083971
zJd:_Array_qsort_TisVector3_t3722313464_m4117329442_gshared
fCi:_X509CertificateEnumerator_System_Collections_IEnumerator_Reset_m2039524926
cYh:_Collection_1_get_Item_m582558707_gshared
qza:__ZN7Texture21GetMasterTextureLimitEv
G6f:_Enumerator_Dispose_m3503748991_AdjustorThunk
t3a:__Z12CanAddScriptR10GameObject17ScriptingClassPtrPS1_S2_
yrj:__ZN6il2cpp2vm10Reflection12HasAttributeEP12Il2CppObjectP11Il2CppClass
NOa:_UNITY_png_write_sRGB
Ksc:__ZN8JSONRead21TransferSTLStyleArrayI13dynamic_arrayI4AABBLj4EEEEvRT_18MemLabelIdentifier17TransferMetaFlags
R7h:_Comparison_1_BeginInvoke_m3263247262_gshared
N_:__ZN9ShaderLabL25StaticInitializeShaderLabEPv
U:Math_max
y_f:__ZL64HorizontalLayoutGroup_t2586782146_CustomAttributesCacheGeneratorP21CustomAttributesCache
FPh:__Z58RuntimeInvoker_Void_t1185182177_X509ChainStatus_t133602714PK10MethodInfoPvPS2_
R2i:__ZL24UnresolvedVirtualCall_92P12Il2CppObjectPK10MethodInfo
Hhj:_il2cpp_class_get_methods
IYa:__ZN14qsort_internal30FindAndMovePivotToLastPositionIP21ForwardRenderPassDataiN23ForwardShaderRenderLoop18RenderObjectSorterILb1EEEEEvT_S6_T0_T1_
r1c:_Single_CompareTo_m2785801815_AdjustorThunk
EIh:__Z133RuntimeInvoker_Void_t1185182177_Rect_t2360479859_Il2CppObject_Int32_t2950945753_Int32_t2950945753_Int32_t2950945753_SByte_t1669577662PK10MethodInfoPvPS2_
QHd:_Array_InternalArray__Insert_TisUILineInfo_t4195266810_m3191124053_gshared
E2b:__ZN10GameObject13ComponentPair15SetComponentPtrEPN5Unity9ComponentE
z4e:_Collection_1_IsValidItem_m2816532983_gshared
hYb:__Z13RegisterClassI10MeshFilterEvv
HC:__ZNK26AnimatorControllerPlayable24GetAnimatorClipInfoCountEib
vMf:__ZL137AnimatorControllerPlayable_t1397024487_CustomAttributesCacheGenerator_AnimatorControllerPlayable_INTERNAL_CALL_GetFloatString_m1055054346P21CustomAttributesCache
Zgb:__ZN10TagManager8TransferI19StreamedBinaryWriteILb0EEEEvRT_
xDb:__ZN11PreloadData23VirtualRedirectTransferER18StreamedBinaryReadILb0EE
mw:__Z17dynamic_pptr_castIP10MonoScript6ObjectET_RK4PPtrIT0_E
YWf:__ZL60FontData_t746620069_CustomAttributesCacheGenerator_m_MinSizeP21CustomAttributesCache
_ad:_Char_System_IConvertible_ToDateTime_m3564102661
sMd:_BaseInvokableCall_ThrowOnInvalidArg_TisBoolean_t97287965_m1128114209_gshared
Phd:_SyncHashtable_Clone_m3726939774
Trb:__ZN6Sprite17MainThreadCleanupEv
oZj:_glBlendFuncSeparate__wrapper
_zg:_TypeLoadException_GetObjectData_m2127700107
IK:__ZN10AudioMixer14UpdateMuteSoloEv
xPa:__Z17GetMonoManagerPtrv
gvj:__ZN6il2cpp2vm9Exception27RaiseNullReferenceExceptionEv
DQf:__ZL87GUIUtility_t1868551600_CustomAttributesCacheGenerator_U3CguiIsExitingU3Ek__BackingFieldP21CustomAttributesCache
gea:__ZN9ShaderLab10SubProgram7CompileEv
pAf:__ZL64ThreadStaticAttribute_t3840787420_CustomAttributesCacheGeneratorP21CustomAttributesCache
tya:__ZN7ApiGLES16SetPatchVerticesEi
Cxi:_CharacterClass_Compile_m3296067317
FFj:__ZN6il2cpp2gc16GarbageCollector16InvokeFinalizersEv
wIa:__ZN10MemoryFileC2E18MemLabelIdentifierP14MemoryFileData14FilePermission
gad:_Byte_System_IConvertible_ToInt64_m285584218_AdjustorThunk
zTf:__ZL66U3CU3Ec__DisplayClass2b_t1852966899_CustomAttributesCacheGeneratorP21CustomAttributesCache
r6i:__ZN6il2cpp2vm5Class20FromGenericParameterEPK22Il2CppGenericParameter
GR:__ZN19CloudServiceHandler11FlushEventsEv
Y6:__ZN15GlobalCallbacksC2Ev
Sbb:__ZN11AssetBundle8TransferI14SafeBinaryReadEEvRT_
sti:_MethodCall_System_Runtime_Remoting_Messaging_IInternalMessage_set_Uri_m1919576807
Esc:__Z29Transfer_Blittable_ArrayFieldI8JSONReadxEvRT_R9ArrayInfoRK23StaticTransferFieldInfo
B1f:_Comparer_1_System_Collections_IComparer_Compare_m2016223770_gshared
E$f:__ZL57BaseMeshEffect_t2440176439_CustomAttributesCacheGeneratorP21CustomAttributesCache
Mxc:_UNITY_FT_New_Memory_Face
POe:_KeyValuePair_2__ctor_m727165395_AdjustorThunk
jWh:_Collection_1_System_Collections_IList_IndexOf_m3271188411_gshared
WD:__Z81AnimatorControllerPlayable_CUSTOM_INTERNAL_CALL_GetAnimatorTransitionInfoInternalR9HPlayablei
hMa:__ZZ23InitPlayerLoopCallbacksvEN43PostLateUpdatePlayerSendFrameCompletestruct7ForwardEv
Shf:__ZL52IComparable_t36111218_CustomAttributesCacheGeneratorP21CustomAttributesCache
The:_MonoIO_GetFileStat_m678141354
w$c:__Z15CastclassSealedP12Il2CppObjectP11Il2CppClass
FXb:__ZN15ApplicationInfo14GetSandboxTypeEv
hHb:__Z18Transfer_BlittableI17RemapPPtrTransferLb1EhEvRK29SerializationCommandArgumentsR31RuntimeSerializationCommandInfo
Trd:_Decimal_IsZero_m4250358244_AdjustorThunk
tle:_UnmanagedMemoryStream_get_CanRead_m3770815400
dGj:__ZNSt3__26vectorIjNS_9allocatorIjEEE26__swap_out_circular_bufferERNS_14__split_bufferIjRS2_EE
I1a:__ZN16ReflectionProbes40UpdateRealtimeReflectionProbesTimeslicedEv
JBj:__ZNSt3__26__treeINS_12__value_typeIP24Il2CppReflectionAssemblyPvEENS_19__map_value_compareIS3_S5_NS_4lessIS3_EELb1EEENS_9allocatorIS5_EEE16__insert_node_atEPNS_16__tree_node_baseIS4_EERSF_SF_
Ejd:_Decimal_u64_m3374804932
X2f:_Enumerator_VerifyState_m3237140443_AdjustorThunk
A$b:__ZN16ReflectionProbes15InitializeClassEv
Eyc:_UNITY_FT_Destroy_Class_psnames_module_class
Tjf:__ZL71Enum_t4135868527_CustomAttributesCacheGenerator_Enum_Format_m2588135982P21CustomAttributesCache
lcj:__ZNK15dense_hashtableINSt3__24pairIK10KeyWrapperIPK11Il2CppClassEPKcEES6_N6il2cpp5utils11PointerHashIS3_EEN14dense_hash_mapIS6_S9_SE_NS6_14EqualsComparerINS0_8equal_toIS5_EEEENS0_9allocatorISA_EEE9SelectKeyESJ_SL_E12test_deletedEj
JAj:__ZN6il2cpp2vm5Image9GetCorlibEv
vzc:_ft_bitmap_glyph_bbox
cTg:_RectMask2D__ctor_m1497447338
cA:__ZN8Animator13BatchedFKPassERK13dynamic_arrayIP14PlayableOutputLj4EE
gqf:__ZL50Pointer_t2088917139_CustomAttributesCacheGeneratorP21CustomAttributesCache
kKj:_GC_reclaim_uninit
bRd:_ExecuteEvents_Execute_m113814934
kBe:_Kernel_AddSameSign_m3267067385
zei:_Component_GetComponentsInChildren_m2110248505
H1f:_Enumerator_System_Collections_IEnumerator_get_Current_m2979767597_AdjustorThunk
sVc:_MD5CryptoServiceProvider_ProcessFinalBlock_m2241588515
LVg:_ScrollRect_GetBounds_m449872505
Hj:_glIsVertexArray
ave:_SmallXmlParser_Read_m3485223434
Dbe:_Int16_Parse_m2276856944
UNd:_Array_InternalArray__get_Item_TisRaycastHit2D_t2279581989_m2440275162_gshared
eF:__Z100Register_UnityEngine_Experimental_Director_AnimatorControllerPlayable_INTERNAL_CALL_SetIntegerStringv
Azb:__ZNSt3__26vectorIN4core12basic_stringIcNS1_20StringStorageDefaultIcEEEE13stl_allocatorIS5_L18MemLabelIdentifier12ELi16EEEC2INS_11__wrap_iterIPS5_EEEET_SE_RKS8_PNS_9enable_ifIXaasr21__is_forward_iteratorISE_EE5valuesr16is_constructibleIS5_NS_15iterator_traitsISE_E9referenceEEE5valueEvE4typeE
vIa:__ZN25SingleBlockMemoryFileDataC2E18MemLabelIdentifierPvjb
gbb:__ZN5Unity9Component8TransferI18StreamedBinaryReadILb0EEEEvRT_
Kpf:__ZL131CustomAttributeData_t1084486650_CustomAttributesCacheGenerator_CustomAttributeData_t1084486650____ConstructorArguments_PropertyInfoP21CustomAttributesCache
ea:invoke_fff
sch:_SceneManager_Internal_ActiveSceneChanged_m1220784726
YXj:b14
OIh:__Z39RuntimeInvoker_ImagePosition_t641749504PK10MethodInfoPvPS2_
ugf:_RepeatContext_get_Expression_m255006542
FJc:__ZN2UI6Canvas17MainThreadCleanupEv
j8i:__ZN13Il2CppHashMapIPK19Il2CppGenericMethodPK26Il2CppGenericMethodIndicesN6il2cpp8metadata23Il2CppGenericMethodHashENS7_26Il2CppGenericMethodCompareENSt3__29allocatorINSA_4pairIK10KeyWrapperIS2_ES5_EEEEEC2EjRKS8_RKS9_
v7i:__ZN6il2cpp2vm5Class12GetNumFieldsEPK11Il2CppClass
WXj:b12
iMg:_TypeBuilder_HasElementTypeImpl_m1871001960
w0c:_SecurityFrame__ctor_m2140076703_AdjustorThunk
$fg:_DefaultComparer_Equals_m2458578172_gshared
lFa:__ZN7ApiGLES13CreateProgramEv
Tib:__ZN11HaloManager7AddHaloEv
b3f:_Enumerator_VerifyState_m4003066746_gshared
Dza:__ZN4crnd12crn_unpackerD2Ev
Tj:_emscripten_glTexImage2D
YGc:_tt_driver_class_pic_init
OY:__ZN18ScriptingArguments9AddStringEPKc
Hhh:_InternalEnumerator_1_System_Collections_IEnumerator_get_Current_m2742943179_gshared
$bd:_Char_ToString_m3588025615
AAd:_SetPropertyUtility_SetStruct_TisAspectMode_t3417192999_m1565063249_gshared
zmh:_InternalEnumerator_1_System_Collections_IEnumerator_get_Current_m1911422882_AdjustorThunk
MUj:runPostSets
Psf:__ZL53IEnvoyInfo_t2180778907_CustomAttributesCacheGeneratorP21CustomAttributesCache
Yte:_CryptoConvert_ToCapiKeyBlob_m3371450375
Fna:__ZL23stbir__resize_arbitraryPvPKviiiS_iiiffffPfiij14stbir_datatype12stbir_filterS4_10stbir_edgeS5_16stbir_colorspace
ZIb:__Z18Transfer_BlittableI24GenerateTypeTreeTransferLb1E8Vector4fEvRK29SerializationCommandArgumentsR31RuntimeSerializationCommandInfo
m3i:__ZL25UnresolvedVirtualCall_115P12Il2CppObjecttaaPK10MethodInfo
ck:_pthread_detach
tej:__ZN6il2cpp2vm19SocketPollingThread7RunLoopEv
t_d:_FontUpdateTracker_UntrackText_m1981515690
GZe:_List_1_System_Collections_ICollection_get_SyncRoot_m1937857346_gshared
SPh:__Z72RuntimeInvoker_Void_t1185182177_Int32_t2950945753_TableRange_t3332867892PK10MethodInfoPvPS2_
Bec:__ZN15DirectorManager20ScheduleGraphDestroyERK14HPlayableGraph
oqa:__ZNSt3__213__stable_sortIRN10vector_mapI17ScriptingClassPtrPKN5Unity4TypeENS_4lessIS2_EENS_9allocatorINS_4pairIS2_S6_EEEEE13value_compareENS_11__wrap_iterIPSB_EEEEvT0_SJ_T_NS_15iterator_traitsISJ_E15difference_typeEPNSM_10value_typeEi
Cqe:_SimpleCollator_FillSurrogateSortKeyRaw_m725998232
M_e:_List_1_AddEnumerable_m1284696147_gshared
E9e:_IPAddress_Equals_m1823478787
qri:_Context_CreateNewContext_m3053563976
wTb:__ZN9ShaderLab25SerializedTextureProperty8TransferI24GenerateTypeTreeTransferEEvRT_
g5g:_DefaultValueAttribute__ctor_m150507638
Vcb:__ZN15dense_hashtableINSt3__24pairIKN4core12basic_stringIcNS2_20StringStorageDefaultIcEEEEP11AssetBundleEES6_20StringHash32FunctionIS6_EN14dense_hash_mapIS6_S9_SC_NS0_8equal_toIS6_EENS0_9allocatorISA_EEE9SelectKeyESF_SH_E12resize_deltaEjj
wLd:_Array_swap_TisVector2_t2156229523_TisVector2_t2156229523_m345092822_gshared
g5e:_Collection_1_get_Item_m1773274637_gshared
qpj:__ZN6il2cpp2gc19AppendOnlyGCHashMapINSt3__24pairIPK14Il2CppAssemblyP11Il2CppClassEEP24Il2CppReflectionAssembly17ReflectionMapHashIS9_ENS2_8equal_toIS9_EEEC2Ev
mCc:_tt_cmap14_char_next
hva:__ZN13GfxDeviceGLES28GetNativeVertexBufferPointerEP9GfxBuffer
dig:__ZN21InterfaceFuncInvoker0IP21MethodBase_t609368412E6InvokeEjP11Il2CppClassP12Il2CppObject
rca:__ZN11NamedObject8TransferI18StreamedBinaryReadILb0EEEEvRT_
iEa:__ZNK17GPUSkinPoseBuffer12GetBoneCountEv
QQf:__ZL93GUIUtility_t1868551600_CustomAttributesCacheGenerator_GUIUtility_Internal_ExitGUI_m1320927180P21CustomAttributesCache
plc:__Z32GUIStyle_Get_Custom_PropFontSizeP12Il2CppObject
Pgd:_Hashtable_Clear_m3112193608
Bug:_UTF8Encoding_InternalGetByteCount_m771565606
Lxj:__ZNK15dense_hashtableINSt3__24pairIK10KeyWrapperIP14Il2CppIUnknownEjEES5_N6il2cpp5utils11PointerHashIS3_EEN14dense_hash_mapIS5_jSB_NS5_14EqualsComparerINS0_8equal_toIS4_EEEENS0_9allocatorIS7_EEE9SelectKeyESG_SI_E12test_deletedEj
qrc:__Z18Transfer_BlittableI8JSONReadLb1EyEvRK29SerializationCommandArgumentsR31RuntimeSerializationCommandInfo
eKb:__Z29Transfer_Blittable_ArrayFieldI24GenerateTypeTreeTransfer8Vector2fEvRT_R9ArrayInfoRK23StaticTransferFieldInfo
DGf:__ZL51GUILayer_t2783472903_CustomAttributesCacheGeneratorP21CustomAttributesCache
wmf:__ZL56IDictionary_2_t3177279192_CustomAttributesCacheGeneratorP21CustomAttributesCache
GBd:_Array_InternalArray__IEnumerable_GetEnumerator_TisUInt64_t4134040092_m1382862496_gshared
zk:_emscripten_glMatrixMode
dSg:_MaskableGraphic_UnityEngine_UI_IClippable_get_gameObject_m1739855597
_8d:_NumberFormatInfo_get_RawPercentGroupSizes_m97703232
xr:__ZN8Animator23VirtualRedirectTransferER18StreamedBinaryReadILb0EE
qae:_Guid__ctor_m3562600567_AdjustorThunk
yFi:_Texture2D_INTERNAL_CALL_GetPixelBilinear_m3709190890
_O:__ZN11UnityEngine15CloudWebService14DataDispatcher16PrepareDataBlockERNS0_16SessionContainerE
CFa:__ZN18GfxFramebufferGLES5ClearE13GfxClearFlagsRK10ColorRGBAffib
xMh:__Z72RuntimeInvoker_Boolean_t97287965_Int32_t2950945753_ObjectU26_t2146539884PK10MethodInfoPvPS2_
Umg:_ObjectManager_DoFixups_m3038765937
UOb:__ZL26Transfer_SimpleNativeClassI18StreamedBinaryReadILb0EE10RectOffsetLb0EEvRK29SerializationCommandArgumentsR31RuntimeSerializationCommandInfo
Byc:_UNITY_ft_destroy_default_module_classes
aUa:__ZL12DepthPassJobPN21GfxDeviceAsyncCommand10ArgScratchEPKNS_3ArgE
$Rb:__ZNSt3__26vectorIN9ShaderLab20SerializedSubProgram16TextureParameterENS_9allocatorIS3_EEE6assignINS_11__wrap_iterIPS3_EEEENS_9enable_ifIXaasr21__is_forward_iteratorIT_EE5valuesr16is_constructibleIS3_NS_15iterator_traitsISC_E9referenceEEE5valueEvE4typeESC_SC_
u6f:_Transform_1_EndInvoke_m1701794896_gshared
$ji:_AnimatorControllerPlayable_GetNextAnimatorStateInfo_m3280084990
cwg:_Thread_SetCachedCurrentUICulture_m1729523031
rNc:__Z55Register_UnityEngine_CanvasGroup_get_ignoreParentGroupsv
G4d:_InputField_get_minHeight_m2822964544
IYb:__Z13RegisterClassI19LowerResBlitTextureEvv
sGe:_ClientContext_set_ClientHelloProtocol_m4189379912
Cm:FUNCTION_TABLE_iiiiiiiiiiii
uib:__ZN16GraphicsSettingsD0Ev
F7a:__Z29StdTemplateConversionFunctionIshEbPvR14SafeBinaryRead
BBh:__Z74RuntimeInvoker_Int32_t2950945753_DateTime_t3738529785_DateTime_t3738529785PK10MethodInfoPvPS2_
i0a:__ZN15LODGroupManager21CalculateLODDataArrayERK13LODParametersPK6Cameraf
n:cttz_i8
REc:_UNITY_FT_GlyphLoader_Add
AIf:__ZL102DataUtility_t2196215967_CustomAttributesCacheGenerator_DataUtility_INTERNAL_CALL_GetInnerUV_m254329766P21CustomAttributesCache
NOh:__Z73RuntimeInvoker_Int32_t2950945753_CustomAttributeTypedArgument_t2723150157PK10MethodInfoPvPS2_
egi:_DisplaysUpdatedDelegate__ctor_m274078413
Hqf:__ZL62ActivationArguments_t4219999170_CustomAttributesCacheGeneratorP21CustomAttributesCache
Dzb:__ZN15SerializeTraitsINSt3__26vectorIN30RuntimeInitializeOnLoadManager9ClassInfoE13stl_allocatorIS3_L18MemLabelIdentifier12ELi16EEEEE8TransferI24GenerateTypeTreeTransferEEvRS7_RT_
gOh:__Z85RuntimeInvoker_Int32_t2950945753_Vector3_t3722313464_Vector3_t3722313464_Il2CppObjectPK10MethodInfoPvPS2_
Bnd:_Convert_ToUInt16_m867476252
vl:_emscripten_glViewport
kHj:__ZN6il2cpp6icalls8mscorlib6System15MonoCustomAttrs17IsDefinedInternalEP12Il2CppObjectP20Il2CppReflectionType
IRa:__ZN4Mesh21UnswizzleVertexColorsEb
lQe:_Enumerator__ctor_m40451936_AdjustorThunk
CDi:_SkeletonBone_t4134054672_marshal_pinvoke_back
d8:__ZN30dense_hashtable_const_iteratorINSt3__24pairIKN4core12basic_stringIcNS2_20StringStorageDefaultIcEEEEP11AssetBundleEES6_20StringHash32FunctionIS6_EN14dense_hash_mapIS6_S9_SC_NS0_8equal_toIS6_EENS0_9allocatorISA_EEE9SelectKeyESF_SH_EppEv
iGg:_CustomAttributeData_get_Constructor_m489601093
J3i:__ZL25UnresolvedVirtualCall_138P12Il2CppObjectiPK10MethodInfo
VGc:_cff_parse_font_bbox
Lpe:_MSCompatUnicodeTable_Category_m1834196420
f9b:__Z35Application_Get_Custom_PropIsEditorv
bB:__GLOBAL__sub_I_runtime_animation2_lump_cpp
Axb:__ZN14PlayerSettings23VirtualRedirectTransferER18StreamedBinaryReadILb0EE
OSe:_List_1_get_Item_m2690960270_gshared
Tlg:_BinaryFormatter_get_SurrogateSelector_m2111882017
IPj:__ZN6il2cpp2os5Event5ResetEv
HZa:__Z26CombineDepthNormalsTextureRK17RenderLoopContextR13dynamic_arrayI16RenderObjectDataLj4EE
$Zg:_ToggleGroup__ctor_m3308114662
Myj:__ZN6il2cpp8metadata15GenericMetadata17InflateParametersEPK13ParameterInfohPK20Il2CppGenericContextb
h0:__ZN18AwakeFromLoadQueue28InvokePersistentManagerAwakeEPNS_4ItemEj17AwakeFromLoadMode
NKd:_Array_Sort_TisUILineInfo_t4195266810_m3737783007_gshared
xu:__ZNK17AnimationPlayable27GetNextCompatibleDescendantEi
iAf:__ZL59ResolveEventArgs_t1779456501_CustomAttributesCacheGeneratorP21CustomAttributesCache
Xr:__ZN8Animator20ProcessAnimationsJobEPNS_11AnimatorJobEj
Svb:__ZN4PPtrI6SpriteE8TransferI18StreamedBinaryReadILb0EEEEvRT_
U8c:_Convert_ToInt16_m3324557887
ANe:_TlsStream_Write_m188217214
R9h:_AnimatorControllerParameter_GetHashCode_m2306059248
eJf:__ZL84Object_t631007953_CustomAttributesCacheGenerator_Object_DestroyImmediate_m1556866283P21CustomAttributesCache
$8:__Z25SetNeedToPerformRenderingb
vBi:_X509Certificate_set_DSA_m1073880156
aUj:__ZN10__cxxabiv116__shim_type_infoD2Ev
ywi:_Alternation__ctor_m1629257642
eCg:_UInt64_System_IConvertible_ToInt32_m949522652_AdjustorThunk
VXa:__ZNSt3__227__insertion_sort_incompleteIR23CompareReflectionProbesP31RuntimeReflectionProbeBlendInfoEEbT0_S5_T_
pUa:__ZN14qsort_internal30FindAndMovePivotToLastPositionIP15RODataDepthPassi17ROSorterDepthPassEEvT_S4_T0_T1_
cme:_MethodAccessException__ctor_m3411913042
F1i:__ZL24UnresolvedVirtualCall_26P12Il2CppObjectS0_iiPK10MethodInfo
lYi:_EqualityComparer_1__ctor_m1767308726_gshared
p0a:__ZN12CullingGroup10SendEventsEPK17CullingGroupEventj
p6a:__ZN13sorted_vectorINSt3__24pairIN4core12basic_stringIcNS2_20StringStorageDefaultIcEEEES6_EEN10vector_mapIS6_S6_27compare_tstring_insensitiveIS6_E13stl_allocatorIS7_L18MemLabelIdentifier37ELi16EEE13value_compareESD_E9erase_oneIS6_EEjRKT_
NKh:__Z52RuntimeInvoker_Void_t1185182177_Int32U26_t1369213839PK10MethodInfoPvPS2_
c9d:_NumberFormatInfo_get_PerMilleSymbol_m1360140831
uEe:_EncryptedData_get_EncryptionAlgorithm_m905084934
rBd:_Array_InternalArray__IEnumerable_GetEnumerator_TisCustomAttributeTypedArgument_t2723150157_m1333528454_gshared
ASd:_PointerInputModule__ctor_m3728889932
xqb:__ZThn32_NK8Renderer8GetLayerEv
EGh:__Z53RuntimeInvoker_Void_t1185182177_FrameData_t3985821396PK10MethodInfoPvPS2_
IQe:_Enumerator_System_Collections_IEnumerator_Reset_m2915500989_gshared
kni:_ResourceSet_System_Collections_IEnumerable_GetEnumerator_m2807499934
l0c:_SecurityException_GetObjectData_m1968030344
mBj:__ZN30dense_hashtable_const_iteratorINSt3__24pairIK10KeyWrapperINS1_IPKcS4_EEEiEES6_24NamespaceAndNamePairHashN14dense_hash_mapIS6_iS9_NS6_14EqualsComparerI26NamespaceAndNamePairEqualsEENS0_9allocatorIS8_EEE9SelectKeyESD_SF_E30advance_past_empty_and_deletedEv
Obe:_Int32_ValidDigit_m1059003769
s1j:_emscripten_glTexParameterfv__wrapper
BAf:__ZL54MemberFilter_t426314064_CustomAttributesCacheGeneratorP21CustomAttributesCache
k0d:_LayoutGroup_get_rectTransform_m442863741
nEf:__ZL86Behaviour_t1437897464_CustomAttributesCacheGenerator_Behaviour_set_enabled_m3107225489P21CustomAttributesCache
yij:_il2cpp_method_get_param_count
mXb:__ZN10systeminfo19ISOToSystemLanguageERN4core12basic_stringIcNS0_20StringStorageDefaultIcEEEE
joj:__ZNK15dense_hashtableINSt3__24pairIK10KeyWrapperINS1_IPK12PropertyInfoP11Il2CppClassEEEjEES9_17ReflectionMapHashIS8_EN14dense_hash_mapIS9_jSD_NS9_14EqualsComparerINS0_8equal_toIS8_EEEENS0_9allocatorISB_EEE9SelectKeyESI_SK_E3endEv
QMd:_LayoutGroup_SetProperty_TisAxis_t3613393006_m3591044743_gshared
iDg:_UnauthorizedAccessException__ctor_m40101894
Yaa:__ZNSt3__26vectorIP10MemoryPool13stl_allocatorIS2_L18MemLabelIdentifier72ELi16EEE21__push_back_slow_pathIKS2_EEvRT_
mzh:__Z49RuntimeInvoker_StreamingContextStates_t3580100459PK10MethodInfoPvPS2_
l4i:__ZL25UnresolvedVirtualCall_168P12Il2CppObject20UICharInfo_t75501106PK10MethodInfo
lDc:_ps_dimension_done
vJc:__Z46Register_UnityEngine_TextGenerator_Dispose_cppv
mud:_Double_Parse_m4153729520
mSi:_IndexedSet_1_AddUnique_m861843892_gshared
DBf:__ZL59HybridDictionary_t4070033136_CustomAttributesCacheGeneratorP21CustomAttributesCache
kpb:__ZN16LightmapSettings8TransferI14SafeBinaryReadEEvRT_
QAa:__ZN17BufferManagerGLES13ReleaseBufferEP14DataBufferGLES
ctd:_StackFrame__ctor_m343464319
Eke:_SynchronizedWriter_Write_m301917713
DCd:__ZN21InterfaceFuncInvoker1Ii22UILineInfo_t4195266810E6InvokeEjP11Il2CppClassP12Il2CppObjectS0_
orc:__Z18Transfer_BlittableI8JSONReadLb1EjEvRK29SerializationCommandArgumentsR31RuntimeSerializationCommandInfo
bzg:_Type_internal_from_handle_m3156085815
e7h:_ReadOnlyCollection_1_System_Collections_Generic_IListU3CTU3E_RemoveAt_m4037795630_gshared
rKi:_JsonData_set_Item_m1179907761
lYf:__ZL81U3CMouseDragOutsideRectU3Ec__Iterator1_t3909241878_CustomAttributesCacheGeneratorP21CustomAttributesCache
sVd:_U3COnFinishSubmitU3Ec__Iterator0_Reset_m3632769946
Qo:stackSave
kXd:_ColorTween_get_targetColor_m1724075482_AdjustorThunk
HDc:_ps_dimension_end
Bdc:__Z41Register_UnityEngine_Mesh_Internal_Createv
h9a:__ZN16MemoryFileSystem5TouchER13FileEntryData
Kyj:__ZNK15dense_hashtableI10KeyWrapperIP18Il2CppGenericClassES3_N6il2cpp8metadata22Il2CppGenericClassHashEN14dense_hash_setIS3_S6_NS3_14EqualsComparerINS5_25Il2CppGenericClassCompareEEENSt3__29allocatorIS3_EEE8IdentityESA_SD_E12test_deletedERK30dense_hashtable_const_iteratorIS3_S3_S6_SF_SA_SD_E
hRe:_Enumerator_Dispose_m2498245804_AdjustorThunk
ajd:_Console_Open_m3077673205
QOh:__Z56RuntimeInvoker_Int32_t2950945753_ILTokenInfo_t2325775114PK10MethodInfoPvPS2_
mCi:_X509StoreManager_get_CurrentUser_m4040993045
$rc:__ZN8JSONRead21TransferSTLStyleArrayI13dynamic_arrayIaLj1EEEEvRT_18MemLabelIdentifier17TransferMetaFlags
r2a:__ZN6Camera9SetAspectEf
FDd:_Array_InternalArray__IndexOf_TisDateTime_t3738529785_m2463359116_gshared
wa:invoke_viiffiii
jjh:_InternalEnumerator_1_MoveNext_m4138204635_gshared
K2j:_emscripten_glBindVertexArray__wrapper
uXe:_List_1_get_Capacity_m1678280693_gshared
kyi:_Parser_IsECMAScript_m674158805
rF:__ZN10ObjectPoolIN4FMOD3DSPENS0_4DSPIEE7GetFreeEi
m3a:__ZN9Transform37InitializeTransformHierarchyRecursiveER18TransformHierarchyRii
XZb:__Z34DefaultPrepareDispatchBoundsUpdateR13RendererScene18MemLabelIdentifier
YJd:_Array_Resize_TisVector2_t2156229523_m1564542050_gshared
dSj:_fscanf
aQa:__ZN17MeshRenderingData4InitEP4MeshS1_iP15SharedGfxBufferS3_
Fda:__ZN19ShaderPropertySheet38CopyTextureWithAuxiliaryPropertiesFromERKN9ShaderLab16FastPropertyNameERKS_
AYh:_Collection_1_Add_m3747592157_gshared
Yzj:__ZN6il2cpp2gc16GarbageCollector12RunFinalizerEPvS2_
VZd:_FontData_get_fontSize_m4142428560
Jgc:__Z57Register_UnityEngine_Transform_INTERNAL_set_localPositionv
uva:__ZN13GfxDeviceGLES26SetRandomWriteTargetBufferEi15ComputeBufferID
nGh:__Z66RuntimeInvoker_Void_t1185182177_Il2CppObject_Vector4U26_t200349727PK10MethodInfoPvPS2_
DKj:_GC_split_block
TJd:_Array_Resize_TisUICharInfo_t75501106_m3903846016_gshared
R3h:_ReadOnlyCollection_1_System_Collections_Generic_ICollectionU3CTU3E_get_IsReadOnly_m3887826072_gshared
u5f:_Transform_1_Invoke_m3467625964_gshared
FSj:_poll
T3h:_ReadOnlyCollection_1_System_Collections_IEnumerable_GetEnumerator_m1671097018_gshared
ECg:_UInt64_ToString_m1529093114_AdjustorThunk
CZf:__ZL85Selectable_t3250028441_CustomAttributesCacheGenerator_Selectable_IsPressed_m907486548P21CustomAttributesCache
Loi:_TypeLibImportClassAttribute__ctor_m2302178978
kre:_Escape_t3294788190_marshal_pinvoke
Scb:__ZN18AssetBundleManager19RegisterAssetBundleEP11AssetBundle
Ang:_SerializationException__ctor_m3131447373
s6b:__ZNK11ICallString6ToUTF8Ev
x6i:__ZN15dense_hashtableINSt3__24pairIK10KeyWrapperIPK22Il2CppGenericParameterEP11Il2CppClassEES6_N6il2cpp5utils11PointerHashIS4_EEN14dense_hash_mapIS6_S9_SE_NS6_14EqualsComparerINS0_8equal_toIS5_EEEENS0_9allocatorISA_EEE9SelectKeyESJ_SL_E15insert_noresizeERKSA_
_5f:_Transform_1_Invoke_m2468053724_gshared
Yxj:__ZN24dense_hashtable_iteratorINSt3__24pairIK10KeyWrapperIP14Il2CppIUnknownEjEES5_N6il2cpp5utils11PointerHashIS3_EEN14dense_hash_mapIS5_jSB_NS5_14EqualsComparerINS0_8equal_toIS4_EEEENS0_9allocatorIS7_EEE9SelectKeyESG_SI_E30advance_past_empty_and_deletedEv
qUa:__ZNSt3__211__sift_downIR17ROSorterDepthPassP15RODataDepthPassEEvT0_S5_T_NS_15iterator_traitsIS5_E15difference_typeES5_
Dfa:__ZN18UnityPropertySheet11UnityTexEnvC2Ev
r8b:__ZNSt3__214__split_bufferIPN9BlobWrite11TypeContextENS_9allocatorIS3_EEE10push_frontERKS3_
Zze:_ArgumentException__ctor_m3200406061
hs:__ZN8Animator17ApplyOnAnimatorIKEiRNS_11AnimatorJobE
o3:__ZN12FileAccessor4ReadEyyPvPy
dea:__ZN13dynamic_arrayI16ShaderKeywordSetLj4EE6insertEPS0_PKS0_S4_
_4c:_EncoderExceptionFallback__ctor_m3745979420
g0e:_List_1_set_Capacity_m2777925136_gshared
Wki:_AnimatorControllerPlayable_CrossFadeInternal_m2535906168
nYf:__ZL195U3CMouseDragOutsideRectU3Ec__Iterator1_t3909241878_CustomAttributesCacheGenerator_U3CMouseDragOutsideRectU3Ec__Iterator1_System_Collections_Generic_IEnumeratorU3CobjectU3E_get_Current_m3688496850P21CustomAttributesCache
mQ:__ZNKSt3__26__treeINS_12__value_typeIN4core12basic_stringIcNS2_20StringStorageDefaultIcEEEES6_EENS_19__map_value_compareIS6_S7_NS_4lessIS6_EELb1EEENS_9allocatorIS7_EEE4findIS6_EENS_21__tree_const_iteratorIS7_PNS_11__tree_nodeIS7_PvEEiEERKT_
S1a:__ZN13RenderTexture9SetHeightEi
$Fe:_CipherSuiteCollection_get_IsFixedSize_m3127823890
Olb:__ZN16LevelGameManager8TransferI24GenerateTypeTreeTransferEEvRT_
Joh:_InternalEnumerator_1_System_Collections_IEnumerator_get_Current_m3537550566_gshared
tcg:_Dictionary_2_OnDeserialization_m1254782141_gshared
Fyh:__Z75RuntimeInvoker_Il2CppObject_Il2CppObject_Il2CppObject_ObjectU26_t2146539884PK10MethodInfoPvPS2_
Lwj:__ZN6il2cpp6icalls8mscorlib6System2IO6MonoIO17GetFileAttributesEP12Il2CppStringPi
CUc:_HMACMD5__ctor_m3008609295
pkd:_DateTime__ParseAmPm_m3478436123
TBc:_tt_cmap8_char_index
iZ:__Z24scripting_class_get_name17ScriptingClassPtr
aje:_Stream_WriteByte_m1519852120
o_g:_VerticalLayoutGroup_CalculateLayoutInputHorizontal_m1404590745
l5:__ZN13RuntimeStaticI15GUIEventManagerLb0EE13StaticDestroyEPv
GCa:__ZN7ApiGLES14TextureSamplerEjj17TextureFilterMode15TextureWrapModeifb18ShadowSamplingModeN2gl17TextureSrgbDecodeE
gne:_ShortComparer_Compare_m1881262465
OFb:__Z29Transfer_Blittable_ArrayFieldI14SafeBinaryReadjEvRT_R9ArrayInfoRK23StaticTransferFieldInfo
hAb:__ZN23PreloadManagerOperationD0Ev
ee:_emscripten_set_keydown_callback
n5c:_EncoderReplacementFallback__ctor_m1483565116
ygf:_Interpreter_IsWordChar_m2858055765
Mgd:_Hashtable_CopyTo_m2905447224
w3:__ZN12FileAccessorC2Ev
l4a:__ZN9Transform35SetLocalPositionWithoutNotificationERKN4math7_float3E
jYi:_EqualityComparer_1_System_Collections_IEqualityComparer_Equals_m3855544238_gshared
hSi:_EventFunction_1_Invoke_m2429482587_gshared
fej:_Mesh_GetAllocArrayFromChannel_TisIl2CppObject_m2282921712_gshared
ebf:_AsnEncodedData_SubjectAltName_m4049949414
n_g:_VerticalLayoutGroup__ctor_m321345421
_A:__ZN4PPtrI13MonoBehaviourE8TransferI18StreamedBinaryReadILb0EEEEvRT_
BXg:_Slider_UpdateVisuals_m3662961057
zPf:__ZL77GUIStyle_t3956901511_CustomAttributesCacheGenerator_GUIStyle_Init_m1266520473P21CustomAttributesCache
jIg:_DerivedType_get_FullName_m1025358827
Nqh:__Z32RuntimeInvoker_Int32_t2950945753PK10MethodInfoPvPS2_
s9d:_RegionInfo_get_ISOCurrencySymbol_m441808484
TXf:__ZL70InputField_t3762917431_CustomAttributesCacheGenerator_m_OnValueChangedP21CustomAttributesCache
fDb:__Z39WriteQueueForTransferSignatureIntoCacheRK31TransferFunctionScriptingTraitsRK24TransferRequestSignature17ScriptingClassPtrR23CachedSerializationDataRb
bma:__ZN13RenderManager18UpdateAllRenderersEv
rsg:_Encoding_get_UTF8UnmarkedUnsafe_m320312322
lwg:_Thread_Thread_free_internal_m333849022
Pfh:_InternalEnumerator_1_System_Collections_IEnumerator_get_Current_m3575233890_gshared
Bhf:_CostDelegate_BeginInvoke_m2828452701
gPc:__ZN22BaseUnityConnectClient30OnEnteringStatePausedOrStoppedEv
zbj:__ZN13dynamic_arrayIPK10Il2CppTypeLj4EE6assignEPKS2_S5_
gYh:_Collection_1_ConvertItem_m1556170494_gshared
wx:__ZN7mecanim5human12HumanPoseAddERNS0_9HumanPoseERKS1_S4_
Fkd:_DateTime_ToUniversalTime_m1945318289
mGi:_Transform_INTERNAL_get_rotation_m3154993025
Xcd:_ArrayList_ToArray_m3827492363
TXg:_Slider_get_stepSize_m1423227661
pah:_Rect_get_width_m3421965717_AdjustorThunk
zCg:_UInt64_Parse_m819899889
bZc:_SymmetricAlgorithm_set_IV_m3196220308
BKg:_GenericTypeParameterBuilder_GetHashCode_m852224381
Pnd:_Convert_ToUInt32_m1453583008
Rwd:_CompareInfo_Compare_m894311506
g4a:__Z24MergeTransformComponentsR9TransformS0_b
oPd:_EventSystem_UpdateModules_m3643806022
CFj:__ZN6il2cpp2gc16GarbageCollector10StartWorldEv
NSh:__Z81RuntimeInvoker_ObjectMetadata_t3566284522_Il2CppObject_ObjectMetadata_t3566284522PK10MethodInfoPvPS2_
V9g:_RaycastHit2D_get_point_m3958944977_AdjustorThunk
__c:_Evidence_get_SyncRoot_m2835084965
zAd:_SetPropertyUtility_SetStruct_TisTouchScreenKeyboardType_t1530597702_m2455393348_gshared
Zeg:_DefaultComparer__ctor_m2280347240_gshared
quf:__ZL59ICryptoTransform_t2733259762_CustomAttributesCacheGeneratorP21CustomAttributesCache
Ujf:__ZL42Il2CppArray_CustomAttributesCacheGeneratorP21CustomAttributesCache
mHj:__ZN6il2cpp2vm13ComObjectBase19GetRuntimeClassNameEPP15Il2CppHString__
qjd:_Convert_ToBoolean_m2833489984
Fj:_emscripten_glVertexAttribPointer
jka:__ZN14PreloadManager26UpdatePreloadingSingleStepENS_21UpdatePreloadingFlagsEi
OSi:_TweenRunner_1__ctor_m340723704_gshared
yWg:_ScrollRect_SetLayoutHorizontal_m3078869633
hfj:__ZN6il2cpp2vm10ThreadPool4WaitEP17Il2CppAsyncResultPPv
Vci:_Canvas_get_rootCanvas_m753521845
rlb:__ZN26ProbeSetTetrahedralization8TransferI24GenerateTypeTreeTransferEEvRT_
yRf:__ZL99SetupCoroutine_t2062820429_CustomAttributesCacheGenerator_SetupCoroutine_InvokeMoveNext_m3444040730P21CustomAttributesCache
$pe:_SimpleCollator__ctor_m1587210019
jOi:_Predicate_1_EndInvoke_m185271791_gshared
Vec:__Z57Register_UnityEngine_RectTransform_INTERNAL_set_anchorMinv
Knd:_Convert_ToUInt16_m1480956416
Hha:__ZN6prcoreL25inner_stretch_i8_bilinearEPKNS_9InnerInfoE
wQ:__ZN11UnityEngine15CloudWebService13WWWRestClient17GetResponseStatusEv
C6h:_ReadOnlyCollection_1_System_Collections_Generic_IListU3CTU3E_RemoveAt_m3317217538_gshared
srh:__Z140RuntimeInvoker_Boolean_t97287965_Il2CppObject_Int32_t2950945753_Il2CppObject_SByte_t1669577662_Int32U26_t1369213839_ExceptionU26_t3600731591PK10MethodInfoPvPS2_
uP:__ZN11UnityEngine15CloudWebService16SessionContainer24GetSessionHeaderJsonDataERKN4core12basic_stringIcNS2_20StringStorageDefaultIcEEEERNS2_13StringBuilderE
TLh:__Z116RuntimeInvoker_RaycastHit2D_t2279581989_Vector2_t2156229523_Vector2_t2156229523_Single_t1397266774_Int32_t2950945753PK10MethodInfoPvPS2_
OHg:_DerivedType_GetEvent_m4157575360
_4:__ZN13RuntimeStaticI21AssetReferenceStorageLb0EE13StaticDestroyEPv
vrf:__ZL56_MethodBuilder_t600455149_CustomAttributesCacheGeneratorP21CustomAttributesCache
Ofd:_Comparer__ctor_m2831654082
jId:_Array_InternalArray__set_Item_TisKeyValuePair_2_t2530217319_m258011711_gshared
QKi:_JsonData_System_Collections_Specialized_IOrderedDictionary_GetEnumerator_m2093370556
BDj:__ZN6il2cpp6icalls8mscorlib6System9AppDomain22InternalGetProcessGuidEP12Il2CppString
CEc:_cf2_builder_moveTo
WUj:_i64Add
Oyf:__ZL79Convert_t2465617642_CustomAttributesCacheGenerator_Convert_ToUInt32_m3188121845P21CustomAttributesCache
uSe:_List_1_Find_m2881763671_gshared
Bwg:_ThreadStart_EndInvoke_m3768045394
ogj:__ZNSt3__214__split_bufferIP9FieldInfoRNS_9allocatorIS2_EEEC2EjjS5_
Sng:_StreamingContext__ctor_m2604757771_AdjustorThunk
rJb:__Z18Transfer_BlittableI24GenerateTypeTreeTransferLb1EjEvRK29SerializationCommandArgumentsR31RuntimeSerializationCommandInfo
zVi:_U3CU3Ec__DisplayClass3d__ctor_m1987604568
Hnj:__ZNK15dense_hashtableINSt3__24pairIK10KeyWrapperINS1_IPK11Il2CppImageP11Il2CppClassEEEjEES9_17ReflectionMapHashIS8_EN14dense_hash_mapIS9_jSD_NS9_14EqualsComparerINS0_8equal_toIS8_EEEENS0_9allocatorISB_EEE9SelectKeyESI_SK_E10test_emptyERK30dense_hashtable_const_iteratorISB_S9_SD_SM_SI_SK_E
v6i:__ZN6il2cpp2os12FastAutoLockD2Ev
npf:__ZL68AssemblyCopyrightAttribute_t836190902_CustomAttributesCacheGeneratorP21CustomAttributesCache
Gjb:__ZN11ColorRGBA328TransferI14SafeBinaryReadEEvRT_
p6e:_Collection_1_Add_m1736908447_gshared
XAb:__ZN24RingBufferMemoryFileData4LockEPPv
thh:_InternalEnumerator_1_get_Current_m3008260692_AdjustorThunk
gVc:_MACTripleDES_HashFinal_m3613553534
VBg:_UInt64_System_IConvertible_ToChar_m2074245892
Fug:_UTF8Encoding_InternalGetBytes_m1965760031
If:_emscripten_glClearDepth
Fmb:__ZN8Playable12SetPlayStateE9PlayState
vrb:__ZN14SafeBinaryRead21TransferSTLStyleArrayINSt3__26vectorIN15QualitySettings14QualitySettingENS1_9allocatorIS4_EEEEEEvRT_17TransferMetaFlags
gLe:_RSASslSignatureDeformatter_VerifySignature_m1061897602
mxa:__ZN7ApiGLES13CreateTextureEjN2gl9TexFormatEiiiii
pQi:_UnityAction_1__ctor_m3007623985_gshared
lxb:__ZNSt3__26vectorINS_4pairIPKN5Unity4TypeE7Hash128EENS_9allocatorIS7_EEE8__appendEj
FCh:__Z146RuntimeInvoker_Il2CppObject_Il2CppObject_Int32_t2950945753_Int32_t2950945753_Il2CppObject_SByte_t1669577662_Il2CppObject_Il2CppObject_Il2CppObjectPK10MethodInfoPvPS2_
lsj:__ZN15dense_hashtableINSt3__24pairIK10KeyWrapperIP11Il2CppClassES4_EES5_N6il2cpp8metadata16SZArrayClassHashEN14dense_hash_mapIS5_S4_SA_NS5_14EqualsComparerINS9_19SZArrayClassCompareEEENS0_9allocatorIS7_EEE9SelectKeyESE_SG_EC2ERKSJ_j
fGc:_cff_font_load
cMh:__Z76RuntimeInvoker_Void_t1185182177_ObjectU5BU5DU26_t712384779_Int32_t2950945753PK10MethodInfoPvPS2_
Y8b:__Z13IsPathCreatedRKN4core12basic_stringIcNS_20StringStorageDefaultIcEEEE
FWf:__ZL99Dropdown_t2274391225_CustomAttributesCacheGenerator_Dropdown_DelayedDestroyDropdownList_m2082128994P21CustomAttributesCache
hJh:__Z97RuntimeInvoker_Void_t1185182177_IntPtr_t_Il2CppObject_SingleU26_t1922108698_SingleU26_t1922108698PK10MethodInfoPvPS2_
Lna:__ZL22stbir__encode_scanlineP11stbir__infoiPvPfiii
Rni:_ExternalException__ctor_m2877839282
tuc:__ZN20QuadTreeNodeRenderer13StaticDestroyEPv
wwi:_Regex_Matches_m2080913806
JZb:__ZN9Transform12CleanupClassEv
U2h:_ReadOnlyCollection_1_System_Collections_IList_RemoveAt_m3927477748_gshared
iMj:__ZN6il2cpp6icalls8mscorlib6System9Threading16NativeEventCalls19CloseEvent_internalE12Il2CppIntPtr
tt:__ZN11UnityEngine9Animation33SetGenericTransformPropertyValuesERKNS0_30AnimatorGenericBindingConstantERKN7mecanim10ValueArrayEP9Transformb
UWf:__ZL57FontData_t746620069_CustomAttributesCacheGenerator_m_FontP21CustomAttributesCache
Qxc:_UNITY_FT_Set_Pixel_Sizes
kEg:_OperatingSystem_Clone_m1122165140
NSb:__ZNSt3__26vectorIN9ShaderLab19SerializedSubShaderENS_9allocatorIS2_EEE26__swap_out_circular_bufferERNS_14__split_bufferIS2_RS4_EE
txf:__ZL59AttributeTargets_t1784037988_CustomAttributesCacheGeneratorP21CustomAttributesCache
cFh:__Z48RuntimeInvoker_OperatingSystemFamily_t1868066375PK10MethodInfoPvPS2_
ptj:__ZN6il2cpp2vmL24thread_cleanup_on_cancelEPv
uuh:__Z81RuntimeInvoker_Il2CppObject_Int32_t2950945753_Int32_t2950945753_Int32_t2950945753PK10MethodInfoPvPS2_
kYe:_List_1_RemoveAll_m3165362277_gshared
D0f:__ZL79Panel_MainScene_t1057628098_CustomAttributesCacheGenerator_U3CU3Ef__amU24cache2P21CustomAttributesCache
Wyg:_Type_type_is_subtype_of_m1406623598
Bfb:_LZ4_compress_generic
nsb:__ZN13dynamic_arrayI7SubMeshLj4EE18resize_initializedEjRKS0_12ResizePolicy
sSh:__Z46RuntimeInvoker_Int32_t2950945753_Guid_t_Guid_tPK10MethodInfoPvPS2_
evg:_Thread_get_CurrentThread_m4142136012
Tjb:__Z30ProcessDynamicBatchGeometryJobP25DynamicVBOGeometryJobDataj
syh:__Z40RuntimeInvoker_Void_t1185182177_IntPtr_tPK10MethodInfoPvPS2_
_Ua:__ZNSt3__27__sort4IRNS_6__lessI11CulledLightS2_EEPS2_EEjT0_S6_S6_S6_T_
sAh:__Z49RuntimeInvoker_Char_t3634460470_Int64_t3736567304PK10MethodInfoPvPS2_
ujj:__ZN6il2cpp2vm14TypeNameParser26ParseArrayModifierOptionalEv
zY:__Z26scripting_object_get_class18ScriptingObjectPtr
Guj:__ZN6il2cpp6icalls8mscorlib6System10Reflection8Assembly13get_code_baseEP24Il2CppReflectionAssemblyb
F2g:_GUIStyle_get_Internal_clipOffset_m4000119723
jrg:_DSASignatureDeformatter__ctor_m2889130126
mef:_X509ChainElementCollection_Clear_m2271223414
lZb:__ZNK28MonoBehaviourPropertyBinding15GenerateBindingERKN4core12basic_stringIcNS0_20StringStorageDefaultIcEEEEbRN11UnityEngine9Animation14GenericBindingE
g1e:_List_1_set_Item_m35836043_gshared
_Jh:__Z78RuntimeInvoker_MoveDirection_t1216237838_Single_t1397266774_Single_t1397266774PK10MethodInfoPvPS2_
kZf:__ZL70ScrollRect_t4137855814_CustomAttributesCacheGenerator_m_OnValueChangedP21CustomAttributesCache
yKh:__Z90RuntimeInvoker_Void_t1185182177_Il2CppObject_Il2CppObject_Vector2_t2156229523_Il2CppObjectPK10MethodInfoPvPS2_
def:_X509ChainElementCollection__ctor_m3424079155
Cti:_LinkStack_Push_m3081279930
vJf:__ZL79Object_t631007953_CustomAttributesCacheGenerator_Object_Instantiate_m2891014423P21CustomAttributesCache
k4f:_Enumerator_MoveNext_m1107569389_gshared
pgj:__ZNSt3__26vectorIP9FieldInfoNS_9allocatorIS2_EEE26__swap_out_circular_bufferERNS_14__split_bufferIS2_RS4_EE
KFj:__ZN6il2cpp6icalls8mscorlib6System11Environment15internalGetHomeEv
Ckh:_InternalEnumerator_1__ctor_m4200721464_gshared
Wmi:_ResourceCacheItem_t51292791_marshal_pinvoke_cleanup
Wab:__ZNK5Unity9Component7GetNameEv
Tgj:__ZNSt3__214__split_bufferIN6il2cpp6icalls8mscorlib6System12PropertyPairERNS_9allocatorIS5_EEEC2EjjS8_
ly:__ZN34AnimationStateMachineMixerPlayable7GetTypeEv
EVc:_SymmetricAlgorithm_get_KeySize_m4185004893
jWe:_List_1_GetEnumerator_m232588170_gshared
T5d:_U3CDelayedSetDirtyU3Ec__Iterator0_Reset_m160466733
lRi:_UnityEvent_1_RemoveListener_m389670056_gshared
dli:_AnimatorControllerPlayable_PlayInFixedTime_m1929698819
x$e:_List_1_System_Collections_IList_Remove_m1070694895_gshared
L5a:__ZN13ScreenManagerD0Ev
aPa:_UNITY_png_set_error_fn
et:__ZN7mecanim8skeleton26SkeletonPoseComputeGlobalQEPKNS0_8SkeletonEPKNS0_13SkeletonPoseTIN4math4trsXEEEPS7_ii
UBg:_UInt64_System_IConvertible_ToByte_m1501504925_AdjustorThunk
_sc:__ZN8JSONRead21TransferSTLStyleArrayI13dynamic_arrayIfLj4EEEEvRT_18MemLabelIdentifier17TransferMetaFlags
fJe:_TlsClientHello_ProcessAsTls1_m2549285167
W1g:_GUIStyle_t3956901511_marshal_pinvoke
x4h:_ReadOnlyCollection_1_System_Collections_IList_Clear_m3591436538_gshared
fVg:_ScrollRect_set_decelerationRate_m723367336
Fs:__ZN9BlobWrite8TransferI22OffsetPtrArrayTransferIiEEEvRT_PKc17TransferMetaFlags
c5c:_EncoderExceptionFallback_Equals_m2760188920
XHb:__Z18Transfer_BlittableI17RemapPPtrTransferLb1EjEvRK29SerializationCommandArgumentsR31RuntimeSerializationCommandInfo
IVc:_RC2CryptoServiceProvider_get_EffectiveKeySize_m3835262416
sDf:__ZL143U3CU3Ec__CompilerGenerated1_t1117331131_CustomAttributesCacheGenerator_U3CU3Ec__CompilerGenerated1_U3CRegisterBaseImportersU3Ec__19_m2343454877P21CustomAttributesCache
QJ:__ZN4FMOD6System7releaseEv
SKb:__Z18Transfer_BlittableI19StreamedBinaryWriteILb0EELb1E8BitFieldEvRK29SerializationCommandArgumentsR31RuntimeSerializationCommandInfo
p9c:_Boolean_CompareTo_m3665076258
m2c:_String_Split_m3580120853
Yve:_PrivateKeyInfo__ctor_m2811023496
_2:__Z18PathToAbsolutePathRKN4core12basic_stringIcNS_20StringStorageDefaultIcEEEE
xAe:_BigInteger_SetBit_m1723423691
Fxg:_TimeSpan_get_TotalMinutes_m3920401708
vdc:__Z22Mesh_CUSTOM_HasChannelP12Il2CppObject30InternalScriptingShaderChannel
x3b:__ZN15DirectorManager17AcquireOutputNodeEv
oBb:__ZN10MonoScript23VirtualRedirectTransferER17RemapPPtrTransfer
yw:__ZN8Playable11SetDurationEd
lSf:__ZL69PersistentCall_t3407714124_CustomAttributesCacheGenerator_m_ArgumentsP21CustomAttributesCache
FEa:__ZN16GeometryJobTasks20ScheduleGeometryJobsER9GfxDevicePFvP15GeometryJobDataEPK22GeometryJobInstructionjb
FJe:_TlsServerCertificateRequest_ProcessAsSsl3_m1084200341
RH:__ZN12AudioManager29ShutdownReinitializeAndReloadEv
Aqi:_LifetimeServices_set_LeaseManagerPollTime_m3035471458
H0g:_GUISkin_get_error_m2501677343
S_c:_PermissionSet__ctor_m2328457660
z6f:_Enumerator__ctor_m1849900510_gshared
VGj:__GLOBAL__sub_I_String_cpp
u6i:__ZN15dense_hashtableINSt3__24pairIK10KeyWrapperIPK22Il2CppGenericParameterEP11Il2CppClassEES6_N6il2cpp5utils11PointerHashIS4_EEN14dense_hash_mapIS6_S9_SE_NS6_14EqualsComparerINS0_8equal_toIS5_EEEENS0_9allocatorISA_EEE9SelectKeyESJ_SL_E6insertERKSA_
bHf:__ZL100Input_t1431474628_CustomAttributesCacheGenerator_Input_INTERNAL_set_compositionCursorPos_m1791829111P21CustomAttributesCache
nJf:__ZL81Object_t631007953_CustomAttributesCacheGenerator_Object_DestroyObject_m2915873188P21CustomAttributesCache
q4d:_InputField_GenerateCaret_m1459647218
IPh:__Z60RuntimeInvoker_Void_t1185182177_AnimatorClipInfo_t3156717155PK10MethodInfoPvPS2_
UAi:_X509CertificateEnumerator__ctor_m85694331
Xxa:__ZN14DataBufferGLES16RecreateWithDataEjPKv
w8b:__Z29GetGlobalAllowNameConversionsv
SGd:_Array_InternalArray__Insert_TisTableRange_t3332867892_m558285859_gshared
e5a:__ZN8Material8SetColorEN9ShaderLab16FastPropertyNameERK10ColorRGBAf
nUf:__ZL77ExecuteEvents_t3484638744_CustomAttributesCacheGenerator_U3CU3Ef__mgU24cacheFP21CustomAttributesCache
NMh:__Z72RuntimeInvoker_Void_t1185182177_BooleanU26_t4125257963_SByte_t1669577662PK10MethodInfoPvPS2_
JRe:_Enumerator_System_Collections_IEnumerator_Reset_m3754523291_gshared
f1j:_glUniform3uiv__wrapper
Exf:__ZL77Convert_t2465617642_CustomAttributesCacheGenerator_Convert_ToByte_m2375887898P21CustomAttributesCache
od:___syscall91
aGh:__Z51RuntimeInvoker_Void_t1185182177_Vector3_t3722313464PK10MethodInfoPvPS2_
d5:__ZN21AssetReferenceStorageC2Ev
_Ai:_PKCS12_get_IterationCount_m3005687235
tLb:__ZN10RectOffset8TransferI19StreamedBinaryWriteILb0EEEEvRT_
WMg:_MemberFilter_BeginInvoke_m3549240552
jDh:__Z80RuntimeInvoker_Void_t1185182177_Il2CppObject_Int32_t2950945753_Int64_t3736567304PK10MethodInfoPvPS2_
mZ:__ZL41AssemblyNameMatchesWithOrWithoutExtensionPKcS0_
p_e:_List_1_set_Item_m2082115010_gshared
hwh:__Z75RuntimeInvoker_Void_t1185182177_Il2CppObject_SByte_t1669577662_Il2CppObjectPK10MethodInfoPvPS2_
Hrg:_Encoding_GetBytes_m3735967069
IEi:_TextGenerationSettings_Equals_m659040794_AdjustorThunk
U6c:_Array_Initialize_m3004991267
nCa:__ZN14GfxContextGLES43AddRenderSurfaceToDeferredFBOInvalidateListEPK17RenderSurfaceGLES
jch:_ResourceRequest_get_asset_m2462824237
nuj:__ZN6il2cpp6icalls8mscorlib6System9Threading6Thread15Thread_internalEP12Il2CppThreadP14Il2CppDelegate
nda:__ZN11NamedObject23VirtualRedirectTransferER14SafeBinaryRead
QYg:_Text_get_resizeTextMinSize_m1002355407
Exc:__ZNSt3__26vectorIN20TextRenderingPrivate8FontImpl13CharacterInfoE13stl_allocatorIS3_L18MemLabelIdentifier1ELi16EEE6insertENS_11__wrap_iterIPKS3_EERS9_
tka:__ZN23PreloadManagerOperation6IsDoneEv
N4f:_ShimEnumerator_Reset_m1807354741_gshared
Dfj:__ZN6il2cpp2vm7Runtime15InvokeWithThrowEPK10MethodInfoPvPS5_
e4b:__Z33GetHasChangedDeprecatedSystemMaskv
Kbg:_Dictionary_2_GetEnumerator_m1398364166_gshared
OCj:__ZN6il2cpp5utils11StringUtils11Utf16ToUtf8ERKNSt3__212basic_stringIDsNS2_11char_traitsIDsEENS2_9allocatorIDsEEEE
_Ce:_MD4Managed_Decode_m4273685594
Poa:__ZN21LightProbeProxyVolume18HasHardwareSupportEv
Cha:__ZN6prcoreL31inner_stretch_argb8888_bilinearEPKNS_9InnerInfoE
yMb:__Z18Transfer_BlittableI18StreamedBinaryReadILb1EELb1E8BitFieldEvRK29SerializationCommandArgumentsR31RuntimeSerializationCommandInfo
nTf:__ZL108NetFxCoreExtensions_t4089902045_CustomAttributesCacheGenerator_NetFxCoreExtensions_GetMethodInfo_m3154548066P21CustomAttributesCache
hAc:_UNITY_FT_Outline_Decompose
dde:_Int64_System_IConvertible_ToChar_m1509243576_AdjustorThunk
$zi:_GeneralNames_get_IPAddresses_m4242915644
zld:_Decimal_op_Implicit_m3873897383
XPe:_Enumerator_Dispose_m3500272053_AdjustorThunk
VKj:_GC_init_size_map
DAh:__Z51RuntimeInvoker_Double_t594665363_Single_t1397266774PK10MethodInfoPvPS2_
Lbi:_Bounds_set_center_m1602292844
MSa:__Z20scripting_object_new17ScriptingClassPtr
kQ:__ZN11UnityEngine15CloudWebService10RestClientINS0_16WWWRestHeaderMapEED2Ev
bbc:__Z31Display_CUSTOM_GetSystemExtImpl13Il2Cpp_IntPtrPiS0_
jwe:_KeyGeneratedEventHandler_Invoke_m2527485594
N1d:_Image_get_layoutPriority_m1290204116
rhc:__Z58Register_UnityEngine_Object_Internal_CloneSingleWithParentv
Ulj:__ZN24dense_hashtable_iteratorINSt3__24pairIK10KeyWrapperINS1_IPK9FieldInfoP11Il2CppClassEEEjEES9_17ReflectionMapHashIS8_EN14dense_hash_mapIS9_jSD_NS9_14EqualsComparerINS0_8equal_toIS8_EEEENS0_9allocatorISB_EEE9SelectKeyESI_SK_E30advance_past_empty_and_deletedEv
YD:__Z75AnimatorControllerPlayable_CUSTOM_INTERNAL_CALL_GetAnimatorClipInfoInternalP12Il2CppObjectR9HPlayableihS0_
vyi:_Repetition_get_Expression_m2673886232
hzh:__Z82RuntimeInvoker_Il2CppObject_StreamingContext_t3711869237_Il2CppObject_Il2CppObjectPK10MethodInfoPvPS2_
Eli:_ScriptPlayable_OnGraphStart_m1139059973
ard:_Decimal__ctor_m1925875020_AdjustorThunk
Kmg:_SerializationCallbacks__ctor_m3863304525
fbg:_Dictionary_2_System_Collections_Generic_ICollectionU3CSystem_Collections_Generic_KeyValuePairU3CTKeyU2CTValueU3EU3E_Add_m1580030894_gshared
pZa:__ZN18ShadowMapJobHeaderD0Ev
nOd:_Object_Instantiate_TisIl2CppObject_m878221869_gshared
Ctf:__ZL59SerializationInfo_t950877179_CustomAttributesCacheGeneratorP21CustomAttributesCache
P:Math_exp
xch:_ScriptableObject_CreateInstance_m1668078119
so:FUNCTION_TABLE_iiifi
HCj:__ZN6il2cpp2os5posix13PosixAutoLockD2Ev
Tqa:__ZNSt3__26vectorINS_4pairIyP17VertexDeclarationEENS_9allocatorIS4_EEE6insertENS_11__wrap_iterIPKS4_EERS9_
Nph:_Comparer_1__cctor_m101106588_gshared
tVh:_Collection_1_System_Collections_ICollection_CopyTo_m261568672_gshared
Ihj:_il2cpp_class_get_name
VTi:_SymmetricTransform_OFB_m3690147804
aoh:_InternalEnumerator_1_MoveNext_m3713722659_AdjustorThunk
pEc:_cff_get_advances
V2a:__ZN13MonoBehaviour9SetScriptERK4PPtrI10MonoScriptE18ScriptingObjectPtr
Pzc:_UNITY_FT_Create_Class_sfnt_module_class
Dxj:__ZNSt3__218uninitialized_copyIPNS_4pairIK10KeyWrapperIP14Il2CppIUnknownEjEES8_EET0_T_SA_S9_
$xe:_PKCS12_get_RNG_m2649456600
UV:__ZNK10FileSystem16LastErrorMessageEv
THd:_Array_InternalArray__Insert_TisVector3_t3722313464_m3862657277_gshared
hDh:__Z48RuntimeInvoker_ExchangeAlgorithmType_t1320888206PK10MethodInfoPvPS2_
iRf:__ZL104NativeClassAttribute_t2601352714_CustomAttributesCacheGenerator_U3CQualifiedNativeNameU3Ek__BackingFieldP21CustomAttributesCache
n$c:_SecurityException__ctor_m1631242336
nTh:__Z68RuntimeInvoker_Boolean_t97287965_SByte_t1669577662_SByte_t1669577662PK10MethodInfoPvPS2_
t8i:__ZN15dense_hashtableINSt3__24pairIK10KeyWrapperIPK11Il2CppClassEPKcEES6_N6il2cpp5utils11PointerHashIS3_EEN14dense_hash_mapIS6_S9_SE_NS6_14EqualsComparerINS0_8equal_toIS5_EEEENS0_9allocatorISA_EEE9SelectKeyESJ_SL_E14squash_deletedEv
OSj:_fputc
nQd:_EventSystem_Update_m1662072334
Iah:_Rect_Overlaps_m743951238_AdjustorThunk
yNh:__Z48RuntimeInvoker_Boolean_t97287965_Link_t544317964PK10MethodInfoPvPS2_
fTc:__ZN22UnityWebRequestManager10InitializeEv
PBb:__ZN13MonoBehaviour13AwakeFromLoadE17AwakeFromLoadMode
jzc:_raccess_guess_darwin_newvfs
t9h:_AnimationEvent_get_objectReferenceParameter_m3615964334
RHb:__ZL26Transfer_SimpleNativeClassI17RemapPPtrTransfer8GradientLb1EEvRK29SerializationCommandArgumentsR31RuntimeSerializationCommandInfo
RPd:_RaycasterManager_RemoveRaycasters_m3057093063
s4b:__ZN12CachedWriter9InitWriteER15CacheWriterBase
_2b:__Z21UnsignedInt64ToStringy
kjh:_InternalEnumerator_1_MoveNext_m4138204635_AdjustorThunk
Eui:_PatternCompiler_BeginLink_m1295557963
uuf:__ZL46MD5_t3177620429_CustomAttributesCacheGeneratorP21CustomAttributesCache
hae:_GuidParser_ThrowFormatException_m3223388534
Vxi:_Group_GetAnchorInfo_m3730312864
gXf:__ZL50Graphic_t1660335611_CustomAttributesCacheGeneratorP21CustomAttributesCache
Tdc:__Z36MonoBehaviour_CUSTOM_InvokeRepeatingP12Il2CppObjectP12Il2CppStringff
nyg:_TimeSpan_op_LessThanOrEqual_m300470010
Eri:_ContextAttribute_Freeze_m3288175579
jhf:_Interval_Merge_m3454211016_AdjustorThunk
eie:_MemoryStream_get_Position_m3733941202
eNj:__ZN6il2cpp2os9MutexImpl7TryLockEjb
rPa:__ZN6Camera26ClearIntermediateRenderersEj
Yej:__ZNSt3__214__split_bufferI6pollfdRNS_9allocatorIS1_EEEC2EjjS4_
D9a:__ZL10KeyHandleriPK23EmscriptenKeyboardEventPv
DOa:_UNITY_png_write_pCAL
vhd:_Slot_t3975888750_marshal_pinvoke
t2j:_glLinkProgram__wrapper
hia:__ZN6prcoreL12RemapGenericI17TexFormatARGB888815TexFormatBGR888EEvPKNS_9InnerInfoE
Q9d:_TextInfo_get_ListSeparator_m1628160079
eUf:__ZL77ExecuteEvents_t3484638744_CustomAttributesCacheGenerator_U3CU3Ef__mgU24cache6P21CustomAttributesCache
$Wg:_Selectable_OnCanvasGroupChanged_m472903475
ovg:_EventWaitHandle_Reset_m3348053200
rGe:_ClientContext_get_SslStream_m1583577309
kyj:__ZN6il2cpp6icalls8mscorlib6System13Globalization11CultureInfo35construct_internal_locale_from_nameEP17Il2CppCultureInfoP12Il2CppString
DJb:__ZL22Transfer_ManagedObjectI24GenerateTypeTreeTransferLb1EEvRK29SerializationCommandArgumentsR31RuntimeSerializationCommandInfo
u3g:_GUIStyle_Internal_CalcSize_m1836314828
jUc:_HMAC_get_BlockSizeValue_m455678067
Tmi:_ResourceEnumerator_FillCache_m1661715061
z4h:_ReadOnlyCollection_1_System_Collections_IList_IndexOf_m3664838805_gshared
Dvf:__ZL72SecuritySafeCriticalAttribute_t3505979402_CustomAttributesCacheGeneratorP21CustomAttributesCache
Oj:_emscripten_set_main_loop_timing
cbc:__Z34Display_CUSTOM_GetRenderingExtImpl13Il2Cpp_IntPtrPiS0_
Dnd:_Convert_ToUInt16_m3523269149
Axj:__ZN30dense_hashtable_const_iteratorINSt3__24pairIK10KeyWrapperIP14Il2CppIUnknownEjEES5_N6il2cpp5utils11PointerHashIS3_EEN14dense_hash_mapIS5_jSB_NS5_14EqualsComparerINS0_8equal_toIS4_EEEENS0_9allocatorIS7_EEE9SelectKeyESG_SI_E30advance_past_empty_and_deletedEv
Sxa:__ZN14DataBufferGLES12RecordRenderEv
HKe:_TlsException__ctor_m596254082
y4a:__ZN14ImageReference10FlipImageYEv
J0f:__ZL79Panel_MainScene_t1057628098_CustomAttributesCacheGenerator_U3CU3Ef__amU24cache8P21CustomAttributesCache
Jhb:__Z32TransferEnumWithNameForceIntSizeI14SafeBinaryRead13TargetEyeMaskEvRT_RT0_PKc17TransferMetaFlags
Ljc:__Z14GetDefaultSkini
oF:__ZN4FMOD3DSP9setBypassEb
x9a:__Z19NormalizeWheelInputf
g$d:_Graphic_DoMeshGeneration_m3548487693
G7a:__Z29StdTemplateConversionFunctionIsaEbPvR14SafeBinaryRead
Svi:_Repetition__ctor_m1672362629
$sc:__Z29Transfer_Blittable_ArrayFieldI8JSONReadhEvRT_R9ArrayInfoRK23StaticTransferFieldInfo
D0c:_SecurityFrame_ToString_m339310712_AdjustorThunk
cMg:_TypeBuilder_create_runtime_class_m2581270900
v6b:__ZN11MonoManager25GetImageFromAssemblyIndexEi
ohh:_InternalEnumerator_1_get_Current_m3008260692_gshared
sPj:__ZN6il2cpp2os20ThreadLocalValueImpl8SetValueEPv
PPa:__ZN22RenderingCommandBuffer20CleanupCommandBufferEv
Bld:_Decimal_op_Implicit_m2299919277
lMa:__ZZ23InitPlayerLoopCallbacksvEN43PostLateUpdateClearImmediateRenderersstruct7ForwardEv
Foc:__Z18Transfer_BlittableI9JSONWriteLb1EtEvRK29SerializationCommandArgumentsR31RuntimeSerializationCommandInfo
mle:_UnexceptionalStreamReader_ReadToEnd_m920589220
Zod:_DateTime_System_IConvertible_ToType_m1242864300
o1e:_List_1_System_Collections_IList_Contains_m3717811284_gshared
ek:___syscall85
KGh:__Z37RuntimeInvoker_Quaternion_t2301928331PK10MethodInfoPvPS2_
rRh:__Z53RuntimeInvoker_LabelData_t360167391_Int32_t2950945753PK10MethodInfoPvPS2_
TRa:__ZNSt3__26__sortIRPFbP10GUIElementS2_EPS2_EEvT0_S7_T_
L1b:__ZN16GraphicsSettings12CleanupClassEv
yHg:_ConstructorBuilder_GetILGenerator_m1750792206
p5c:_EncoderFallback_get_ReplacementFallback_m818398284
bEj:__ZN6il2cpp2os6Thread19DetachCurrentThreadEv
IQd:_EventTrigger_OnBeginDrag_m4203438710
P6i:__ZN6il2cpp2vmL21SetupInterfacesLockedEP11Il2CppClassRKNS_2os12FastAutoLockE
Nve:_PKCS1_Sign_v15_m2719206817
Xdi:_Color__ctor_m1673432820_AdjustorThunk
MLi:_JsonReader_ReadToken_m67845004
Jlb:__ZN19StreamedBinaryWriteILb0EE8TransferI13dynamic_arrayI8Vector3fLj4EEEEvRT_PKc17TransferMetaFlags
Zz:__ZN23AnimationPlayableOutput17SetSourcePlayableEP8Playable
AFj:__ZN6il2cpp2gc16GarbageCollector22MakeDescriptorForArrayEv
Jdg:_Dictionary_2_System_Collections_IDictionary_GetEnumerator_m529247385_gshared
qP:__ZN11UnityEngine15CloudWebService14DataDispatcher15SetupWebRequestEv
XXi:_EqualityComparer_1_get_Default_m1038871402_gshared
$Pc:__ZN11UnityEngine15PlatformWrapper13GetShaderCapsEv
u_a:__ZNSt3__211__sift_downIR26RenderDeferredObjectSorterP16RenderObjectDataEEvT0_S5_T_NS_15iterator_traitsIS5_E15difference_typeES5_
jKg:_GenericTypeParameterBuilder_IsDefined_m98179866
Cue:_KeyPairPersistence_get_MachinePath_m3812267291
Qid:_Stack_Peek_m2216191248
c9g:_PlayerPrefsException__ctor_m3311794025
GRh:__Z52RuntimeInvoker_HitInfo_t3229609740_Int32_t2950945753PK10MethodInfoPvPS2_
tXe:_List_1_TrimExcess_m1319219685_gshared
Mod:_DateTime_System_IConvertible_ToDecimal_m1044850612_AdjustorThunk
u2b:__ZN21FixedBehaviourManager6UpdateEv
L8b:__ZN9Transform9SetParentEPS_NS_15SetParentOptionE
n_:__ZN19ShaderPropertySheet8SetFloatEN9ShaderLab16FastPropertyNameEfNS_8SetFlagsE
Fla:__ZN19RuntimeSceneManager24BeginIntegrateMainThreadEP10UnityScene
Bei:_GameObject_GetComponentsInChildren_m479703998
rJe:_TlsServerCertificate_ProcessAsSsl3_m1306583193
dFj:__ZNSt3__2plIcNS_11char_traitsIcEENS_9allocatorIcEEEENS_12basic_stringIT_T0_T1_EERKS9_S6_
cke:_StringReader_CheckObjectDisposedException_m3796163530
tSb:__ZN9ShaderLab20SerializedSubProgramaSERKS0_
fVj:_roundf
Ygb:__ZN18StreamedBinaryReadILb0EE21TransferSTLStyleArrayINSt3__26vectorI17SortingLayerEntryNS2_9allocatorIS4_EEEEEEvRT_17TransferMetaFlags
mad:_Byte_System_IConvertible_ToSingle_m324484566_AdjustorThunk
TIh:__Z82RuntimeInvoker_Void_t1185182177_Il2CppObject_Internal_DrawArgumentsU26_t1357984313PK10MethodInfoPvPS2_
Djd:_Decimal_op_Explicit_m2848387298
SNe:_KeyValuePair_2_ToString_m1238786018_gshared
Gr:__ZN8Animator15SetPrepareStageEv
Tvh:__Z175RuntimeInvoker_Void_t1185182177_SByte_t1669577662_SByte_t1669577662_SByte_t1669577662_SByte_t1669577662_SByte_t1669577662_SByte_t1669577662_SByte_t1669577662_SByte_t1669577662PK10MethodInfoPvPS2_
Q6i:__ZN6il2cpp2vmL24SetupTypeHierarchyLockedEP11Il2CppClassRKNS_2os12FastAutoLockE
fEh:__Z69RuntimeInvoker_Boolean_t97287965_UInt16_t2177724958_Int16_t2552820387PK10MethodInfoPvPS2_
E9a:__ZL11TextHandleriPK23EmscriptenKeyboardEventPv
FXa:__Z20CalculateLightMatrixRK15SharedLightDataP10Matrix4x4f
cxc:_destroy_face
Q4g:_Input_GetMouseButtonUp_m3875270823
Rtc:__ZN5physx19PxAllocatorCallbackD2Ev
tLa:__ZN24dense_hashtable_iteratorINSt3__24pairIKN4core12basic_stringIcNS2_20StringStorageDefaultIcEEEEP20ArchiveStorageReaderEES6_20StringHash32FunctionIS6_EN14dense_hash_mapIS6_S9_SC_NS0_8equal_toIS6_EE13stl_allocatorISA_L18MemLabelIdentifier54ELi16EEE9SelectKeyESF_SI_EC2EPK15dense_hashtableISA_S6_SC_SK_SF_SI_EPSA_SQ_b
BMj:__ZN6il2cpp6icalls8mscorlib6System8Security12Cryptography24RNGCryptoServiceProvider13RngInitializeEP11Il2CppArray
hTf:__ZL68UsedByNativeCodeAttribute_t1703770351_CustomAttributesCacheGeneratorP21CustomAttributesCache
kFh:__Z80RuntimeInvoker_Il2CppObject_Ray_t3785851493_Single_t1397266774_Int32_t2950945753PK10MethodInfoPvPS2_
m6g:_Mathf_Sign_m1998862938
rmb:__ZN4PPtrI5LightE8TransferI19StreamedBinaryWriteILb0EEEEvRT_
Zoe:_NumberFormatter_NumberToString_m3906556024
tNb:__Z19TransferField_ArrayI18StreamedBinaryReadILb1EE27Converter_SimpleNativeClassI17AnimationCurveTplIfEEEvRK23StaticTransferFieldInfoR31RuntimeSerializationCommandInfoRT0_
sXe:_List_1_ToArray_m161611127_gshared
BFf:__ZL88Display_t1387065949_CustomAttributesCacheGenerator_Display_RecreateDisplayList_m48792512P21CustomAttributesCache
Aya:__ZN18GfxFramebufferGLES22MakeCurrentFramebufferENS_7BuiltinE
WHj:__ZN6il2cpp2vm12MarshalAlloc4FreeEPv
s5i:__ZL25UnresolvedVirtualCall_229P12Il2CppObject28AnimatorClipInfo_t3156717155PK10MethodInfo
goa:__ZN12CachedReader4ReadEPvj
NQg:_TypeFilter_EndInvoke_m998903841
LEc:_cf2_blues_init
fre:_SimpleCollator_MatchesForwardCore_m850743967
WWa:__Z24CalculateLightShadowFadeRK6CamerafffR8Vector4f
M$:__ZN19RuntimeSceneManagerD2Ev
CSf:__ZL77DeallocateOnJobCompletionAttribute_t3131681843_CustomAttributesCacheGeneratorP21CustomAttributesCache
w8g:_Object_set_name_m653319976
wwd:_CCGregorianCalendar_GetMonth_m1547203696
Bha:__ZN6prcore17GetIntegerBlitterE13TextureFormatS0_N14ImageReference8BlitModeE
uKj:_GC_print_block_descr
hnj:__ZN6il2cpp2gc19AppendOnlyGCHashMapINSt3__24pairIPK11Il2CppImageP11Il2CppClassEEP22Il2CppReflectionModule17ReflectionMapHashIS9_ENS2_8equal_toIS9_EEE11TryGetValueERKS9_PSB_
Xnf:__ZL51Directory_t828876208_CustomAttributesCacheGeneratorP21CustomAttributesCache
z7c:_SimpleEnumerator_Reset_m2182001888
Y0g:_GUISkin_get_label_m1695095964
v8b:__ZN9BlobWrite14ReduceCopyImplERK14ReduceCopyDataj
BZj:_glShaderSource__wrapper
TIa:__ZN25MultiBlocksMemoryFileData17AdjustBlocksCountEj
Tuj:__ZNSt3__214__split_bufferIN6il2cpp2vm22EmbeddedResourceRecordERNS_9allocatorIS3_EEED2Ev
s0b:__ZZN12MeshRenderer15InitializeClassEvEN29FunctorImpl_134kDidModifyMesh4CallEPviR11MessageData
hvc:__ZN13TextRendering4Font8TransferI24GenerateTypeTreeTransferEEvRT_
wng:_SerializationEntry_get_Name_m1530029541_AdjustorThunk
Tac:__Z27CullingGroup_CUSTOM_DisposeP12Il2CppObject
guj:__ZN6il2cpp6icalls8mscorlib6SystemL23CheckWideningConversionEjjj
ROh:__Z62RuntimeInvoker_Int32_t2950945753_ParameterModifier_t1461694466PK10MethodInfoPvPS2_
kQa:__ZN13ComputeShader15SetTextureParamEjRKN9ShaderLab16FastPropertyNameE9TextureID16TextureDimension
aqh:_Comparer_1__ctor_m319670016_gshared
om:_glStencilMask
yEj:__ZN6il2cpp2os10ThreadImpl16GetCurrentThreadEv
VOg:_MonoMethod_GetBaseDefinition_m2844667474
z9a:__ZN15GUIEventManager10QueueEventERK10InputEvent
_Zh:_Collection_1_Contains_m1707523067_gshared
Cni:_DecimalConstantAttribute__ctor_m3583301917
G5f:_Transform_1_Invoke_m2290027157_gshared
WJj:_GC_push_conditional_with_exclusions
Ex:__ZN21AnimationPosePlayableD0Ev
Qxf:__ZL80Convert_t2465617642_CustomAttributesCacheGenerator_Convert_ToDecimal_m2858622624P21CustomAttributesCache
yEh:__Z35RuntimeInvoker_Interval_t1802865632PK10MethodInfoPvPS2_
R5:__ZN15dense_hashtableINSt3__24pairIKiiEEi21InstanceIDHashFunctorN14dense_hash_mapIiiS4_NS0_8equal_toIiEE13stl_allocatorIS3_L18MemLabelIdentifier65ELi16EEE9SelectKeyES7_SA_E9copy_fromERKSD_j
x5i:__ZL25UnresolvedVirtualCall_234P12Il2CppObjecti25RaycastResult_t3360306849PK10MethodInfo
qSj:_strrchr
nqi:__ZN21InterfaceFuncInvoker1IP8String_tS1_E6InvokeEjP11Il2CppClassP12Il2CppObjectS1_
jKd:_Array_Sort_TisIl2CppObject_TisIl2CppObject_m528220565_gshared
gag:_Dictionary_2__ctor_m3993444025_gshared
rUd:_UIBehaviour_IsDestroyed_m3033055982
lhc:__Z27Object_CUSTOM_DestroyObjectP12Il2CppObjectf
$2d:_InputField_get_readOnly_m3111985574
wmb:__ZN14RenderSettings27UpdateIndirectSpecularColorEv
Xxb:__ZN14PlayerSettings8TransferI18StreamedBinaryReadILb0EEEEvRT_
$4g:_Input_set_imeCompositionMode_m57811281
Tsf:__ZL73ObjRef_t2141158884_CustomAttributesCacheGenerator_U3CU3Ef__switchU24map26P21CustomAttributesCache
cVf:__ZL102PointerEventData_t3807901092_CustomAttributesCacheGenerator_PointerEventData_set_pointerId_m1888344330P21CustomAttributesCache
O5d:_U3CDelayedSetDirtyU3Ec__Iterator0__ctor_m3936335621
Kqb:__ZN4PPtrI10GameObjectE8TransferI14SafeBinaryReadEEvRT_
r5g:_Keyframe_get_inTangent_m3690235177_AdjustorThunk
pyf:__ZL78Convert_t2465617642_CustomAttributesCacheGenerator_Convert_ToSByte_m2486156346P21CustomAttributesCache
jWc:_RijndaelTransform__cctor_m2439033240
x_e:_List_1_System_Collections_IList_Contains_m453976393_gshared
I6g:_Mesh_Internal_Create_m324632090
elf:__ZL175U3CGetEnumeratorU3Ec__Iterator0_t1202911786_CustomAttributesCacheGenerator_U3CGetEnumeratorU3Ec__Iterator0_System_Collections_Generic_IEnumeratorU3CTU3E_get_Current_m322251035P21CustomAttributesCache
t1i:__ZL24UnresolvedVirtualCall_14P12Il2CppObject25RSAParameters_t1728406613PK10MethodInfo
tDc:_ps_hints_t2mask
_0f:__ZL119Panel_MainScene_t1057628098_CustomAttributesCacheGenerator_Panel_MainScene_U3CButtonClick_getMessageU3Em__B_m1220832565P21CustomAttributesCache
TMd:_LayoutGroup_SetProperty_TisVector2_t2156229523_m2721164497_gshared
RE:__Z110Register_UnityEngine_Experimental_Director_AnimatorControllerPlayable_INTERNAL_CALL_GetParametersArrayInternalv
bYg:_Slider_Set_m1476104429
d1d:_Image_set_fillClockwise_m2210525152
Qub:__ZN10BlendShape8TransferI19StreamedBinaryWriteILb0EEEEvRT_
UF:__Z32TransferEnumWithNameForceIntSizeI14SafeBinaryReadN10SampleClip8LoadTypeEEvRT_RT0_PKc17TransferMetaFlags
mee:__Z21il2cpp_codegen_sizeofP11Il2CppClass
y9:__Z19GetTimeSinceStartupv
H0f:__ZL79Panel_MainScene_t1057628098_CustomAttributesCacheGenerator_U3CU3Ef__amU24cache6P21CustomAttributesCache
D1d:_Image_AddQuad_m2161647989
FPd:_BaseInputModule_DeactivateModule_m856719157
oEj:__ZN6il2cpp2os10ThreadImpl11SetPriorityENS0_14ThreadPriorityE
yRe:_Enumerator_System_Collections_IEnumerator_Reset_m2953002685_gshared
KIc:_TT_Load_Composite_Glyph
xki:_AnimatorControllerPlayable_GetParameterCountInternal_m2235050270
sIi:_Vector4_get_sqrMagnitude_m3647362453_AdjustorThunk
R1e:_List_1_Insert_m1695211546_gshared
nYe:_List_1_Sort_m3232912161_gshared
qVa:__ZN29RenderNodeQueuePrepareContextC2Ev
kij:_il2cpp_gc_disable
kM:__ZN10SampleClipC2E18MemLabelIdentifier18ObjectCreationMode
rTb:__ZN9ShaderLab20SerializedSubProgram16TextureParameter8TransferI24GenerateTypeTreeTransferEEvRT_
lrg:_DSASignatureDeformatter_SetKey_m2999549245
eOj:__ZN6il2cpp2os11MutexHandle4WaitEj
p7b:__ZL34GetComponentsImplementationRecurseILb1ELi1ELi1EEbR10GameObjectbRK17CompareParametersRK39GetComponentsImplementation_ReturnValue
dOj:__ZN6il2cpp2os11MutexHandle4WaitEv
QGg:_AssemblyBuilder_GetTypes_m3415680380
qja:__ZN6prcoreL17RemapGenericFloatI15TexFormatRGHalf18TexFormatARGBFloatEEvPKNS_9InnerInfoE
p4b:__ZL15CloneObjectImplP6ObjectP9TransformR10vector_mapIiiNSt3__24lessIiEE13stl_allocatorINS4_4pairIiiEEL18MemLabelIdentifier1ELi16EEE
uba:__ZNK13RenderTexture13GetDataHeightEv
gPa:__ZN13RenderManager23AddRemoveCamerasDelayedEv
FOa:_UNITY_png_write_pHYs
vka:__ZN23PreloadManagerOperation11GetPriorityEv
E3e:_Stack_1_Push_m399625717_gshared
r5d:_LayoutElement_OnEnable_m1760066426
b8c:_BitConverter__cctor_m3841343255
njd:_Decimal_Compare_m3062820418
qhf:_IntervalCollection_GetMetaCollection_m4029522214
DQd:_EventTrigger_OnDeselect_m1919608102
xOf:__ZL75Event_t2956885303_CustomAttributesCacheGenerator_Event_get_type_m1523589438P21CustomAttributesCache
oxg:_TimeSpan__ctor_m2047388489_AdjustorThunk
R1a:__ZN13RenderTexture8SetWidthEi
xZb:__ZNK28RectTransformPropertyBinding12SetPPtrValueERKN11UnityEngine9Animation10BoundCurveEi
kuf:__ZL56HMACRIPEMD160_t3724196729_CustomAttributesCacheGeneratorP21CustomAttributesCache
kOb:__Z18Transfer_BlittableI18StreamedBinaryReadILb0EELb0EfEvRK29SerializationCommandArgumentsR31RuntimeSerializationCommandInfo
avb:__ZN10MeshFilterD0Ev
MIc:_UNITY_FT_GlyphLoader_CheckSubGlyphs
Jgh:_InternalEnumerator_1__ctor_m1341209356_AdjustorThunk
zXa:__Z25SetupObjectBakedOcclusionbRK15SharedLightDataRK26SharedLightmapSettingsDataRK15LightmapIndicesR17ShaderPassContext
SBh:__Z52RuntimeInvoker_Void_t1185182177_DateTime_t3738529785PK10MethodInfoPvPS2_
EGf:__ZL94GUILayer_t2783472903_CustomAttributesCacheGenerator_GUILayer_INTERNAL_CALL_HitTest_m4142979080P21CustomAttributesCache
JUh:_Collection_1_System_Collections_ICollection_CopyTo_m1516601228_gshared
vmc:__Z42Register_UnityEngine_GUIStyle_set_fontSizev
QXh:_Collection_1_Add_m3860636938_gshared
xQf:__ZL119GUIStyle_t3956901511_CustomAttributesCacheGenerator_GUIStyle_INTERNAL_CALL_Internal_CalcSizeWithConstraints_m1791156923P21CustomAttributesCache
k1i:__ZL23UnresolvedVirtualCall_5P12Il2CppObjectsPK10MethodInfo
JA:__ZN4PPtrI6AvatarE8TransferI19StreamedBinaryWriteILb0EEEEvRT_
Sr:__ZN8Animator9BuildJobsERK13dynamic_arrayIP14PlayableOutputLj4EERS0_INS_11AnimatorJobELj4EEPS7_bb
xTe:_List_1_Insert_m4050947056_gshared
OZ:__ZN9ShaderLab16FastPropertyName4InitEPKc
q$g:_Rect_get_xMax_m2926206058
Kwf:__ZL61Thread_t2300836069_CustomAttributesCacheGenerator_local_slotsP21CustomAttributesCache
EYb:__Z13RegisterClassIN2UI13RectTransformEEvv
f$h:_Collection_1_System_Collections_IEnumerable_GetEnumerator_m3596816767_gshared
igj:__ZNK6il2cpp5utils10functional6FilterINSt3__212basic_stringIcNS3_11char_traitsIcEENS3_9allocatorIcEEEENS0_11StringUtils23CaseInsensitiveComparerEEclIPKcEEbRKT_
Lkh:_InternalEnumerator_1_get_Current_m3911557813_AdjustorThunk
HPc:__ZN11UnityEngine15PlatformWrapper19GetPhysicalMemoryMBEv
Yad:_Char_System_IConvertible_ToByte_m2347554595_AdjustorThunk
HRf:__ZL59TooltipAttribute_t3957072629_CustomAttributesCacheGeneratorP21CustomAttributesCache
wsb:__ZN10VertexData8TransferI17RemapPPtrTransferEEvRT_
_aa:__ZN13RenderTexture9SetMipMapEb
K8i:__ZN15dense_hashtableINSt3__24pairIK10KeyWrapperIPK11Il2CppClassEPKcEES6_N6il2cpp5utils11PointerHashIS3_EEN14dense_hash_mapIS6_S9_SE_NS6_14EqualsComparerINS0_8equal_toIS5_EEEENS0_9allocatorISA_EEE9SelectKeyESJ_SL_E13set_empty_keyERKSA_
P3c:_String_CreateString_m860434552
mY:__Z18GetDirectorManagerv
vgb:__ZNK10TagManager26GetTypeInfoVirtualInternalEv
u6e:_Collection_1_GetEnumerator_m1824095167_gshared
Eqf:__ZL107CriticalFinalizerObject_t701527852_CustomAttributesCacheGenerator_CriticalFinalizerObject__ctor_m3245424448P21CustomAttributesCache
EAb:__ZN21ArchiveStorageCreator13AppendRawNodeERKN4core12basic_stringIcNS0_20StringStorageDefaultIcEEEEN20ArchiveStorageHeader9NodeFlagsEyy
sgc:__Z38Transform_CUSTOM_INTERNAL_get_rotationP12Il2CppObjectP11Quaternionf
Aig:_SoapAttribute_get_XmlNamespace_m859394681
Ymj:__ZNK15dense_hashtableINSt3__24pairIK10KeyWrapperINS1_IPK10MethodInfoP11Il2CppClassEEEjEES9_17ReflectionMapHashIS8_EN14dense_hash_mapIS9_jSD_NS9_14EqualsComparerINS0_8equal_toIS8_EEEENS0_9allocatorISB_EEE9SelectKeyESI_SK_E5beginEv
aDi:_X509ExtensionCollection_System_Collections_IEnumerable_GetEnumerator_m1475785462
PAa:__ZN7ApiGLES19UploadBufferSubDataEjN2gl12BufferTargetEllPKv
DDi:_SkeletonBone_t4134054672_marshal_pinvoke_cleanup
WXe:__ZN21InterfaceFuncInvoker0I19Color32_t2600501292E6InvokeEjP11Il2CppClassP12Il2CppObject
r5:__ZdaPv
TLi:_JsonReader_get_Token_m1333614796
goe:_MulticastDelegate_Equals_m2502840627
GVc:_SymmetricAlgorithm_set_KeySize_m3805756466
X3e:_Collection_1_System_Collections_IList_Add_m4069604156_gshared
sad:_Byte_System_IConvertible_ToUInt32_m1049546902_AdjustorThunk
Xcj:__ZNSt3__26__treeINS_12__value_typeIP11Il2CppClassS3_EENS_19__map_value_compareIS3_S4_NS_4lessIS3_EELb1EEENS_9allocatorIS4_EEE25__emplace_unique_key_argsIS3_JNS_4pairIS3_S3_EEEEENSD_INS_15__tree_iteratorIS4_PNS_11__tree_nodeIS4_PvEEiEEbEERKT_DpOT0_
RXc:_SHA1Internal_ProcessBlock_m1991889327
uFb:__Z19TransferField_ArrayI14SafeBinaryRead27Converter_SimpleNativeClassI8GUIStyleEEvRK23StaticTransferFieldInfoR31RuntimeSerializationCommandInfoRT0_
GRf:__ZL60PropertyAttribute_t3677895545_CustomAttributesCacheGeneratorP21CustomAttributesCache
ixj:__ZN15dense_hashtableINSt3__24pairIK10KeyWrapperIP14Il2CppIUnknownEjEES5_N6il2cpp5utils11PointerHashIS3_EEN14dense_hash_mapIS5_jSB_NS5_14EqualsComparerINS0_8equal_toIS4_EEEENS0_9allocatorIS7_EEE9SelectKeyESG_SI_ED2Ev
MMj:__ZN6il2cpp5utils10MemoryPoolC2Ej
IMj:__ZN6il2cpp5utils10MemoryPoolC2Ev
Ylb:__ZN14RenderSettings5ResetEv
Hkh:_InternalEnumerator_1_System_Collections_IEnumerator_get_Current_m3892960115_AdjustorThunk
nvj:__ZNSt3__212basic_stringIDsNS_11char_traitsIDsEENS_9allocatorIDsEEE6appendEPKDsj
l_g:_VertexHelper_AddUIVertexStream_m1733605881
Zcd:_ArrayList_Clone_m2682741233
nHf:__ZL90AnimationCurve_t3046754366_CustomAttributesCacheGenerator_AnimationCurve__ctor_m1499663178P21CustomAttributesCache
tOg:_MonoEventInfo_t346866618_marshal_pinvoke_cleanup
wUc:_HMAC_HashCore_m3684104066
qXh:_Collection_1_RemoveItem_m2911050674_gshared
NDh:__Z72RuntimeInvoker_Boolean_t97287965_Il2CppObject_IPv6AddressU26_t3285609463PK10MethodInfoPvPS2_
iEj:__ZN6il2cpp2os10ThreadImplD2Ev
P9d:_TextInfo_System_Runtime_Serialization_IDeserializationCallback_OnDeserialization_m1492046432
vnc:__ZN8Gradient8TransferI9JSONWriteEEvRT_
tri:_ContextCallbackObject__ctor_m3499682402
Boh:_InternalEnumerator_1_System_Collections_IEnumerator_get_Current_m1847780851_AdjustorThunk
rjd:_Convert_ToBoolean_m2833621053
cab:__ZNK12TLSAllocatorI14StackAllocatorE22GetAllocatedMemorySizeEv
WBf:__ZL62WebHeaderCollection_t1942268960_CustomAttributesCacheGeneratorP21CustomAttributesCache
_3a:__ZN17RemapPPtrTransfer12PushMetaFlagE17TransferMetaFlags
N3g:_GUIStyle_get_contentOffset_m1453447484
mXi:_EqualityComparer_1_System_Collections_IEqualityComparer_GetHashCode_m2138064395_gshared
IJa:__ZN12HandlerChain4NameEv
DXd:_FloatTween_t1274330004_marshal_pinvoke
pbe:_Int16_System_IConvertible_ToType_m3672347013_AdjustorThunk
nYb:__Z13RegisterClassI14RenderSettingsEvv
m0c:_SecurityException_ToString_m3228070608
Vbe:_Int16_ToString_m2013897809
sbj:__ZNK15dense_hashtableINSt3__24pairIK10KeyWrapperI13dynamic_arrayIPK10Il2CppTypeLj4EEEPFvvEEES8_N6il2cpp8metadata19Il2CppSignatureHashEN14dense_hash_mapIS8_SB_SF_NS8_14EqualsComparerINSE_22Il2CppSignatureCompareEEENS0_9allocatorISC_EEE9SelectKeyESJ_SL_E10test_emptyERK30dense_hashtable_const_iteratorISC_S8_SF_SN_SJ_SL_E
o0c:_String_Substring_m2848979100
cOc:__Z44Register_UnityEngine_CanvasRenderer_get_cullv
S5i:__ZN15dense_hashtableINSt3__24pairIK10KeyWrapperIPK22Il2CppGenericParameterEP11Il2CppClassEES6_N6il2cpp5utils11PointerHashIS4_EEN14dense_hash_mapIS6_S9_SE_NS6_14EqualsComparerINS0_8equal_toIS5_EEEENS0_9allocatorISA_EEE9SelectKeyESJ_SL_ED2Ev
_Yb:__ZN13ProduceHelperI13MonoBehaviourLb0EE7ProduceE18MemLabelIdentifier18ObjectCreationMode
i0c:_SecurityException_get_PermissionType_m2237538728
L2i:__ZL24UnresolvedVirtualCall_86P12Il2CppObjectxS0_xPK10MethodInfo
g8a:__Z29StdTemplateConversionFunctionIbbEbPvR14SafeBinaryRead
MGj:__ZNK15dense_hashtableINSt3__24pairIK10KeyWrapperIPK19Il2CppGenericMethodEP10MethodInfoEES6_N6il2cpp8metadata23Il2CppGenericMethodHashEN14dense_hash_mapIS6_S9_SD_NS6_14EqualsComparerINSC_26Il2CppGenericMethodCompareEEENS0_9allocatorISA_EEE9SelectKeyESH_SJ_E12test_deletedEj
aEb:__Z44InitializeTransferFunctionScriptingTraitsForI17RemapPPtrTransferEvR31TransferFunctionScriptingTraits
x5a:__ZN14UnityWebStream24UpdateAllUnityWebStreamsEv
zgi:_Event_get_isKey_m2009856615
Adf:_X509Chain_SelectBestFromCollection_m1068759221
YTi:_SymmetricTransform_TransformBlock_m851059707
mjf:__ZL68IntPtr_t_CustomAttributesCacheGenerator_IntPtr_ToPointer_m4157623054P21CustomAttributesCache
p$h:_Collection_1_System_Collections_IList_get_IsReadOnly_m2978442176_gshared
mwi:_Regex_System_Runtime_Serialization_ISerializable_GetObjectData_m4061390789
KVg:_ScrollRect_get_verticalNormalizedPosition_m3693218937
Dla:__ZN18LoadSceneOperation21MustCompleteNextFrameEv
dYg:_Slider_UpdateDrag_m1102107039
g0f:__ZL70U3CFadeAlphaU3Ec__Iterator0_t1449618045_CustomAttributesCacheGeneratorP21CustomAttributesCache
tK:__ZNK12AudioManager16GetAudioListenerEv
GPi:_InvokableCall_1_add_Delegate_m137616200_gshared
sDi:_HitInfo_SendMessage_m2876711123_AdjustorThunk
gce:_Int32_System_IConvertible_ToDateTime_m1824716955
Zbg:_Dictionary_2_System_Collections_Generic_ICollectionU3CSystem_Collections_Generic_KeyValuePairU3CTKeyU2CTValueU3EU3E_CopyTo_m331407443_gshared
BEj:__ZN6il2cpp2osL23CleanupThreadIfCanceledEPv
rog:_RuntimeTypeHandle__ctor_m3315980708_AdjustorThunk
gvf:__ZL69IIdentityPermissionFactory_t3268650966_CustomAttributesCacheGeneratorP21CustomAttributesCache
k1a:__ZNSt3__26vectorI11CameraStackNS_9allocatorIS1_EEE8__appendEj
Gfg:_DefaultComparer_Equals_m2585095694_gshared
kCi:_X509Chain_get_TrustAnchors_m2434696767
rRi:_UnityEvent_1_AddListener_m3990091128_gshared
hx:__ZN7mecanim9animation12GetHumanPoseERKNS0_18ClipMuscleConstantEPKNS0_10ValueDeltaERNS_5human9HumanPoseE
E6e:_Collection_1_set_Item_m3534473787_gshared
rdg:_Dictionary_2__ctor_m518943619_gshared
yLb:__Z29Transfer_Blittable_ArrayFieldI19StreamedBinaryWriteILb0EEjEvRT_R9ArrayInfoRK23StaticTransferFieldInfo
IV:__Z13GetFileSystemv
q1b:__ZZL23RegisterLightPropertiesR22GenericPropertyBindingEN29Wrapper_LightColorTemperature13SetFloatValueEPvf
r4:__ZNK5Unity4Type21FindAllDerivedClassesER13dynamic_arrayIPKS0_Lj4EENS0_17TypeFilterOptionsE
k5:__ZN13RuntimeStaticI15GUIEventManagerLb0EE16StaticInitializeEPv
M6:__ZN18ConcurrentFreeListI10AtomicNodeE7CleanUpEv
ePb:__ZL12InvokeMethodI18StreamedBinaryReadILb0EEEvRK29SerializationCommandArgumentsR31RuntimeSerializationCommandInfo
vgh:_InternalEnumerator_1_MoveNext_m2542460092_gshared
TDg:_Version_CompareTo_m3146217210
PIe:_TlsClientCertificate_FindParentCertificate_m3844441401
TFd:_Array_InternalArray__ICollection_CopyTo_TisKeyValuePair_2_t71524366_m1056941380_gshared
Jyg:_Type_get_IsClass_m589177581
Vyg:_Type_get_IsSystemType_m624798880
GNb:__Z29Transfer_Blittable_ArrayFieldI18StreamedBinaryReadILb1EE5RectTIfEEvRT_R9ArrayInfoRK23StaticTransferFieldInfo
xQa:__ZN19ShaderPropertySheet9SetMatrixEN9ShaderLab16FastPropertyNameERK10Matrix4x4fNS_8SetFlagsE
Aob:__Z29GetTextureSizeAllowedMultiple13TextureFormat
Lrd:_Decimal_Subtract_m835601464
T2b:__ZN21IntermediateRenderers3AddEP20IntermediateRenderer
vhj:_il2cpp_array_element_size
Vhf:__ZL62ComVisibleAttribute_t1362837655_CustomAttributesCacheGeneratorP21CustomAttributesCache
BYe:_List_1_System_Collections_IEnumerable_GetEnumerator_m1824431956_gshared
Vf:_glCheckFramebufferStatus
fMj:__ZN6il2cpp2os11EventHandle4WaitEv
Jch:_U3CGetEnumeratorU3Ec__Iterator0_System_Collections_Generic_IEnumeratorU3CTU3E_get_Current_m9057020_gshared
rDf:__ZL143U3CU3Ec__CompilerGenerated1_t1117331131_CustomAttributesCacheGenerator_U3CU3Ec__CompilerGenerated1_U3CRegisterBaseImportersU3Ec__18_m2879996707P21CustomAttributesCache
F$d:_GraphicRaycaster__ctor_m646559428
XEe:_CipherSuite_get_CipherAlgorithmType_m137858741
s3i:__ZL25UnresolvedVirtualCall_121P12Il2CppObjectiPK10MethodInfo
Ved:_BitArrayEnumerator_get_Current_m4220391712
KVf:__ZL114StandaloneInputModule_t2760469101_CustomAttributesCacheGenerator_StandaloneInputModule_ForceAutoSelect_m2837047882P21CustomAttributesCache
Gpe:__Z37il2cpp_codegen_get_executing_assemblyPK10MethodInfo
w5e:_Collection_1_System_Collections_IList_Remove_m3686118478_gshared
NWb:__ZN9Transform23VirtualRedirectTransferER17RemapPPtrTransfer
y9e:_IPAddress_get_ScopeId_m4237202723
Qxe:_X509Certificate_GetUnsignedBigInteger_m1025066663
Wvi:_ExpressionCollection_get_Item_m3510736379
s4c:_ASCIIEncoding_GetByteCount_m1773359527
D0g:_GUISkin_OnEnable_m2298707507
rTd:_StandaloneInputModule_get_inputActionsPerSecond_m3946624274
Kug:_UTF8Encoding_InternalGetCharCount_m82458470
iLh:__Z155RuntimeInvoker_Vector2_t2156229523_BoundsU26_t1628302554_BoundsU26_t1628302554_SByte_t1669577662_SByte_t1669577662_Int32_t2950945753_Vector2U26_t2376273893PK10MethodInfoPvPS2_
b1b:__ZZL23RegisterLightPropertiesR22GenericPropertyBindingEN22Wrapper_LightIntensity13GetFloatValueEPv
ynh:_InternalEnumerator_1_MoveNext_m2734554195_AdjustorThunk
lxj:__ZN14dense_hash_mapI10KeyWrapperIP14Il2CppIUnknownEjN6il2cpp5utils11PointerHashIS1_EENS3_14EqualsComparerINSt3__28equal_toIS2_EEEENS9_9allocatorINS9_4pairIKS3_jEEEEE15set_deleted_keyERSF_
W4:__ZN22BuiltinResourceManager16StaticInitializeEPv
utj:__ZN6il2cpp2gc9AllocatorIP12Il2CppThreadE10deallocateEPvj
i8b:__ZN9Scripting39GetScriptingArrayStringElementNoRefImplE17ScriptingArrayPtri
Hze:_DelegatePInvokeWrapper_AppDomainInitializer_t682969308
U3:__ZN8Remapper6RemoveEi
jRi:_UnityEvent_1__ctor_m3777630589_gshared
ZIa:__ZN10MemoryFile4ReadEyPvPy
ebj:__ZN15dense_hashtableINSt3__24pairIK10KeyWrapperI13dynamic_arrayIPK10Il2CppTypeLj4EEEPFvvEEES8_N6il2cpp8metadata19Il2CppSignatureHashEN14dense_hash_mapIS8_SB_SF_NS8_14EqualsComparerINSE_22Il2CppSignatureCompareEEENS0_9allocatorISC_EEE9SelectKeyESJ_SL_E12maybe_shrinkEv
Grg:_Encoding_GetBytes_m3148649984
Lxc:__ZL36CleanupTextRenderingScriptingClassesv
N1a:__ZN15ReflectionProbe17UseRendererResultEP13ProbeRenderer
tdc:__Z34Mesh_CUSTOM_SetArrayForChannelImplP12Il2CppObject30InternalScriptingShaderChannel34InternalScriptingVertexChannelTypeiP11Il2CppArrayi
hZ:__Z32scripting_class_get_nested_types17ScriptingClassPtrRNSt3__26vectorIS_13stl_allocatorIS_L18MemLabelIdentifier1ELi16EEEE
_Bg:_UInt64_System_IConvertible_ToDecimal_m806594027_AdjustorThunk
L3f:_Enumerator_get_CurrentValue_m3103267885_gshared
GVe:_List_1__ctor_m3395838871_gshared
O$h:_Collection_1_IsFixedSize_m3698021882_gshared
Ifg:_DefaultComparer_GetHashCode_m2651362016_gshared
pAi:_PKCS12__ctor_m1854440921
JJd:_Array_Resize_TisCustomAttributeNamedArgument_t287865710_m885566878_gshared
QSc:__ZZN18UnityConnectClient23RegisterGlobalCallbacksEvEN41EarlyUpdateUnityConnectClientUpdatestruct7ForwardEv
peg:_DefaultComparer__ctor_m2556554241_gshared
Qah:_Rect_Equals_m866904981_AdjustorThunk
tB:__ZN11UnityEngine9Animation28GenericAnimationBindingCache25RegisterIAnimationBindingEPKN5Unity4TypeEiP17IAnimationBinding
FE:__Z106Register_UnityEngine_Experimental_Director_AnimatorControllerPlayable_INTERNAL_CALL_GetLayerWeightInternalv
gOc:__Z70RectTransformUtility_CUSTOM_INTERNAL_CALL_RectangleContainsScreenPointP12Il2CppObjectRK13Vector2fIcallS0_
LPe:_Enumerator_System_Collections_IEnumerator_get_Current_m472556657_AdjustorThunk
Oth:__Z52RuntimeInvoker_Decimal_t2948259380_Int16_t2552820387PK10MethodInfoPvPS2_
Pef:_X509ExtensionCollection_get_SyncRoot_m2667861032
H6i:__ZN6il2cpp2vm5Class15GetElementClassEP11Il2CppClass
bKi:_JsonData_get_IsString_m2181423555
eYh:_Collection_1_SetItem_m941095285_gshared
Q$a:__Z40ProcessCameraIndexListIsNodeVisibleInOutRK22SceneCullingParametersPK9SceneNodePK4AABBR9IndexList
ujb:__ZN16GraphicsSettings8TransferI17RemapPPtrTransferEEvRT_
GLc:__ZN2UI6Canvas13UpdateBatchesEb
H$e:_List_1_AddCollection_m2705322374_gshared
ski:_AnimatorControllerPlayable_INTERNAL_CALL_ResolveHashInternal_m2137298807
bqi:_ConfigHandler_ValidatePath_m3895556516
voa:__ZN7Texture19SupportsAsyncUploadI19StreamedBinaryWriteILb0EEEEbRT_
xZj:_glGetShaderInfoLog__wrapper
usa:__ZNK13GfxDeviceGLES12GetWireframeEv
i$i:_Cmn_function_MessageWrongApproach_m2704359981
BQc:__ZN11UnityEngine7Connect13ConfigHandler12GetListenersERKN4core12basic_stringIcNS2_20StringStorageDefaultIcEEEE
Mta:__ZN9GfxDevice18AllocRenderSurfaceEb
Qad:_Char__cctor_m2787437263
wXb:__ZN10TagManager32GetSortingLayerUniqueIDFromValueEi
n4e:_Collection_1_GetEnumerator_m517455806_gshared
FUd:_AspectRatioFitter_get_rectTransform_m2996235303
I0e:_List_1_AddRange_m705206751_gshared
w6d:_DateTimeFormatInfo_get_IsReadOnly_m1173781646
a9d:_NumberFormatInfo_get_PercentPositivePattern_m1800841633
C$d:_Graphic_UnregisterDirtyMaterialCallback_m2707090617
l1f:_Comparer_1_System_Collections_IComparer_Compare_m1313384821_gshared
f6d:_LayoutRebuilder_GetHashCode_m1943075341
Zqe:_SimpleCollator_MatchesPrimitive_m3079388596
idc:__Z26AnimationCurve_CUSTOM_InitP12Il2CppObjectP11Il2CppArray
$0j:_glUniform1uiv__wrapper
kpj:__ZN6il2cpp2vm10Reflection7IsEventEP12Il2CppObject
Hcj:__ZNSt3__26__treeINS_12__value_typeIPFvvEPK10MethodInfoEENS_19__map_value_compareIS3_S7_NS_4lessIS3_EELb1EEENS_9allocatorIS7_EEE16__insert_node_atEPNS_16__tree_node_baseIPvEERSI_SI_
w0:__ZN17PersistentManager26GetStreamNameSpaceInternalEi
J_g:_GUIContent__cctor_m2576151643
aG:__ZN4FMOD6System11createSoundEPKcjP22FMOD_CREATESOUNDEXINFOPPNS_5SoundE
Mn:FUNCTION_TABLE_iiifiiii
FGd:_Array_InternalArray__ICollection_CopyTo_TisRaycastHit_t1056001966_m1648691138_gshared
Lod:_DateTime_System_IConvertible_ToDecimal_m1044850612
nVe:_List_1_IndexOf_m2206067159_gshared
Ofh:_InternalEnumerator_1_System_Collections_IEnumerator_Reset_m1318888374_AdjustorThunk
K_:__ZN9ShaderLab19CommonPropertyNames13StaticCleanupEPv
fFg:_Module_IsResource_m553227372
F1:__Z31scripting_method_get_returntype18ScriptingMethodPtr
$$i:_Panel_MainScene_ButtonClick_setMyInfo_m2027321719
Jpb:__ZN15SerializeTraitsI12LightmapDataE8TransferI24GenerateTypeTreeTransferEEvRS0_RT_
lOa:_unity_z_zcfree
FJi:_ImporterFunc_BeginInvoke_m2499074257
CNf:__ZL84Canvas_t3310196443_CustomAttributesCacheGenerator_Canvas_get_worldCamera_m2289553767P21CustomAttributesCache
c5b:__ZN4Mesh5SetUvEiPKfjj
ema:__ZN7Texture13SetAnisoLimitENS_20AnisotropicFilteringE
vma:__ZN28LightProbeProxyVolumeManager25UpdateSHCoeffsTextureDataER21LightProbeProxyVolume
NHa:__Z18CreateDecompressor15CompressionType18MemLabelIdentifier
dN:__ZN11AudioModule16SetListenerPauseEb
mLi:_JsonWriter_Indent_m206263886
T7c:_Attribute_IsDefined_m4069052474
Kh:_emscripten_glCompressedTexSubImage2D
dCa:__ZN13GfxDeviceGLES22MemoryBarrierImmediateEyN2gl17MemoryBarrierTypeE
fSh:__Z41RuntimeInvoker_X509ChainStatus_t133602714PK10MethodInfoPvPS2_
P4d:_U3CCaretBlinkU3Ec__Iterator0_Dispose_m860898205
Fja:__ZN6prcoreL26RemapGenericFloatToIntegerI18TexFormatARGBFloat17TexFormatARGB8888EEvPKNS_9InnerInfoE
a2e:_List_1_set_Capacity_m1977188119_gshared
LXb:__ZN6Object27GetOffsetOfInstanceIdMemberEv
TGc:_cff_ps_has_glyph_names
rZd:_DropdownItem_get_rectTransform_m3147806615
H7g:_MonoBehaviour_StopCoroutine_m1038915083
Tdg:_Dictionary_2_Resize_m3287623642_gshared
yIj:_GC_write
AVc:_RC2_Create_m2516417038
WDf:__ZL95AsyncOperation_t1445031843_CustomAttributesCacheGenerator_AsyncOperation_get_isDone_m2309912918P21CustomAttributesCache
m$d:_Graphic_OnPopulateMesh_m767318148
RUc:_HMACSHA512_set_ProduceLegacyHmacValues_m3961135292
Y9f:_Dictionary_2_Remove_m4193450060_gshared
jte:_ASN1_get_Tag_m1032367219
Ksi:_ConstructionCallDictionary__ctor_m2541174073
HId:_Array_InternalArray__set_Item_TisMark_t3471605523_m1299772331_gshared
Hmc:__Z44Register_UnityEngine_GUIStyle_SetDefaultFontv
fEj:__GLOBAL__sub_I_ThreadImpl_cpp
ULb:__Z18Transfer_BlittableI18StreamedBinaryReadILb1EELb1EiEvRK29SerializationCommandArgumentsR31RuntimeSerializationCommandInfo
Ds:__ZN9BlobWrite8TransferI22OffsetPtrArrayTransferIKN4math7_float3EEEEvRT_PKc17TransferMetaFlags
AXe:_List_1__ctor_m2576108087_gshared
$nj:__ZN15dense_hashtableINSt3__24pairIK10KeyWrapperINS1_IPK12PropertyInfoP11Il2CppClassEEEjEES9_17ReflectionMapHashIS8_EN14dense_hash_mapIS9_jSD_NS9_14EqualsComparerINS0_8equal_toIS8_EEEENS0_9allocatorISB_EEE9SelectKeyESI_SK_E12maybe_shrinkEv
vHh:__Z93RuntimeInvoker_Void_t1185182177_PlayableHandleU26_t4060785685_Il2CppObject_Single_t1397266774PK10MethodInfoPvPS2_
RAi:_X509Certificate_get_DSA_m565099499
kMb:__Z18Transfer_BlittableI18StreamedBinaryReadILb1EELb1EsEvRK29SerializationCommandArgumentsR31RuntimeSerializationCommandInfo
Q9h:_AnimatorControllerParameter_Equals_m1144065427
Wy:__ZN26AnimatorControllerPlayable17IsMultithreadableEv
atg:_StringBuilder_Remove_m940064945
e1g:_GUISkin_get_toggle_m2846139992
Gqg:_DESCryptoServiceProvider_GenerateIV_m683687014
bZi:_GenericComparer_1__ctor_m1900257738_gshared
XPf:__ZL86GUIStyle_t3956901511_CustomAttributesCacheGenerator_GUIStyle_get_fixedHeight_m39396328P21CustomAttributesCache
ari:_Context_NotifyDynamicSinks_m1841702879
jma:__ZL21SetAnisoLimitEnumImplN7Texture20AnisotropicFilteringEb
dPc:__ZN22BaseUnityConnectClient17OnEnterStateReadyEv
hzg:_Type_GetTypeHandle_m1526957577
YYg:_Text_get_fontSize_m1677872538
$qg:_DSACryptoServiceProvider_get_PublicOnly_m3933928860
nCf:__ZL63X509ChainStatusFlags_t1026973125_CustomAttributesCacheGeneratorP21CustomAttributesCache
cjb:__ZN14GrowableBufferD2Ev
Ccc:__Z29Input_CUSTOM_GetMouseButtonUpi
pWg:_ScrollRect_CalculateLayoutInputHorizontal_m1852828502
Zgj:__ZN6il2cpp6icalls8mscorlib6System8MonoType16InternalGetEventEP20Il2CppReflectionTypeP12Il2CppStringi
Lli:_RenderPipelineManager_set_currentPipeline_m640037081
MDh:__Z104RuntimeInvoker_Int32_t2950945753_Int32_t2950945753_Int32_t2950945753_Int32_t2950945753_Int32_t2950945753PK10MethodInfoPvPS2_
CAc:_UNITY_tt_face_load_maxp
Ncc:__Z46Input_CUSTOM_INTERNAL_set_compositionCursorPosRK13Vector2fIcall
Yt:__ZN7mecanim5human12FullBodyMaskEv
L$f:__ZL62Shadow_t773074319_CustomAttributesCacheGenerator_m_EffectColorP21CustomAttributesCache
Ore:_BigInteger_ToString_m3475000413
j_:__ZN19ShaderPropertySheet11ComputeHashEv
raj:__ZN30dense_hashtable_const_iteratorI10KeyWrapperIPK19Il2CppGenericMethodES4_N6il2cpp8metadata23Il2CppGenericMethodHashEN14dense_hash_setIS4_S7_NS4_14EqualsComparerINS6_26Il2CppGenericMethodCompareEEENSt3__29allocatorIS4_EEE8IdentityESB_SE_EppEv
DYd:_Resources_t1597885468_marshal_pinvoke_cleanup
ZMb:__ZN4PPtrI6ObjectE8TransferI18StreamedBinaryReadILb1EEEEvRT_
S2g:_GUIStyle_Draw_m3718413813
rxi:_Group__ctor_m2980794822
YBi:_X509CertificateCollection_get_Item_m1033426577
Di:_llvm_fabs_f32
UP:__ZN11UnityEngine15CloudWebService16SessionContainer16GetJsonDataBlockEjRKN4core12basic_stringIcNS2_20StringStorageDefaultIcEEEERS6_PjSA_
nRh:__Z49RuntimeInvoker_Slot_t3975888750_Int32_t2950945753PK10MethodInfoPvPS2_
uMi:_U3CU3Ec__CompilerGenerated1_U3CRegisterBaseImportersU3Ec__23_m1517022826
ggj:__ZNK6il2cpp5utils10functional6FilterINSt3__212basic_stringIcNS3_11char_traitsIcEENS3_9allocatorIcEEEENS0_11StringUtils21CaseSensitiveComparerEEclIPKcEEbRKT_
fte:_ASN1_Decode_m1695284166
pXh:_Collection_1_RemoveAt_m2240641437_gshared
Qud:_Enum_ToString_m3248653065
mOd:_Object_Instantiate_TisIl2CppObject_m2446893047_gshared
OKh:__Z65RuntimeInvoker_Int32_t2950945753_Vector2_t2156229523_Il2CppObjectPK10MethodInfoPvPS2_
M0:__ZN14SafeBinaryReadD2Ev
DAd:_SetPropertyUtility_SetStruct_TisFillMethod_t1167457570_m4164776730_gshared
ugg:_EqualityComparer_1_System_Collections_IEqualityComparer_Equals_m2723224279_gshared
xYb:__Z13RegisterClassI7TextureEvv
FRe:_Enumerator_MoveNext_m3859993671_gshared
rNb:__ZN8Gradient8TransferI18StreamedBinaryReadILb1EEEEvRT_
FBe:_SequentialSearchPrimeGeneratorBase_IsPrimeAcceptable_m1127740833
hff:_Capture__ctor_m3103117740
wTh:__Z55RuntimeInvoker_Int32_t2950945753_ColorBlock_t2139031574PK10MethodInfoPvPS2_
M9h:_Animator_ResetTriggerString_m1083629800
rmc:__Z45Register_UnityEngine_GUIStyle_SetFontInternalv
w0f:__ZL118Panel_ForgotPassword_t486507224_CustomAttributesCacheGenerator_Panel_ForgotPassword_U3CresetPasswordU3Em__1_m422245879P21CustomAttributesCache
L6i:__ZN6il2cpp2vmL17SetupEventsLockedEP11Il2CppClassRKNS_2os12FastAutoLockE
ywj:__ZN6il2cpp6icalls8mscorlib6System4Type15MakeGenericTypeEP20Il2CppReflectionTypeP11Il2CppArray
cDh:__Z43RuntimeInvoker_AlertDescription_t1549755611PK10MethodInfoPvPS2_
Xbi:_Bounds_op_Equality_m3976187280
bj:_SDL_PauseAudio
OLh:__Z78RuntimeInvoker_Single_t1397266774_Il2CppObject_Il2CppObject_Single_t1397266774PK10MethodInfoPvPS2_
Vgd:_Hashtable_Clone_m3078962909
Shj:_il2cpp_class_from_type
Xij:__ZN6il2cpp2os4File11GetStdErrorEv
ryf:__ZL77Convert_t2465617642_CustomAttributesCacheGenerator_Convert_ToSByte_m516918950P21CustomAttributesCache
J_:__ZN9ShaderLab19CommonPropertyNames16StaticInitializeEPv
jwc:__ZNSt3__26__treeIN20TextRenderingPrivate8FontImpl15TexturePositionENS_4lessIS3_EE13stl_allocatorIS3_L18MemLabelIdentifier34ELi16EEE7destroyEPNS_11__tree_nodeIS3_PvEE
Pqa:__ZN17ShaderPassContext8CopyFromERKS_
Pka:__ZN13MemoryManager31DisallowAllocationsOnThisThreadEv
upi:_CrossContextChannel__ctor_m3755842292
jA:__ZN7mecanim9animation18CreateAvatarOutputEPKNS0_14AvatarConstantEbbRNS_6memory9AllocatorE
Rmc:__Z45GUIUtility_CUSTOM_Internal_GetKeyboardControlv
LXg:_Slider_set_maxValue_m2251404465
uYg:_SpriteState_get_pressedSprite_m3868967445_AdjustorThunk
uqh:_Comparer_1__ctor_m2355575030_gshared
mth:__Z49RuntimeInvoker_Void_t1185182177_Double_t594665363PK10MethodInfoPvPS2_
Zsb:__ZN14Texture2DArray23VirtualRedirectTransferER14SafeBinaryRead
hme:_MissingMemberException__ctor_m1220732369
RWa:__ZNK6Camera21CalculateCanDoShadowsEv
WDj:__ZN6il2cpp2os6Thread12SetStackSizeEj
cSg:_MaskableGraphic_RecalculateMasking_m183336762
bAb:__ZNK20ArchiveStorageReader15HasStreamBlocksEv
sMg:_TypeBuilder_IsSubclassOf_m3458909121
t5b:__ZNK8Renderer16IsVisibleInSceneEv
JRi:_UnityEvent_1_GetDelegate_m1196210497_gshared
gW:__Z13VFormatBufferPciPKcz
jOb:__Z18Transfer_BlittableI18StreamedBinaryReadILb0EELb1EhEvRK29SerializationCommandArgumentsR31RuntimeSerializationCommandInfo
rye:_X509Certificate__cctor_m198658613
vIf:__ZL99Sprite_t280657092_CustomAttributesCacheGenerator_Sprite_get_associatedAlphaSplitTexture_m3995405540P21CustomAttributesCache
Jja:__ZN6prcoreL27StretchGenericFloatBilinearI15TexFormatRFloatEEvPKNS_9InnerInfoE
IBe:_PrimalityTests_GetSPPRounds_m2558073743
qUh:__Z82RuntimeInvoker_Il2CppObject_AnimatorClipInfo_t3156717155_Il2CppObject_Il2CppObjectPK10MethodInfoPvPS2_
VBf:__ZL139ServicePointManager_t170559685_CustomAttributesCacheGenerator_ServicePointManager_t170559685____CheckCertificateRevocationList_PropertyInfoP21CustomAttributesCache
pbh:_RectTransform_get_pivot_m1676241928
avd:_Enum_ToObject_m1628250250
j0e:_List_1_set_Item_m2057272351_gshared
Shi:_AnimationClipPlayable__ctor_m1749856595
nAa:__Z14PadImageBorderR14ImageReferenceii
Emj:__ZN15dense_hashtableINSt3__24pairIK10KeyWrapperINS1_IPK10MethodInfoP11Il2CppClassEEEjEES9_17ReflectionMapHashIS8_EN14dense_hash_mapIS9_jSD_NS9_14EqualsComparerINS0_8equal_toIS8_EEEENS0_9allocatorISB_EEE9SelectKeyESI_SK_E4findERSA_
Bdj:__ZN6il2cpp2vm13MetadataCache28GetFieldDefaultValueForFieldEPK9FieldInfo
X_i:_Button_ForgotPassword_OpenForgotPasswordScene_m2315177010
hDd:_Array_IndexOf_TisUIVertex_t4057497605_m3336763564_gshared
ny:__ZN27AnimationLayerMixerPlayableD2Ev
OWd:_ColorBlock_Equals_m518833916_AdjustorThunk
iSf:__ZL66PersistentCall_t3407714124_CustomAttributesCacheGenerator_m_TargetP21CustomAttributesCache
$H:__ZN12AudioManager39HandlePendingAudioConfigurationCallbackEv
Zj:_emscripten_glIsFramebuffer
bDa:__ZNK13TranslateGLES9GetFormatE13TextureFormat17TextureColorSpace
i2b:__ZN12_GLOBAL__N_16qAtan2Eff
swg:_ThreadAbortException__ctor_m1955533141
bk:_JS_Sound_SetLoopPoints
A$h:_Collection_1_Insert_m2198700796_gshared
SL:__ZN12AudioManager17ShouldSourcePauseEb
bNj:__ZN6il2cpp2vm26MetadataAllocGenericMethodEv
Zzd:_Array_InternalArray__ICollection_Remove_TisUInt16_t2177724958_m1766181761_gshared
GEa:__ZN19ConstantBuffersGLES12RecordRenderEv
gUg:_Scrollbar_get_axis_m664270947
Coa:__ZN18AsyncUploadManager22UploadStreamingTextureEP28FileTextureUploadInstruction
xpc:__ZN9JSONWrite8TransferI10RectOffsetEEvRT_PKc17TransferMetaFlags
LTf:__ZL51Cmn_Func_t1311981284_CustomAttributesCacheGeneratorP21CustomAttributesCache
Vza:__ZN4crnd12symbol_codec11decode_bitsEj
BDe:_EncryptedPrivateKeyInfo__ctor_m3415744930
lFc:_cf2_doFlex
Qaf:_AsnEncodedData__ctor_m3792312694
Mbh:_RectTransformUtility_GetTransposed_m440700723
kUi:_AesManaged_GenerateIV_m1368817386
t2b:__ZN21FixedBehaviourManagerD0Ev
tlb:__ZN10Matrix3x4f8TransferI24GenerateTypeTreeTransferEEvRT_
CYb:__Z13RegisterClassI15QualitySettingsEvv
eI:__ZN4FMOD6System12createReverbEPPNS_6ReverbE
WGj:__ZN6il2cpp2vm6String21InitializeEmptyStringEP11Il2CppClass
vpg:_CodeAccessPermission_GetHashCode_m880096813
kii:_AnimationClipPlayable_set_removeStartOffset_m2747487870
Rka:__Z16MarkDependenciesR27GarbageCollectorThreadStatej
iFg:_AssemblyConfigurationAttribute__ctor_m3236176989
yIi:_Vector4_ToString_m592115335
CTi:_ObjectPool_1_get_countInactive_m526975942_gshared
Mjg:_RemotingServices_DisposeIdentity_m2605848806
E_:__ZNK9Transform11GetPositionEv
yhe:_WriteDelegate_EndInvoke_m952736984
REi:_TextGenerator_Dispose_cpp_m3030344874
dae:_GuidParser_Reset_m2640004655
mRa:__ZN23SharedMeshRenderingData18UnloadVertexStreamEi
S2b:__ZN31CanvasBatchIntermediateRenderer11AddSubBatchERK16DrawBuffersRangePK19ShaderPropertySheet
s1b:__ZN19RenderEventsContextC2Ei
gO:__Z6simd4fRKf
PJf:__ZL67SceneManager_t2787271929_CustomAttributesCacheGenerator_sceneLoadedP21CustomAttributesCache
z8d:_GregorianCalendar_GetEra_m2369958449
uog:_RuntimeTypeHandle_GetObjectData_m1599302095_AdjustorThunk
Ek:_emscripten_glEnable
Xih:_InternalEnumerator_1_System_Collections_IEnumerator_get_Current_m2982675020_gshared
Bgb:__ZN10TagManager23VirtualRedirectTransferER14SafeBinaryRead
EYf:__ZL51RawImage_t3182918964_CustomAttributesCacheGeneratorP21CustomAttributesCache
wGi:_Transform_get_parent_m1293647796
KGi:_Transform_IsChildOf_m98488483
Yzc:_UNITY_FT_Init_Class_ft_grays_raster
q$h:_Collection_1_System_Collections_IList_get_Item_m2931804586_gshared
mjg:_ObjRef_get_EnvoyInfo_m1782007847
LXe:_List_1_System_Collections_ICollection_get_IsSynchronized_m3331050698_gshared
JZa:__Z15InitLightMeshesv
dOg:_MonoCMethod_ToString_m3992577062
Klf:__ZL76MarshalAsAttribute_t3522571978_CustomAttributesCacheGenerator_MarshalTypeRefP21CustomAttributesCache
qVi:_PASDK_setUserPlay_m2959533724
Flb:__Z13TransferArrayILi4Ei19StreamedBinaryWriteILb0EEEjRAT__T0_PKcRT1_
g6h:_ReadOnlyCollection_1_System_Collections_IList_Contains_m2904046095_gshared
WPa:__ZN22RenderingCommandBuffer36AcquireAndRegisterSharedMaterialDataEP8Material
ZOf:__ZL56GUISkin_t1244372282_CustomAttributesCacheGenerator_m_boxP21CustomAttributesCache
lRg:_LayoutUtility_U3CGetFlexibleHeightU3Em__7_m2991026842
wKb:__Z18Transfer_BlittableI19StreamedBinaryWriteILb0EELb1E8Vector2fEvRK29SerializationCommandArgumentsR31RuntimeSerializationCommandInfo
TEc:_cf2_arrstack_init
DNd:_Array_InternalArray__get_Item_TisResourceCacheItem_t51292791_m1306056717_gshared
XPd:_EventSystem_get_pixelDragThreshold_m1103650852
PT:__Z15CleanLogHandler7LogTypePKcz
Moe:_NumberFormatter_NumberToString_m2481532188
UTb:__ZN9ShaderLab19SerializedSubShader8TransferI19StreamedBinaryWriteILb0EEEEvRT_
NVg:_ScrollRect_InternalGetBounds_m599803667
zJh:__Z66RuntimeInvoker_Boolean_t97287965_Rect_t2360479859_Rect_t2360479859PK10MethodInfoPvPS2_
jCb:__ZN6Camera17RemoveImageFilterERK11ImageFilter
FBa:__ZNSt3__218__insertion_sort_3IR25ValueParameterArraySorterPN20GpuProgramParameters14ValueParameterEEEvT0_S6_T_
JBf:__ZL67EditorBrowsableAttribute_t1475454531_CustomAttributesCacheGeneratorP21CustomAttributesCache
Qfd:_Comparer__cctor_m3311686689
zMc:__ZZN2UI11CanvasGroup15InitializeClassEvEN38FunctorImpl_117kTransformParentChanged4CallEPviR11MessageData
oUd:_UIBehaviour_OnDidApplyAnimationProperties_m2143584361
UQa:__ZNSt3__214__split_bufferI20ComputeShaderVariantRNS_9allocatorIS1_EEED2Ev
_Ui:_U3CU3Ec__DisplayClass14__ctor_m3862604776
Xuc:__ZNSt3__26vectorIN4core12basic_stringIcNS1_20StringStorageDefaultIcEEEE13stl_allocatorIS5_L18MemLabelIdentifier34ELi16EEE7reserveEj
X8e:_HttpWebRequest_get_Address_m2672661563
pyg:_TimeZone__ctor_m1831364098
zih:_InternalEnumerator_1_get_Current_m3500427238_AdjustorThunk
mMc:__ZN2UI26InitializeDeviceForOverlayEi
Z_:__Z27LogRepeatingStringWithFlagsRKN4core12basic_stringIcNS_20StringStorageDefaultIcEEEE15LogMessageFlagsi
jCg:_UInt64_System_IConvertible_ToSingle_m925613075
zw:__ZNK8Playable11GetDurationEv
bvd:_Enum_IsDefined_m1442314461
Tvg:_Thread__cctor_m817723615
Tw:__ZN17AnimationPlayable28ComputeNeedsBindingRebuildedEv
c8g:_U3CInvokeMessageIdSubscribersU3Ec__AnonStorey0_U3CU3Em__0_m1890366417
yGg:_CustomAttributeNamedArgument_GetHashCode_m2317130892
vOi:_Predicate_1_EndInvoke_m3884403745_gshared
X4c:_DecoderReplacementFallbackBuffer_Fallback_m1261056214
f0g:_GUILayoutUtility_LayoutSingleGroup_m1507249238
abj:__ZNK15dense_hashtableINSt3__24pairIK10KeyWrapperI13dynamic_arrayIPK10Il2CppTypeLj4EEEPFvvEEES8_N6il2cpp8metadata19Il2CppSignatureHashEN14dense_hash_mapIS8_SB_SF_NS8_14EqualsComparerINSE_22Il2CppSignatureCompareEEENS0_9allocatorISC_EEE9SelectKeyESJ_SL_E12test_deletedERK30dense_hashtable_const_iteratorISC_S8_SF_SN_SJ_SL_E
hyb:__ZN15ResourceManagerD0Ev
LFg:_Binder_get_DefaultBinder_m950908649
qge:_StreamReader__ctor_m1616861391
nxf:__ZL59ArgumentException_t132251570_CustomAttributesCacheGeneratorP21CustomAttributesCache
ARc:__ZN18UnityConnectClient33OnPlayerSessionStateChangedStaticEPS_jyy
eXc:_RSA_ToXmlString_m2922661427
NLf:__ZL128AnimatorControllerPlayable_t1397024487_CustomAttributesCacheGenerator_AnimatorControllerPlayable_CrossFade_m4196440651____layer2P21CustomAttributesCache
exa:__ZN7ApiGLES4LoadE16GfxDeviceLevelGL
Wpb:__ZN18StreamedBinaryReadILb0EE21TransferSTLStyleArrayI13dynamic_arrayI31EnlightenSystemAtlasInformationLj8EEEEvRT_17TransferMetaFlags
YQf:__ZL140AttributeHelperEngine_t2735742303_CustomAttributesCacheGenerator_AttributeHelperEngine_GetParentTypeDisallowingMultipleInclusion_m3140293344P21CustomAttributesCache
pzg:_Type_GetMethod_m1479779718
MOf:__ZL61GUIContent_t3050628031_CustomAttributesCacheGenerator_m_ImageP21CustomAttributesCache
Vtc:__ZN5physx15PxErrorCallbackD2Ev
Vyj:__ZN15dense_hashtableI10KeyWrapperIP18Il2CppGenericClassES3_N6il2cpp8metadata22Il2CppGenericClassHashEN14dense_hash_setIS3_S6_NS3_14EqualsComparerINS5_25Il2CppGenericClassCompareEEENSt3__29allocatorIS3_EEE8IdentityESA_SD_E15insert_noresizeERKS3_
Q$b:__ZZL31RegisterOtherRendererPropertiesR22GenericPropertyBindingEN30Wrapper_RendererReceiveShadows13GetFloatValueEPv
wyd:_Array_InternalArray__ICollection_Contains_TisSlot_t384495010_m688761886_gshared
xLh:__Z69RuntimeInvoker_TextGenerationSettings_t1351628751_Vector2_t2156229523PK10MethodInfoPvPS2_
U9:__ZN8Material11SetPassFastEPN9ShaderLab4PassER17ShaderPassContextP6Shaderib
Q5a:__ZNK13ScreenManager13GetLockCursorEv
yRc:__ZN11UnityEngine7Connect20BasePersistentValues10SaveValuesER9JSONWrite
VYh:_Collection_1_IsFixedSize_m3748602684_gshared
Nod:_DateTime_System_IConvertible_ToDouble_m2116720007
rTh:__Z112RuntimeInvoker_Boolean_t97287965_CustomAttributeNamedArgument_t287865710_CustomAttributeNamedArgument_t287865710PK10MethodInfoPvPS2_
fxg:_WaitHandle_WaitOne_m2577152516
rQh:__Z69RuntimeInvoker_Void_t1185182177_Int32_t2950945753_TimeSpan_t881159249PK10MethodInfoPvPS2_
Exe:_X509Certificate_PEM_m1177570576
cuf:__ZL46DSA_t2386879874_CustomAttributesCacheGeneratorP21CustomAttributesCache
idh:_ArrayReadOnlyList_1_GetEnumerator_m1835926958_gshared
p9g:_Quaternion_Equals_m1217639185_AdjustorThunk
CTa:__Z12SetupLODFadeR9GfxDeviceR17ShaderPassContextf
rlf:__ZL69Type_t_CustomAttributesCacheGenerator_Type_GetConstructors_m576905011P21CustomAttributesCache
wZa:__ZL24CollectForwardObjectsJobP27CollectForwardObjectsHeader
tY:__ZN8Playable13SetGameObjectEP10GameObject
Vcj:__ZNK15dense_hashtableINSt3__24pairIK10KeyWrapperIPK11Il2CppClassEPKcEES6_N6il2cpp5utils11PointerHashIS3_EEN14dense_hash_mapIS6_S9_SE_NS6_14EqualsComparerINS0_8equal_toIS5_EEEENS0_9allocatorISA_EEE9SelectKeyESJ_SL_E12test_deletedERK24dense_hashtable_iteratorISA_S6_SE_SN_SJ_SL_E
c1a:__ZNK25CameraStackRenderingState24ResolveTempToEyeTexturesEv
o$a:__Z13IsNodeVisibleRK9SceneNodeRK4AABBRK22SceneCullingParameters
QDd:_Array_InternalArray__IndexOf_TisLabelFixup_t858502054_m1491765395_gshared
EJe:_TlsServerSettings_set_CertificateRequest_m1039729760
Bqe:_SortKeyBuffer_AppendCJKExtension_m2591091991
iOc:__Z57RectTransformUtility_CUSTOM_INTERNAL_CALL_PixelAdjustRectP12Il2CppObjectS0_R5RectTIfE
Eug:_UTF8Encoding_GetByteCount_m4153686982
MKh:__Z46RuntimeInvoker_CharacterValidation_t4051914437PK10MethodInfoPvPS2_
lUh:__Z93RuntimeInvoker_Il2CppObject_Vector4_t3319028937_Vector4_t3319028937_Il2CppObject_Il2CppObjectPK10MethodInfoPvPS2_
X2j:_emscripten_glStencilMask__wrapper
byc:__ZZ29InitializeTextRenderingModulevEN40CleanUpTextRenderingGarbageCollectstruct7ForwardEv
haj:__ZN15dense_hashtableI10KeyWrapperIPK19Il2CppGenericMethodES4_N6il2cpp8metadata23Il2CppGenericMethodHashEN14dense_hash_setIS4_S7_NS4_14EqualsComparerINS6_26Il2CppGenericMethodCompareEEENSt3__29allocatorIS4_EEE8IdentityESB_SE_EC2ERKSH_j
RPa:__ZN15RenderNodeQueue7CleanupEv
WAd:_Array_InternalArray__IEnumerable_GetEnumerator_TisByte_t1134296376_m1979205379_gshared
pKa:__ZNK17ArchiveFileSystem8PositionERK13FileEntryData
Ttc:__ZN16NovodexAllocator8allocateEjPKcS1_i
XYa:__Z17PrepareShadowMapsRK11CullResultsRK11ActiveLightRK10MinMaxAABB
DAi:_DeriveBytes_DeriveIV_m973925711
rce:_Int32_System_IConvertible_ToSByte_m3133688512
s1i:__ZL24UnresolvedVirtualCall_13P12Il2CppObjectaPK10MethodInfo
h6h:_ReadOnlyCollection_1_System_Collections_IList_IndexOf_m848971554_gshared
UOj:__ZN6il2cpp8metadata22Il2CppSignatureCompare6EqualsERK13dynamic_arrayIPK10Il2CppTypeLj4EES8_
AUh:__Z71RuntimeInvoker_Il2CppObject_Color_t2555686324_Il2CppObject_Il2CppObjectPK10MethodInfoPvPS2_
tZa:__ZN9ShaderLab10GrabPassesD2Ev
WVg:_ScrollRect_CalculateOffset_m927043599
itb:__ZN14Texture2DArray13UploadTextureEv
ORg:_MaskableGraphic_UpdateCull_m2805101913
kCc:_tt_cmap14_done
Gla:__ZN18AwakeFromLoadQueue25RegisterObjectInstanceIDsEv
Bag:_Dictionary_2_InitArrays_m778999045_gshared
f5:__ZN15dense_hashtableINSt3__24pairIKiiEEi21InstanceIDHashFunctorN14dense_hash_mapIiiS4_NS0_8equal_toIiEE13stl_allocatorIS3_L18MemLabelIdentifier131ELi16EEE9SelectKeyES7_SA_E9copy_fromERKSD_j
qTd:_StandaloneInputModule_set_forceModuleActive_m2237222402
Tvc:__ZN20TextRenderingPrivate19NativeTextGenerator15InsertCharacterEiPj
CBi:_X509Certificate_get_PublicKey_m950835056
jne:_MonoType_get_attributes_m1332507727
HZe:_List_1_System_Collections_IList_get_IsFixedSize_m203251153_gshared
Dy:__ZN17AnimationPlayableD0Ev
dLb:__Z18Transfer_BlittableI19StreamedBinaryWriteILb0EELb0EyEvRK29SerializationCommandArgumentsR31RuntimeSerializationCommandInfo
Klg:_BinaryCommon__cctor_m2978407547
Wad:_Char_System_IConvertible_ToByte_m2347554595
R5h:_ReadOnlyCollection_1_GetEnumerator_m1017886827_gshared
qmf:__ZL47ASN1_t2114160832_CustomAttributesCacheGeneratorP21CustomAttributesCache
kSi:_IndexedSet_1__ctor_m2250384602_gshared
Zfg:_DefaultComparer__ctor_m1306123661_gshared
NAg:_UInt16_TryParse_m4139137016
iec:__Z41MonoBehaviour_Set_Custom_PropUseGUILayoutP12Il2CppObjecth
Owc:_UNITY_FT_Open_Face
EFj:__ZN6il2cpp2gc16GarbageCollector9FreeFixedEPv
trg:_Encoding__ctor_m2997749867
Pxi:_ExpressionAssertion_Compile_m2166597834
eQb:__ZN16ScriptingManagerD0Ev
c1c:_Single_System_IConvertible_ToSByte_m1208276900_AdjustorThunk
HHj:__ZN6il2cpp6icalls8mscorlib6System7Convert24InternalFromBase64StringEP12Il2CppStringb
aog:_RuntimeFieldHandle_GetObjectData_m95767031_AdjustorThunk
Jrf:__ZL58ChannelServices_t3942013484_CustomAttributesCacheGeneratorP21CustomAttributesCache
lBj:__ZN30dense_hashtable_const_iteratorINSt3__24pairIK10KeyWrapperINS1_IPKcS4_EEEiEES6_24NamespaceAndNamePairHashN14dense_hash_mapIS6_iS9_NS6_14EqualsComparerI26NamespaceAndNamePairEqualsEENS0_9allocatorIS8_EEE9SelectKeyESD_SF_EppEv
Kac:__Z44Register_UnityEngine_Component_get_transformv
h6g:_Mathf_Floor_m3583650842
U9d:_TextInfo_ToLower_m2744057472
GHa:__ZN17ArchiveFileSystem12MountArchiveEPKcS1_
vFh:__Z63RuntimeInvoker_Il2CppObject_Il2CppObject_Vector3U26_t3464235976PK10MethodInfoPvPS2_
IYi:_EqualityComparer_1_System_Collections_IEqualityComparer_Equals_m3977314386_gshared
Hoc:__Z18Transfer_BlittableI9JSONWriteLb1E8Vector4fEvRK29SerializationCommandArgumentsR31RuntimeSerializationCommandInfo
$Y:__Z11RequireTypePKcS0_S0_
pwd:_CCGregorianCalendar_year_from_fixed_m463929682
pHe:_ClientSessionInfo__ctor_m2436192270
Xdd:_ReadOnlyArrayListWrapper_Sort_m2577012511
IIi:_WaitForSecondsRealtime_get_keepWaiting_m2883408337
PCe:_MD2Managed_Initialize_m2341076836
SGf:__ZL83Input_t1431474628_CustomAttributesCacheGenerator_Input_GetMouseButtonUp_m3875270823P21CustomAttributesCache
e6h:_ReadOnlyCollection_1_System_Collections_IList_Add_m4240023232_gshared
dQi:_InvokableCall_1_remove_Delegate_m3978975990_gshared
E_b:__ZN13ProduceHelperI15ResourceManagerLb0EE7ProduceE18MemLabelIdentifier18ObjectCreationMode
Bua:__ZN9GfxDevice15ImmediateVertexEfff
fYb:__Z13RegisterClassI8MaterialEvv
vib:__ZN16GraphicsSettings13AwakeFromLoadE17AwakeFromLoadMode
JRh:__Z55RuntimeInvoker_UILineInfo_t4195266810_Int32_t2950945753PK10MethodInfoPvPS2_
np:__ZN6Object13AwakeFromLoadE17AwakeFromLoadMode
nsa:__ZN13GfxDeviceGLES15SetStencilStateEPK18DeviceStencilStatei
XCd:_Array_IndexOf_TisIl2CppObject_m3944231312_gshared
I9c:_Buffer_BlockCopyInternal_m418318694
tRj:_cycle
LHj:__ZN6il2cpp2vm8Profiler7GCEventE13Il2CppGCEvent
ZAi:_PKCS12_Finalize_m507756088
Ed:_emscripten_glUniform1iv
TYi:_EqualityComparer_1_get_Default_m1095255266_gshared
x8a:__ZN16MemoryFileSystemD2Ev
e8c:_BitConverter_DoubleToInt64Bits_m3574395137
Sxb:__ZN12AspectRatios8TransferI24GenerateTypeTreeTransferEEvRT_
dwc:__Z17dynamic_pptr_castIP9Texture2D7TextureET_RK4PPtrIT0_E
bzf:__ZL77Convert_t2465617642_CustomAttributesCacheGenerator_Convert_ToUInt64_m92315402P21CustomAttributesCache
px:__ZN7mecanim14ValueArrayLoopERKNS_10ValueArrayES2_RS0_fRKNS_14ValueArrayMaskE
HLi:_JsonMapper_ReadValue_m3060360668
FXe:_List_1_System_Collections_IList_Add_m1540114404_gshared
ZRh:__Z30RuntimeInvoker_Slot_t384495010PK10MethodInfoPvPS2_
aqg:_CryptoStream_get_CanWrite_m1675837824
yeh:_InternalEnumerator_1_System_Collections_IEnumerator_Reset_m81420524_AdjustorThunk
nac:__Z37Register_UnityEngine_Camera_get_depthv
ZVh:_Collection_1_IsValidItem_m179868881_gshared
dke:_StringReader_Read_m3322058819
Hpi:_CrossAppDomainChannel_get_ChannelPriority_m3418073750
Lgg:_EqualityComparer_1__ctor_m1860346363_gshared
eXg:_Selectable_StartColorTween_m3618813981
wPd:_BaseInputModule_HandlePointerExitAndEnter_m1705532066
BMg:_EventInfo__ctor_m3033129999
JKf:__ZL107AudioClip_t3680889665_CustomAttributesCacheGenerator_AudioClip_InvokePCMReaderCallback_Internal_m3092652056P21CustomAttributesCache
K7:__ZN15dense_hashtableINSt3__24pairIKPKcPK4RTTIEES3_N11TypeManager23ConstCharPtrHashFunctorEN14dense_hash_mapIS3_S7_SA_NS9_19ConstCharPtrEqualToE13stl_allocatorIS8_L18MemLabelIdentifier6ELi16EEE9SelectKeyESC_SF_E12resize_deltaEjj
D4i:__ZL25UnresolvedVirtualCall_186P12Il2CppObject22UILineInfo_t4195266810S1_PK10MethodInfo
DXb:__ZN15ApplicationInfo16GetInstallerNameEv
i8a:__Z23ConvertIntegerToTypePtrItEbPvR14SafeBinaryRead
Qsd:_Delegate_CombineImpl_m3572135514
U6d:_NumberFormatter_IntegerToString_m1679294587
kYc:_SHA256Managed_AddLength_m1060552216
qch:_SceneManager_Internal_SceneLoaded_m4023393011
w3h:_ReadOnlyCollection_1_System_Collections_IList_RemoveAt_m422909114_gshared
mu:__ZN7mecanim5human29HumanGetGoalOrientationOffsetENS0_4GoalE
Vd:_emscripten_glStencilFunc
Z_f:__ZL78LayoutRebuilder_t541313304_CustomAttributesCacheGenerator_U3CU3Ef__amU24cache2P21CustomAttributesCache
l1i:__ZL23UnresolvedVirtualCall_6P12Il2CppObjectiPK10MethodInfo
q0c:__Z46il2cpp_codegen_get_marshal_directive_exceptionPKc
u2d:_InputField_get_isFocused_m709836844
$d:_glGetActiveUniformBlockName
DUf:__ZL90PointerEventData_t3807901092_CustomAttributesCacheGenerator_U3CpointerIdU3Ek__BackingFieldP21CustomAttributesCache
iD:__ZN26AnimatorControllerPlayable23ValidateParameterStringE17GetSetValueResultRKN4core12basic_stringIcNS1_20StringStorageDefaultIcEEEE
Mci:_Canvas_get_pixelPerfect_m551317767
ddc:__Z39Quaternion_CUSTOM_INTERNAL_CALL_InverseRK11QuaternionfRS_
YI:__ZN4FMOD7Channel20set3DConeOrientationEP11FMOD_VECTOR
lQf:__ZL86GUIStyle_t3956901511_CustomAttributesCacheGenerator_GUIStyle_Internal_Draw_m2730787149P21CustomAttributesCache
bn:FUNCTION_TABLE_iiifii
OGg:_AssemblyBuilder_not_supported_m1735277432
Wmh:_InternalEnumerator_1_MoveNext_m1344185775_AdjustorThunk
kCj:__ZN6il2cpp2vm12GenericClass11SetupEventsEP11Il2CppClass
sIc:_tt_delta_interpolate
dCc:_tt_cmap12_get_info
Oxj:__ZN6il2cpp2vm15ReboxIReferenceEP14Il2CppIUnknownP11Il2CppClass
bRe:_Enumerator__ctor_m2029608698_AdjustorThunk
mvh:__Z120RuntimeInvoker_Void_t1185182177_Il2CppObject_Il2CppObject_ContractionU5BU5DU26_t2277527001_Level2MapU5BU5DU26_t359320357PK10MethodInfoPvPS2_
P0i:__ZN6il2cpp6icalls8mscorlib6System7Decimal14decimalCompareEP19il2cpp_decimal_reprS5_
X9f:_Dictionary_2_OnDeserialization_m4209543208_gshared
ULj:__ZThn4_N6il2cpp2vm13CachedCCWBaseINS0_13ManagedObjectEE7ReleaseEv
oSe:__ZN21InterfaceFuncInvoker0I26KeyValuePair_2_t2530217319E6InvokeEjP11Il2CppClassP12Il2CppObject
uag:_Dictionary_2_System_Collections_IEnumerable_GetEnumerator_m3781236031_gshared
bha:__ZNSt3__26__treeINS_12__value_typeIN9ShaderLab16FastPropertyNameE10ColorRGBAfEENS_19__map_value_compareIS3_S5_NS_4lessIS3_EELb1EEENS_9allocatorIS5_EEE12__find_equalIS3_EERPNS_16__tree_node_baseIPvEENS_21__tree_const_iteratorIS5_PNS_11__tree_nodeIS5_SF_EEiEESI_RKT_
d0j:_glCopyTexImage2D__wrapper
$td:_Double_System_IConvertible_ToUInt32_m271206838
kha:__Z18ClearByDrawingQuad13GfxClearFlagsRK10ColorRGBAffjR17ShaderPassContext
X$f:__ZL113Button_CreateAccount_t3401697708_CustomAttributesCacheGenerator_Button_CreateAccount_U3CSignUpU3Em__1_m1134345854P21CustomAttributesCache
fja:__ZN6prcoreL17RemapGenericFloatI14TexFormatRHalf15TexFormatRFloatEEvPKNS_9InnerInfoE
UFc:_cf2_getBlueValues
pTa:__Z16ShouldUseShadowsb
iY:__ZN15DirectorManager21RebuildStageCallbacksEv
erh:__Z46RuntimeInvoker_UInt32_t2560061978_Il2CppObjectPK10MethodInfoPvPS2_
gka:__ZN19RuntimeSceneManager9LoadSceneERKN4core12basic_stringIcNS0_20StringStorageDefaultIcEEEES6_S6_RK9UnityGUIDiNS_11LoadingModeE
K1i:__ZL24UnresolvedVirtualCall_31P12Il2CppObjectiS0_S0_PK10MethodInfo
IAa:__ZN7ApiGLES10DrawArraysE16GfxPrimitiveTypejjj
oti:_MethodCall_get_TypeName_m3873929301
Xeh:_InternalEnumerator_1_MoveNext_m154749640_gshared
FG:__ZN10SampleClip13LoadBaseSoundEv
fve:_SmallXmlParser_SkipWhitespaces_m4243606597
Ywd:_CompareInfo_IndexOf_m2631915198
q8g:_Object_EnsureRunningOnMainThread_m2049148642
vHg:_ConstructorBuilder_GetCustomAttributes_m2495332786
Gsi:_MethodCall__ctor_m3669645
NQd:_TriggerEvent__ctor_m87299207
CAi:_DeriveBytes_DeriveKey_m2933043667
ztd:_DllNotFoundException__ctor_m3079838043
lAj:__ZN15dense_hashtableINSt3__24pairIK10KeyWrapperIP12Il2CppObjectEN6il2cpp2gc9CachedCCWEEES5_NS7_5utils11PointerHashIS3_EEN14dense_hash_mapIS5_S9_SD_NS5_14EqualsComparerINS0_8equal_toIS4_EEEENS0_9allocatorISA_EEE9SelectKeyESI_SK_E15insert_noresizeERKSA_
GSe:_List_1_Reverse_m2778767433_gshared
MEe:_CertificateValidationCallback2__ctor_m1685875113
YQi:_UnityAction_2_EndInvoke_m3654482891_gshared
Mgg:_EqualityComparer_1__cctor_m3962593840_gshared
jha:__ZN22DeviceMVPMatricesStateC2ER9GfxDevice
LLe:_SslClientStream_Finalize_m1251363641
Wci:_Canvas_GetDefaultCanvasMaterial_m2548556249
Pm:FUNCTION_TABLE_iifii
S9g:_RaycastHit2D_t2279581989_marshal_pinvoke_back
cfd:_Comparer_Compare_m3984347512
zrj:__ZN6il2cpp2vm10Reflection12HasAttributeEP9FieldInfoP11Il2CppClass
pla:__ZNSt3__26__treeIiNS_4lessIiEE13stl_allocatorIiL18MemLabelIdentifier1ELi16EEE7destroyEPNS_11__tree_nodeIiPvEE
hc:invoke_viiifi
RPg:_MonoProperty_GetCustomAttributes_m3619796755
hhj:__ZNSt3__214__split_bufferIP11Il2CppClassRNS_9allocatorIS2_EEEC2EjjS5_
Nli:_RenderPipelineManager_DoRenderLoop_Internal_m2167339710
hhg:_MethodDictionary_System_Collections_IEnumerable_GetEnumerator_m4169036899
kve:__ZN23InterfaceActionInvoker2IP8String_tP12Il2CppObjectE6InvokeEjP11Il2CppClassS3_S1_S3_
bqa:__ZNK11AssetBundle14GetPreloadDataEiR13dynamic_arrayIiLj4EE
nah:_Rect_get_max_m724222499
FWc:_RIPEMD160Managed_JJJ_m4161373884
Rig:_SoapServices_get_XmlNsForClrTypeWithNsAndAssembly_m2954042252
Deg:_DefaultComparer_Equals_m3257444875_gshared
jf:_JS_Sound_SetPosition
nna:__ZNK9Texture3D26CanReuploadDataToGfxDeviceEv
cdj:__ZL13GetSharedInstPK17Il2CppGenericInst
fVf:__ZL98PointerEventData_t3807901092_CustomAttributesCacheGenerator_PointerEventData_get_delta_m1062010255P21CustomAttributesCache
zWe:_List_1_get_Count_m634446588_gshared
lPc:__ZN22BaseUnityConnectClient17SaveSessionValuesEv
Cgh:_InternalEnumerator_1_get_Current_m476140818_gshared
zZa:__Z24SetupActiveLightsContextR21ActiveLightingContextRK12ActiveLightsRK11CullResultsP14ShadowMapCacheRK10MinMaxAABB
pAd:_Array_TrueForAll_TisIl2CppObject_m1084992726_gshared
Bfc:__Z38Sprite_CUSTOM_INTERNAL_get_textureRectP12Il2CppObjectP5RectTIfE
keh:_InternalEnumerator_1_MoveNext_m2752374182_AdjustorThunk
lqj:__ZNK15dense_hashtableINSt3__24pairIK10KeyWrapperIPK22Il2CppGenericParameterEPK24MonoGenericParameterInfoEES6_N6il2cpp5utils11PointerHashIS4_EEN14dense_hash_mapIS6_SA_SF_NS6_14EqualsComparerINS0_8equal_toIS5_EEEENS0_9allocatorISB_EEE9SelectKeyESK_SM_E3endEv
XVe:_List_1_Add_m238442097_gshared
Khb:__ZN6Camera8TransferI24GenerateTypeTreeTransferEEvRT_
Ia:invoke_iiiiiiif
Fa:invoke_iiiiiiii
MAb:__ZN24RingBufferMemoryFileData16ConsumeReadBytesEy
kBi:_PKCS12_GetBytes_m415958948
gHe:_Context_get_HandshakeState_m2425796590
M0a:__ZN8Renderer17PendingAddToSceneEv
WZh:_Collection_1_System_Collections_IList_set_Item_m2625856224_gshared
O3j:b122
R3j:b125
Q3j:b124
Y3j:b127
T3j:b126
b4j:b129
Tec:__Z52Register_UnityEngine_RectTransform_INTERNAL_get_rectv
Tqh:__Z53RuntimeInvoker_Il2CppObject_Il2CppObject_Il2CppObjectPK10MethodInfoPvPS2_
NY:__Z21PostprocessStacktracePKcRN4core12basic_stringIcNS1_20StringStorageDefaultIcEEEE
waa:__ZN19RenderBufferManager13GetTempBufferEii17DepthBufferFormat19RenderTextureFormatj22RenderTextureReadWrite14VRTextureUsagei
$xb:__ZN18StreamedBinaryReadILb0EE21TransferSTLStyleArrayI13dynamic_arrayI16SplashScreenLogoLj4EEEEvRT_17TransferMetaFlags
pwh:__Z62RuntimeInvoker_Void_t1185182177_SByte_t1669577662_Il2CppObjectPK10MethodInfoPvPS2_
cNf:__ZL94TextGenerator_t3211863866_CustomAttributesCacheGenerator_TextGenerator_Dispose_cpp_m3030344874P21CustomAttributesCache
xac:__Z47Register_UnityEngine_Camera_get_allCamerasCountv
eEh:__Z48RuntimeInvoker_Category_t1200126069_Il2CppObjectPK10MethodInfoPvPS2_
OTc:___clang_call_terminate
oPc:__ZN22BaseUnityConnectClient20StartEventDispatcherEv
k5b:__ZNSt3__26vectorIj13stl_allocatorIjL18MemLabelIdentifier1ELi16EEE6assignIPKtEENS_9enable_ifIXaasr21__is_forward_iteratorIT_EE5valuesr16is_constructibleIjNS_15iterator_traitsIS9_E9referenceEEE5valueEvE4typeES9_S9_
fs:__ZN7mecanim9animation16EvaluateAvatarIKEPKNS0_14AvatarConstantEPKNS0_11AvatarInputEPNS0_12AvatarOutputEPNS0_12AvatarMemoryEPNS0_15AvatarWorkspaceEb
jBa:__ZL25ProgramUniformMatrix4x3fvPK7ApiGLESjiihPKv
B7a:__Z29StdTemplateConversionFunctionIsiEbPvR14SafeBinaryRead
SMa:__ZN12InputManager13InputEndFrameEv
ugj:__ZNSt3__26__treeIP11Il2CppClassNS_4lessIS2_EENS_9allocatorIS2_EEE25__emplace_unique_key_argsIS2_JRKS2_EEENS_4pairINS_15__tree_iteratorIS2_PNS_11__tree_nodeIS2_PvEEiEEbEERKT_DpOT0_
xtj:__ZN6il2cpp2vm6Thread5SetupEP12Il2CppThread
g4g:_GUIStyleState_Init_m3323354680
o1h:_ReadOnlyCollection_1_System_Collections_IList_get_IsReadOnly_m1248651675_gshared
e4f:_Enumerator_System_Collections_IDictionaryEnumerator_get_Key_m2500634048_gshared
KEi:_TextGenerator_t3211863866_marshal_pinvoke_back
ySj:___munmap
$f:_localtime_r
poi:_InterfaceTypeAttribute__ctor_m3307583035
yjh:_InternalEnumerator_1_System_Collections_IEnumerator_Reset_m3619766341_AdjustorThunk
Asf:__ZL56ReturnMessage_t1376985608_CustomAttributesCacheGeneratorP21CustomAttributesCache
zgj:__ZN6il2cpp6icalls8mscorlib6System8MonoType16GetMethodsByNameEP20Il2CppReflectionTypeP12Il2CppStringibS5_
eug:_UTF32Decoder_GetChars_m1925558948
bg:_strftime
NOd:_EventSystem_get_currentInputModule_m1630316857
jni:_ResourceSet__ctor_m3618395942
rrd:_Decimal_System_IConvertible_ToDouble_m3125524987_AdjustorThunk
oW:__ZN12FileAccessorD2Ev
fga:__ZN10ColorRGBAf8TransferI18StreamedBinaryReadILb0EEEEvRT_
DRa:__ZN14VertexDataInfoC2Ev
oFj:__ZN6il2cpp2gc16GarbageCollector14CollectALittleEv
rdi:_CanvasRenderer_DisableRectClipping_m4197748798
QMb:__ZL17Transfer_GUIStyleI18StreamedBinaryReadILb1EELb1EEvRK29SerializationCommandArgumentsR31RuntimeSerializationCommandInfo
hTg:_RectMask2D_IsRaycastLocationValid_m1652308696
Pgj:__ZN6il2cpp6icalls8mscorlib6SystemL9IsPrivateEPK12PropertyInfo
tBi:_X501_ToString_m1148552872
qla:__ZN15dense_hashtableINSt3__24pairIKiiEEi21InstanceIDHashFunctorN14dense_hash_mapIiiS4_NS0_8equal_toIiEE13stl_allocatorIS3_L18MemLabelIdentifier1ELi16EEE9SelectKeyES7_SA_E9copy_fromERKSD_j
V_:__ZN9shadertag10InitializeEv
YLj:__ZThn8_N6il2cpp2vm13CachedCCWBaseINS0_13ManagedObjectEE7DestroyEv
ETa:__ZN13BatchRenderer20RenderSingleWithPassER17ShaderPassContextPK18SharedMaterialDataP6ShaderPN9ShaderLab4PassEiPKNS7_10GrabPassesEjib15BatchBreakCause
sGi:_Transform_get_localScale_m2509514663
k9i:__ZN15dense_hashtableINSt3__24pairIK10KeyWrapperIPK19Il2CppGenericMethodEPK26Il2CppGenericMethodIndicesEES6_N6il2cpp8metadata23Il2CppGenericMethodHashEN14dense_hash_mapIS6_SA_SE_NS6_14EqualsComparerINSD_26Il2CppGenericMethodCompareEEENS0_9allocatorISB_EEE9SelectKeyESI_SK_ED2Ev
ED:__Z92Register_UnityEngine_Experimental_Director_AnimationOffsetPlayable_INTERNAL_CALL_SetRotationv
Grb:__ZN15QualitySettings14QualitySetting8TransferI24GenerateTypeTreeTransferEEvRT_
VNj:__ZN6il2cpp5utils6Memory11AlignedFreeEPv
BFe:_Context_get_ClientWriteKey_m3174706656
fUf:__ZL77ExecuteEvents_t3484638744_CustomAttributesCacheGenerator_U3CU3Ef__mgU24cache7P21CustomAttributesCache
z2d:_InputField_get_textComponent_m948764648
dJc:__Z28Font_Get_Custom_PropMaterialP12Il2CppObject
aMj:__ZN6il2cpp6icalls8mscorlib6System9Threading16NativeEventCalls19ResetEvent_internalE12Il2CppIntPtr
and:_Convert_ToSingle_m835189399
A4b:__ZN22BlockMemoryCacheWriter14LockCacheBlockEjPPhS1_
bjc:__ZNSt3__218__insertion_sort_3IRPFbPKN5IMGUI9GUIWindowES4_EPPS2_EEvT0_SA_T_
Xpg:_CryptographicUnexpectedOperationException__ctor_m69881930
Yuf:__ZL73TripleDESCryptoServiceProvider_t3595206342_CustomAttributesCacheGeneratorP21CustomAttributesCache
i5e:_Collection_1_SetItem_m1218178236_gshared
Qrc:__Z22TransferField_NonArrayI8JSONRead27Converter_SimpleNativeClassI8GUIStyleEEvRK23StaticTransferFieldInfoR31RuntimeSerializationCommandInfoRT0_
jaj:__ZN15dense_hashtableI10KeyWrapperIPK19Il2CppGenericMethodES4_N6il2cpp8metadata23Il2CppGenericMethodHashEN14dense_hash_setIS4_S7_NS4_14EqualsComparerINS6_26Il2CppGenericMethodCompareEEENSt3__29allocatorIS4_EEE8IdentityESB_SE_E16reset_thresholdsEv
lSg:_Navigation_get_mode_m1766451275_AdjustorThunk
z2b:__Z13RegisterClassI10GameObjectEvv
iRi:_UnityAction_4_EndInvoke_m326333003_gshared
jGf:__ZL89Renderer_t2627027031_CustomAttributesCacheGenerator_Renderer_get_sortingOrder_m3189497003P21CustomAttributesCache
Lje:_StreamWriter__cctor_m1229272693
fNh:__Z52RuntimeInvoker_Color32_t2600501292_Int32_t2950945753PK10MethodInfoPvPS2_
IGi:_Transform_get_childCount_m4033131441
Mud:_Enum_System_IConvertible_ToSByte_m779472798
cwh:__Z84RuntimeInvoker_Boolean_t97287965_Il2CppObject_Il2CppObject_Il2CppObject_Il2CppObjectPK10MethodInfoPvPS2_
Kyg:_Type_get_IsInterface_m3284996719
Tfh:_InternalEnumerator_1_MoveNext_m1543390728_gshared
Vvh:__Z96RuntimeInvoker_Void_t1185182177_SByte_t1669577662_ByteU5BU5DU26_t4057885439_Int32U26_t1369213839PK10MethodInfoPvPS2_
FOb:__Z18Transfer_BlittableI18StreamedBinaryReadILb0EELb1E8Vector4fEvRK29SerializationCommandArgumentsR31RuntimeSerializationCommandInfo
cyi:_RegularExpression__ctor_m119502265
XIg:_TypeBuilder_GetElementType_m1881206953
H9d:_SortKey_get_OriginalString_m1428586816
feg:_Dictionary_2_U3CCopyToU3Em__0_m2023886030_gshared
x2j:_glBindVertexArray__wrapper
Fmg:_SerializationInfo__ctor_m2923079689
Uth:__Z52RuntimeInvoker_Double_t594665363_Decimal_t2948259380PK10MethodInfoPvPS2_
$ea:__ZN8Material8TransferI14SafeBinaryReadEEvRT_
Dnb:__ZN12CubemapArray17UploadToGfxDeviceEv
sja:__ZN6prcoreL17RemapGenericFloatI15TexFormatRGHalf17TexFormatRGBAHalfEEvPKNS_9InnerInfoE
Lbe:_Int32_JumpOverWhite_m208298144
BMh:__Z39RuntimeInvoker_KeyValuePair_2_t71524366PK10MethodInfoPvPS2_
htj:__ZN24dense_hashtable_iteratorINSt3__24pairIK10KeyWrapperIP11Il2CppClassES4_EES5_N6il2cpp8metadata16SZArrayClassHashEN14dense_hash_mapIS5_S4_SA_NS5_14EqualsComparerINS9_19SZArrayClassCompareEEENS0_9allocatorIS7_EEE9SelectKeyESE_SG_E30advance_past_empty_and_deletedEv
o4e:_Collection_1_IndexOf_m3975171051_gshared
wDi:_SerializePrivateVariables__ctor_m971864279
x1j:_emscripten_glGetUniformiv__wrapper
NLj:__ZN6il2cpp2vm13ManagedObject14QueryInterfaceERK10Il2CppGuidPPv
$G:__ZN11AudioSource4StopEb
yGb:__ZN14SafeBinaryRead21TransferSTLStyleArrayI13dynamic_arrayI10Matrix4x4fLj4EEEEvRT_17TransferMetaFlags
A9:__Z25GetSplashScreenBackgroundRK5RectTIfE
J7:__ZN14dense_hash_mapIPKcPK4RTTIN11TypeManager23ConstCharPtrHashFunctorENS5_19ConstCharPtrEqualToE13stl_allocatorINSt3__24pairIKS1_S4_EEL18MemLabelIdentifier6ELi16EEEixERSB_
uSc:__ZN13RuntimeStaticI19UnityConnectServiceLb0EE16StaticInitializeEPv
mFa:__ZN18GlslGpuProgramGLESD2Ev
k5a:__ZN13RenderTexture14SetVolumeDepthEi
DMg:_EventInfo_get_EventHandlerType_m420690865
i1f:__ZL69Panel_SignUp_t2819363311_CustomAttributesCacheGenerator_NewEmailFieldP21CustomAttributesCache
nNh:__Z59RuntimeInvoker_Boolean_t97287965_ObjectMetadata_t3566284522PK10MethodInfoPvPS2_
usc:__ZN10Matrix4x4f8TransferI8JSONReadEEvRT_
V1:__ZN14dense_hash_mapIPKcPK4RTTIN11TypeManager23ConstCharPtrHashFunctorENS5_19ConstCharPtrEqualToE13stl_allocatorINSt3__24pairIKS1_S4_EEL18MemLabelIdentifier6ELi16EEE5beginEv
NSg:_PositionAsUV1_ModifyMesh_m4231919476
tgd:_Hashtable__ctor_m1941859523
vVg:_ScrollRect_set_horizontalScrollbarSpacing_m2209919081
Z$:__ZN17PersistentManager18ReadObjectThreadedEi
owa:__ZN25TransformFeedbackSkinning31CleanupTransformFeedbackShadersEv
qIj:__ZN6il2cpp6icalls8mscorlib6System7Runtime16CompilerServices14RuntimeHelpers15InitializeArrayEP11Il2CppArray12Il2CppIntPtr
vsi:_AsyncResult_get_NextSink_m1844209137
Vvc:__ZNK20TextRenderingPrivate8FontImpl19GetCharacterAdvanceEjijfPj
nGc:_cff_subfont_load
CLd:_Dictionary_2_Do_CopyTo_TisDictionaryEntry_t3123975638_TisDictionaryEntry_t3123975638_m1126292988_gshared
Asb:__ZN10VertexData8TransferI18StreamedBinaryReadILb0EEEEvRT_
Mne:_MonoType_get_Assembly_m4290914179
$6c:_Array_Reverse_m816310962
w5a:__ZN14PreloadManager16UpdatePreloadingEv
chb:__ZN12BaseRendererD2Ev
Ykb:__ZN14SafeBinaryRead21TransferSTLStyleArrayI19StaticArrayTransferIiLi4EEEEvRT_17TransferMetaFlags
$2c:_String_LastIndexOf_m95398196
rlh:_InternalEnumerator_1_System_Collections_IEnumerator_get_Current_m4088805473_gshared
iGj:__ZN14dense_hash_mapI10KeyWrapperIPK19Il2CppGenericMethodEP10MethodInfoN6il2cpp8metadata23Il2CppGenericMethodHashENS4_14EqualsComparerINS8_26Il2CppGenericMethodCompareEEENSt3__29allocatorINSD_4pairIKS4_S6_EEEEEC2EjRKS9_RKSC_
FVf:__ZL79StandaloneInputModule_t2760469101_CustomAttributesCacheGenerator_m_SubmitButtonP21CustomAttributesCache
Eab:__ZNK21UnityDefaultAllocatorI17LowLevelAllocatorE8ContainsEPKv
Bej:__ZNSt3__213__vector_baseI6pollfdNS_9allocatorIS1_EEED2Ev
Jei:_GameObject_GetComponents_m3948232783
vog:_RuntimeTypeHandle_Equals_m2857439487
Oh:_emscripten_get_main_loop_timing
Koi:_SafeHandle_Finalize_m3866180675
Frb:__ZN24GenerateTypeTreeTransfer21TransferSTLStyleArrayINSt3__26vectorIN15QualitySettings14QualitySettingENS1_9allocatorIS4_EEEEEEvRT_17TransferMetaFlags
oie:_MemoryStream_ToArray_m3911744835
G3f:_Enumerator_System_Collections_IDictionaryEnumerator_get_Entry_m859540448_AdjustorThunk
A3a:__ZN23ManagedAttributeManager52CallManagedGetParentTypeDisallowingMultipleInclusionE17ScriptingClassPtr
nOe:_KeyValuePair_2__ctor_m164939250_AdjustorThunk
KPj:__ZN6il2cpp2os5Event4WaitEjb
swb:__ZNSt3__26vectorI9InputAxisNS_9allocatorIS1_EEE6resizeEj
mzg:_Type_GetHashCode_m1947148725
CGi:_Transform_get_worldToLocalMatrix_m2010185910
LTa:__ZN13BatchRendererC2ER15RenderLoopStatsRK15RenderNodeQueuebbb
Vo:getTempRet0
D$c:_StrongName_get_Version_m4243032012
Njh:_InternalEnumerator_1_MoveNext_m2234422530_gshared
GHh:__Z64RuntimeInvoker_Vector3_t3722313464_PlayableHandleU26_t4060785685PK10MethodInfoPvPS2_
Pkj:__ZN6il2cpp2gc19AppendOnlyGCHashMapINSt3__24pairIPK14Il2CppAssemblyP11Il2CppClassEEP24Il2CppReflectionAssembly17ReflectionMapHashIS9_ENS2_8equal_toIS9_EEE10CopyValuesEPv
OPd:_BaseRaycaster_OnEnable_m2678466030
_Kd:_Array_Sort_TisVector4_t3319028937_m2797285308_gshared
IIe:_HandshakeMessage_Update_m2417837686
UZh:_Collection_1_System_Collections_IList_get_Item_m3314684800_gshared
suj:__ZN6il2cpp6icalls8mscorlib6System9ThreadingL21lookup_cached_cultureEP12Il2CppThreadi
v_a:__ZN18DeferredRenderLoopD2Ev
O2:__ZNK16TypeTreeIterator4NameEv
Y$h:_ReadOnlyCollection_1_System_Collections_ICollection_CopyTo_m4171758155_gshared
rLd:_Array_swap_TisUICharInfo_t75501106_m3934244159_gshared
NV:__ZN15FileSystemEntry3SetEPKc
oHg:_ConstructorBuilder_Invoke_m3010446651
CUd:_AspectRatioFitter_get_aspectMode_m3735191157
lSh:__Z39RuntimeInvoker_RaycastHit2D_t2279581989PK10MethodInfoPvPS2_
jEf:__ZL103ScriptableObject_t2528358522_CustomAttributesCacheGenerator_ScriptableObject_CreateInstance_m1668078119P21CustomAttributesCache
D9e:_IPv6Address_set_ScopeId_m3907190992
t2g:_GUIStyle_set_focused_m2329051246
HI:__ZN20SoundChannelInstance15ParameterBuffer5ApplyEPN4FMOD7ChannelE
r9e:_IPv6Address__ctor_m4117281080
Hvb:__ZN23SharedMeshRenderingDataD0Ev
JE:__Z117Register_UnityEngine_Experimental_Director_AnimatorControllerPlayable_INTERNAL_CALL_GetAnimatorTransitionInfoInternalv
Svc:__ZN20TextRenderingPrivate19NativeTextGenerator9InsertTabEv
hVj:_sbrk
vPi:_CachedInvokableCall_1_Invoke_m3994967940_gshared
xSe:_List_1_GetEnumerator_m3346313791_gshared
PRe:_Enumerator_VerifyState_m3474272061_AdjustorThunk
BPc:__ZN11UnityEngine15PlatformWrapper24GetRuntimePlatformStringEv
wi:_glIsEnabled
oQb:__ZN15CacheWriterBaseD2Ev
gDh:__Z44RuntimeInvoker_HashAlgorithmType_t2376832258PK10MethodInfoPvPS2_
UGg:_DerivedType__ctor_m1853298054
PCb:__Z25scripting_class_get_image17ScriptingClassPtr
bfd:_CaseInsensitiveComparer_Compare_m1224120810
xUe:_List_1_RemoveAt_m2730968292_gshared
zi:_emscripten_glDrawElementsInstanced
jz:__ZN26AnimatorControllerPlayable27SetupStateMachineBehavioursEv
gBd:_Array_InternalArray__IEnumerable_GetEnumerator_TisSlot_t3975888750_m1869932007_gshared
ufi:_StateChanged_BeginInvoke_m1110082402
A5d:_LayoutGroup_get_preferredWidth_m3816902260
bpa:__ZN18JobBatchDispatcherD2Ev
XVb:__ZN9Transform17MainThreadCleanupEv
AKj:_GC_clear_hdr_marks
GVh:__ZN21InterfaceFuncInvoker1I28AnimatorClipInfo_t3156717155iE6InvokeEjP11Il2CppClassP12Il2CppObjecti
vEc:_cff_fd_select_get
Q1j:_emscripten_glTexParameteri__wrapper
PYg:_Text_set_resizeTextForBestFit_m4095249125
Ibf:_OidEnumerator_MoveNext_m3138911739
Ji:_emscripten_glGetShaderiv
TLa:__ZZ23InitPlayerLoopCallbacksvEN41EarlyUpdateUpdateAllUnityWebStreamsstruct7ForwardEv
JJ:__ZN4FMOD6System10getVersionEPj
aHd:_Array_InternalArray__Insert_TisKeyValuePair_2_t3177551628_m969608341_gshared
KXb:__ZNK6Object8HasEventEPFvPvS0_iEPKv
qrh:__Z79RuntimeInvoker_Boolean_t97287965_Int32U26_t1369213839_Il2CppObject_Il2CppObjectPK10MethodInfoPvPS2_
MJc:__ZN2UI6Canvas23VirtualRedirectTransferER24GenerateTypeTreeTransfer
MWg:_Selectable_set_animationTriggers_m2970345687
EYh:_Collection_1_CopyTo_m4271769704_gshared
yuc:__ZN13TextRendering4Font13AwakeFromLoadE17AwakeFromLoadMode
Aud:_Enum__ctor_m3602080049
mta:__ZN9GfxDevice21ReleaseSharedMeshDataEP14SharedMeshData
BSd:_MouseState__ctor_m1467839005
x9h:_AnimationEvent_get_time_m3455244934
$yi:_Uri_IsDomainAddress_m2867513594
ixb:__ZNSt3__27__sort5IRNS_6__lessINS_4pairIPKN5Unity4TypeE7Hash128EES8_EEPS8_EEjT0_SC_SC_SC_SC_T_
Rxf:__ZL79Convert_t2465617642_CustomAttributesCacheGenerator_Convert_ToDouble_m2949593046P21CustomAttributesCache
b9i:__ZNK15dense_hashtableINSt3__24pairIK10KeyWrapperIPKcEP11Il2CppClassEES5_N6il2cpp5utils11StringUtils12StringHasherIS4_EEN14dense_hash_mapIS5_S8_SE_NS5_14EqualsComparerINSC_21CaseSensitiveComparerEEENS0_9allocatorIS9_EEE9SelectKeyESI_SK_E10test_emptyEj
yZd:_Dropdown_CreateItem_m2954407740
Xfi:_Display_GetSystemExtImpl_m1142438950
ddf:_X509Chain_ProcessCrlExtensions_m236234529
CUh:__Z89RuntimeInvoker_Il2CppObject_Scene_t2348375561_Int32_t2950945753_Il2CppObject_Il2CppObjectPK10MethodInfoPvPS2_
PDd:_Array_InternalArray__IndexOf_TisLabelData_t360167391_m1826525656_gshared
QKh:__Z49RuntimeInvoker_EditState_t3741896775_Il2CppObjectPK10MethodInfoPvPS2_
Lec:__Z43RectTransform_CUSTOM_INTERNAL_get_anchorMaxP12Il2CppObjectP13Vector2fIcall
_jg:_RealProxy_get_ObjectIdentity_m2790771985
ukg:_RemotingConfiguration_RegisterChannelTemplate_m3105688054
bsh:__Z50RuntimeInvoker_Int32_t2950945753_Int16_t2552820387PK10MethodInfoPvPS2_
Oea:__ZN8Material28UpdateHashesOnPropertyChangeEN9ShaderLab16FastPropertyNameE
m6e:_Collection_1_System_Collections_IList_get_Item_m1368877441_gshared
jAe:_Locale_GetText_m3520169047
vfc:__Z53Register_UnityEngine_SortingLayer_GetLayerValueFromIDv
XBe:_ASN1_GetBytes_m1968380955
x0g:_GUISettings_get_cursorFlashSpeed_m3364906267
BEb:__Z18Transfer_BlittableI14SafeBinaryReadLb1E8Vector4fEvRK29SerializationCommandArgumentsR31RuntimeSerializationCommandInfo
wr:__ZN8Animator23VirtualRedirectTransferER19StreamedBinaryWriteILb0EE
zv:__ZN11UnityEngine9Animation32CreateAnimatorGenericBindingsOptERKNS0_20AnimationSetBindingsER9TransformPKN7mecanim9animation14AvatarConstantEPKNS0_21AvatarBindingConstantEbRNS6_6memory9AllocatorER8Animator
LAj:__ZN6il2cpp2vm5Image13ClassFromNameEPK11Il2CppImagePKcS6_
NVj:dynCall_vdddddd
T1g:_SkinChangedDelegate__ctor_m1746739106
gTb:__ZN24GenerateTypeTreeTransfer21TransferSTLStyleArrayINSt3__26vectorIN9ShaderLab14SerializedPassENS1_9allocatorIS4_EEEEEEvRT_17TransferMetaFlags
E$:__ZL32MarkLevelGameManagerDependenciesR27GarbageCollectorThreadState
wva:__ZNK13GfxDeviceGLES26HasActiveRandomWriteTargetEv
BFi:_Time_get_unscaledTime_m1478911891
ntj:__GLOBAL__sub_I_Thread_cpp
sGf:__ZL85RectOffset_t1369453676_CustomAttributesCacheGenerator_RectOffset_get_left_m1621853196P21CustomAttributesCache
n9h:_AnimationEvent_get_stringParameter_m77381198
vlf:__ZL54_MemberInfo_t3922476713_CustomAttributesCacheGeneratorP21CustomAttributesCache
r_j:_glGetActiveUniformsiv__wrapper
NFh:__Z69RuntimeInvoker_Void_t1185182177_Single_t1397266774_Single_t1397266774PK10MethodInfoPvPS2_
rfa:__ZN14SafeBinaryRead8TransferINSt3__24pairIN9ShaderLab16FastPropertyNameE10ColorRGBAfEEEEvRT_PKc17TransferMetaFlags
e1:__ZN13MonoBehaviour19SetupScriptingCacheE17ScriptingClassPtrP10MonoScript
yUh:__Z73RuntimeInvoker_Il2CppObject_Vector4_t3319028937_Il2CppObject_Il2CppObjectPK10MethodInfoPvPS2_
Uej:__ZNSt3__214__split_bufferIP12Il2CppThreadRNS_9allocatorIS2_EEED2Ev
Oq:__Z20AnimationEventToMonoRK14AnimationEventR18MonoAnimationEvent
JXd:_FloatTween_set_targetValue_m3604919944_AdjustorThunk
I$:__ZNK15dense_hashtableINSt3__24pairIKiiEEi21InstanceIDHashFunctorN14dense_hash_mapIiiS4_NS0_8equal_toIiEE13stl_allocatorIS3_L18MemLabelIdentifier1ELi16EEE9SelectKeyES7_SA_E13find_positionERS2_
v0:__ZN17PersistentManager29ReadAndActivateObjectThreadedEiRK26SerializedObjectIdentifierP14SerializedFilebb
zcd:_ArrayList_get_IsReadOnly_m913775115
pSd:_PointerEventData_get_dragging_m746831934
Zyg:_Type_get_TypeHandle_m160082026
d6h:_ReadOnlyCollection_1_System_Collections_IEnumerable_GetEnumerator_m2781605075_gshared
Txd:_Array_get_swapper_TisCustomAttributeNamedArgument_t287865710_m4254011335_gshared
tNe:_TlsStream_get_Position_m1904146856
v8g:_Object_FindObjectsOfType_m2898745631
Rvb:__ZN4PPtrI6SpriteE8TransferI14SafeBinaryReadEEvRT_
bhg:_EqualityComparer_1_System_Collections_IEqualityComparer_Equals_m1672604045_gshared
nsj:__ZN15dense_hashtableINSt3__24pairIK10KeyWrapperIP11Il2CppClassES4_EES5_N6il2cpp8metadata16SZArrayClassHashEN14dense_hash_mapIS5_S4_SA_NS5_14EqualsComparerINS9_19SZArrayClassCompareEEENS0_9allocatorIS7_EEE9SelectKeyESE_SG_E16reset_thresholdsEv
W_e:_List_1_GetEnumerator_m2095602005_gshared
Txh:__Z45RuntimeInvoker_Il2CppObject_IntPtr_t_IntPtr_tPK10MethodInfoPvPS2_
OKi:_JsonData_System_Collections_IList_Remove_m77578819
ESb:__ZNSt3__26vectorIN9ShaderLab14SerializedPassENS_9allocatorIS2_EEE8__appendEj
XRb:__ZNSt3__26vectorIN9ShaderLab20SerializedSubProgram13BufferBindingENS_9allocatorIS3_EEEC2INS_11__wrap_iterIPS3_EEEET_SB_RKS5_PNS_9enable_ifIXaasr21__is_forward_iteratorISB_EE5valuesr16is_constructibleIS3_NS_15iterator_traitsISB_E9referenceEEE5valueEvE4typeE
vqh:_Comparer_1__cctor_m3540714969_gshared
Yrg:_Encoding_get_ISOLatin1_m2107621369
V0b:__ZZL23RegisterLightPropertiesR22GenericPropertyBindingEN20Wrapper_LightColorb213GetFloatValueEPv
qBe:_BigInteger_op_Inequality_m2697143438
N0j:_emscripten_glBlendColor__wrapper
ojf:__ZL72IntPtr_t_CustomAttributesCacheGenerator_IntPtr_op_Inequality_m3063970704P21CustomAttributesCache
cBi:_SafeBag_get_ASN1_m2293701606
Pob:__ZN9Texture2D23VirtualRedirectTransferER18StreamedBinaryReadILb0EE
Ted:_BitArrayEnumerator__ctor_m2359341397
dph:_DefaultComparer__ctor_m3288720761_gshared
nLi:_JsonData_Equals_m4285343643
Qgb:__ZNSt3__26__treeINS_12__value_typeIN4core12basic_stringIcNS2_20StringStorageDefaultIcEEEEjEENS_19__map_value_compareIS6_S7_NS_4lessIS6_EELb1EEE13stl_allocatorIS7_L18MemLabelIdentifier6ELi16EEE7destroyEPNS_11__tree_nodeIS7_PvEE
M1:__ZN16ScriptingManager27NativeTypeForScriptingClassE17ScriptingClassPtr
K5g:_Logger_Log_m2391612425
XBg:_UInt64_System_IConvertible_ToDateTime_m3434604642
Uyg:_Type_get_IsSerializable_m1040556850
xBc:_get_sfnt_table
WJd:_Array_Resize_TisUIVertex_t4057497605_m1219201596_gshared
sof:__ZL55StreamWriter_t1266378904_CustomAttributesCacheGeneratorP21CustomAttributesCache
VNa:_unity_z_tr_stored_block
yvi:_Parser_ResolveReferences_m1518052352
cYb:__Z13RegisterClassI5LightEvv
pqb:__ZN8Renderer20RendererAddedToSceneEv
J$a:__ZL22ScheduleSceneNodesJobsP25ScheduleSceneNodesJobDataj
wk:_emscripten_set_canvas_size
G_d:_Graphic_SetVerticesDirty_m2124914069
fxd:_CultureInfo__ctor_m3285927757
NRg:_MaskableGraphic_get_rootCanvasRect_m3492154629
RJd:_Array_Resize_TisRaycastResult_t3360306849_m1811054291_gshared
b1h:_ReadOnlyCollection_1_System_Collections_Generic_ICollectionU3CTU3E_get_IsReadOnly_m3152485890_gshared
nSb:__ZNSt3__26vectorIN9ShaderLab20SerializedSubProgramENS_9allocatorIS2_EEE8__appendEj
aT:__ZN20DynamicHeapAllocatorI17LowLevelAllocatorE8AllocateEji
GTi:_Locale_GetText_m2427493201
lUa:__ZN20DynamicPropertySheet15SetVectorQueuedERKN9ShaderLab16FastPropertyNameERK8Vector4fN19ShaderPropertySheet8SetFlagsE
ds:__ZN7mecanim9animation22EvaluateAvatarRetargetEPKNS0_14AvatarConstantEPKNS0_11AvatarInputEPNS0_12AvatarOutputEPNS0_12AvatarMemoryEPNS0_15AvatarWorkspaceEb
Gmh:_InternalEnumerator_1_System_Collections_IEnumerator_Reset_m996811230_AdjustorThunk
aHe:_TlsStream_Write_m1412844442
dPf:__ZL59GUISkin_t1244372282_CustomAttributesCacheGenerator_m_windowP21CustomAttributesCache
xJh:__Z49RuntimeInvoker_Boolean_t97287965_Rect_t2360479859PK10MethodInfoPvPS2_
Woc:__ZL26Transfer_SimpleNativeClassI9JSONWrite10RectOffsetLb0EEvRK29SerializationCommandArgumentsR31RuntimeSerializationCommandInfo
$Jj:_GC_push_conditional
pMi:_U3CU3Ec__CompilerGenerated1_U3CRegisterBaseImportersU3Ec__18_m2879996707
Zya:__ZN17GenericDynamicVBO10AllocateVBEjR21DynamicVBOChunkHandle
Vqd:_DBNull_ToString_m3638608738
Hyj:__ZN30dense_hashtable_const_iteratorI10KeyWrapperIP18Il2CppGenericClassES3_N6il2cpp8metadata22Il2CppGenericClassHashEN14dense_hash_setIS3_S6_NS3_14EqualsComparerINS5_25Il2CppGenericClassCompareEEENSt3__29allocatorIS3_EEE8IdentityESA_SD_EppEv
Qed:_BitArray_Clone_m3537018332
hmg:_ObjectRecord_UnchainFixup_m3191243952
qNe:_TlsStream_get_CanWrite_m16389328
wth:__Z60RuntimeInvoker_Decimal_t2948259380_Il2CppObject_Il2CppObjectPK10MethodInfoPvPS2_
Uk:_glMapBufferRange
Iob:__ZN9Texture2D8TransferI18StreamedBinaryReadILb0EEEEvRT_
Bcc:__Z31Input_CUSTOM_GetMouseButtonDowni
c7g:_Mesh_SetSizedArrayForChannel_m2433695052
k3b:__ZN13PlayableGraph4PlayEv
s3c:_String_Format_m3339413201
f5c:_EncoderExceptionFallbackBuffer_get_Remaining_m1573636148
Pne:_MonoType_get_BaseType_m1098640416
gqa:__ZN13LoadOperation19IntegrateTimeSlicedEi
orb:__ZNK15QualitySettings26GetTypeInfoVirtualInternalEv
Jva:__ZN13GfxDeviceGLES22DispatchComputeProgramE12ObjectHandleI18ComputeProgram_TagPvE15ComputeBufferIDj
Hsg:_Latin1Encoding_GetString_m254210343
kAh:__Z63RuntimeInvoker_Int64_t3736567304_Il2CppObject_Int32_t2950945753PK10MethodInfoPvPS2_
Hoa:__Z17TransformAABBSlowRK4AABBRK10Matrix4x4fRS_
Bpb:__ZN15SerializeTraitsI13dynamic_arrayI7Hash128Lj8EEE19ResizeSTLStyleArrayERS2_i18MemLabelIdentifier
e7c:_Array_combsort_m4052486289
hrj:__ZN13Il2CppHashMapINSt3__24pairIPK9FieldInfoP11Il2CppClassEEj17ReflectionMapHashIS7_ENS0_8equal_toIS7_EENS0_9allocatorINS1_IK10KeyWrapperIS7_EjEEEEEC2EjRKS9_RKSB_
VUe:_List_1_System_Collections_ICollection_get_SyncRoot_m314215814_gshared
cRb:__ZN9ShaderLab21SerializedShaderState8TransferI14SafeBinaryReadEEvRT_
Bvd:_Environment_GetWindowsFolderPath_m1738399646
$0e:_List_1_Sort_m378918663_gshared
sFc:_cf2_stack_pushInt
RA:__ZN7mecanim9animation20DestroyLayerConstantEPNS0_13LayerConstantERNS_6memory9AllocatorE
Kch:_U3CGetEnumeratorU3Ec__Iterator0_System_Collections_IEnumerator_get_Current_m3208659014_gshared
hje:_StreamAsyncResult_get_AsyncState_m3822420114
Ppg:_CryptoConfig_EncodeOID_m2635914623
dOf:__ZL102CanvasRenderer_t2598313366_CustomAttributesCacheGenerator_CanvasRenderer_set_materialCount_m3744103248P21CustomAttributesCache
Zfa:__ZN15SerializeTraitsINSt3__24pairIN4core12basic_stringIcNS2_20StringStorageDefaultIcEEEES6_EEE8TransferI24GenerateTypeTreeTransferEEvRS7_RT_
T1j:b89
P0j:b88
r0j:b81
q0j:b80
F_i:_Button_Back__ctor_m1271906111
p2:__ZN18ResourceImageGroup7CleanupEv
I0j:b85
H0j:b84
O0j:b87
J0j:b86
Np:__ZN11Quaternionf8TransferI24GenerateTypeTreeTransferEEvRT_
aig:_RemotingSurrogateSelector_GetSurrogate_m3900875713
A0b:__ZN13ProduceHelperI4MeshLb0EE7ProduceE18MemLabelIdentifier18ObjectCreationMode
A3h:_ReadOnlyCollection_1_System_Collections_IList_get_IsReadOnly_m3626439112_gshared
JEe:_CertificateValidationCallback_Invoke_m1014111289
Nmb:__ZN8Playable19SetOutputConnectionEPS_i
e_h:__ZN23InterfaceActionInvoker2Ii19Vector2_t2156229523E6InvokeEjP11Il2CppClassP12Il2CppObjectiS0_
u8i:__ZN15dense_hashtableINSt3__24pairIK10KeyWrapperIPK11Il2CppClassEPKcEES6_N6il2cpp5utils11PointerHashIS3_EEN14dense_hash_mapIS6_S9_SE_NS6_14EqualsComparerINS0_8equal_toIS5_EEEENS0_9allocatorISA_EEE9SelectKeyESJ_SL_EC2ERKSO_j
Il:_glDeleteShader
yVi:_U3CU3Ec__DisplayClass3a__ctor_m1957980127
nja:__ZN6prcoreL17RemapGenericFloatI15TexFormatRGHalf16TexFormatRGFloatEEvPKNS_9InnerInfoE
LKd:_Array_Sort_TisUICharInfo_t75501106_m128665067_gshared
CXc:_RSAPKCS1SignatureDeformatter_SetHashAlgorithm_m1602190713
YHe:_Context_set_SentConnectionEnd_m1367645582
N9f:_Dictionary_2_CopyToCheck_m45332585_gshared
C_e:_List_1_System_Collections_ICollection_get_IsSynchronized_m3630704857_gshared
Kgh:_InternalEnumerator_1_System_Collections_IEnumerator_Reset_m4239728915_AdjustorThunk
OLa:__ZZ23InitPlayerLoopCallbacksvEN38EarlyUpdateExecuteMainThreadJobsstruct7ForwardEv
l8b:__Z27scripting_add_internal_callPKcPKv
Tqj:__ZN13Il2CppHashMapINSt3__24pairIPK9EventInfoP11Il2CppClassEEj17ReflectionMapHashIS7_ENS0_8equal_toIS7_EENS0_9allocatorINS1_IK10KeyWrapperIS7_EjEEEEEC2EjRKS9_RKSB_
wzj:__GLOBAL__sub_I_GarbageCollector_cpp
s_:__Z17GetPlayerSettingsv
Is:__ZN34BlobWriteTransferSTLStyleArrayImplI22OffsetPtrArrayTransferIiEEclERS1_17TransferMetaFlagsR9BlobWrite
cze:_AttrListImpl_get_Names_m977594476
UUg:_ScrollRect_get_content_m2477524320
O3f:_Enumerator_MoveNext_m1556953412_AdjustorThunk
Bu:__ZN26AnimatorControllerPlayable18SetLayerAutoWeightEv
Gb:invoke_vffff
bBd:_Array_InternalArray__IEnumerable_GetEnumerator_TisKeyValuePair_2_t3177551628_m599682111_gshared
zxh:__Z43RuntimeInvoker_MethodAttributes_t2366443849PK10MethodInfoPvPS2_
WLc:__ZN2UI14CanvasRenderer12SyncMaterialENS0_8SyncFlagE
S8g:_Object__cctor_m1647271852
Xje:_StreamWriter_Write_m1660535366
E6g:_Matrix4x4_MultiplyPoint3x4_m1691748578_AdjustorThunk
$Nj:__ZN6il2cpp2vm9Parameter30GetDefaultParameterValueObjectEPK10MethodInfoPK13ParameterInfoPb
Dug:_UTF8Encoding_GetByteCount_m4152118078
nQf:__ZL101GUIStyle_t3956901511_CustomAttributesCacheGenerator_GUIStyle_INTERNAL_CALL_SetMouseTooltip_m830416167P21CustomAttributesCache
vve:_KeyPairPersistence__CanSecure_m3516574278
oVc:_MD5CryptoServiceProvider_Dispose_m3502499818
xWi:_EqualityComparer_1_get_Default_m2359341649_gshared
E9g:_Ray_ToString_m943070480
qWh:_Collection_1_System_Collections_IList_get_Item_m2422562729_gshared
m1f:_Comparer_1_get_Default_m1596450988_gshared
oBc:_UNITY_tt_face_done_kern
GFe:_SecurityParameters_get_ServerWriteMAC_m3430427271
sjg:_ObjRef_GetObjectData_m270012899
mdh:_ArrayReadOnlyList_1_RemoveAt_m2104218585_gshared
Flc:__Z59GUIStyle_CUSTOM_Internal_GetNumCharactersThatFitWithinWidth13Il2Cpp_IntPtrP12Il2CppStringf
vdi:_CanvasRenderer_SetMaterial_m856908584
vBd:_Array_InternalArray__IEnumerable_GetEnumerator_TisParameterModifier_t1461694466_m3675077728_gshared
GYf:__ZL60RawImage_t3182918964_CustomAttributesCacheGenerator_m_UVRectP21CustomAttributesCache
Q8:__Z19scripting_gc_enablev
anh:_InternalEnumerator_1_get_Current_m2907722321_gshared
e7a:__Z29StdTemplateConversionFunctionIihEbPvR14SafeBinaryRead
boh:_InternalEnumerator_1_get_Current_m3792939945_AdjustorThunk
QNc:__Z55Register_UnityEngine_CanvasRenderer_DisableRectClippingv
m8f:_ValueCollection__ctor_m2110937032_gshared
Mtb:__ZN14SafeBinaryRead21TransferSTLStyleArrayI13dynamic_arrayI11ColorRGBA32Lj4EEEEvRT_17TransferMetaFlags
n6f:_Transform_1__ctor_m1781248964_gshared
kJb:__ZL26Transfer_SimpleNativeClassI24GenerateTypeTreeTransfer8GradientLb0EEvRK29SerializationCommandArgumentsR31RuntimeSerializationCommandInfo
kYf:__ZL118U3CCaretBlinkU3Ec__Iterator0_t2589889038_CustomAttributesCacheGenerator_U3CCaretBlinkU3Ec__Iterator0_Reset_m1547565867P21CustomAttributesCache
hUf:__ZL77ExecuteEvents_t3484638744_CustomAttributesCacheGenerator_U3CU3Ef__mgU24cache9P21CustomAttributesCache
jih:_InternalEnumerator_1_System_Collections_IEnumerator_get_Current_m888718134_gshared
fpd:_DateTime_FromTicks_m4059645178_AdjustorThunk
$Md:_Array_InternalArray__get_Item_TisClientCertificateType_t1004704908_m2297379651_gshared
wqi:_ConfigHandler_ParseTime_m1787834288
kDi:_SendMouseEvents_SendEvents_m2250241314
aFg:_Assembly_Load_m3487507613
RVb:__ZNSt3__27__sort4IRNS_6__lessIN4core12basic_stringIcNS2_20StringStorageDefaultIcEEEES6_EEPS6_EEjT0_SA_SA_SA_T_
qWj:dynCall_viiiifii
vpj:__ZN6il2cpp2gc19AppendOnlyGCHashMapINSt3__24pairIPK11Il2CppImageP11Il2CppClassEEP22Il2CppReflectionModule17ReflectionMapHashIS9_ENS2_8equal_toIS9_EEEC2Ev
W$:__Z20GetPersistentManagerv
FIc:_UNITY_TT_Set_Var_Design
yJf:__ZL84Object_t631007953_CustomAttributesCacheGenerator_Object_FindObjectOfType_m1736538631P21CustomAttributesCache
r8:__ZN21SystemInfoStringCache16StaticInitializeEPv
Pxf:__ZL80Convert_t2465617642_CustomAttributesCacheGenerator_Convert_ToDecimal_m1695757674P21CustomAttributesCache
NWg:_Selectable_get_targetGraphic_m559777690
v0h:_ReadOnlyCollection_1_System_Collections_Generic_ICollectionU3CTU3E_Remove_m1100818788_gshared
Dzj:__ZNK10KeyWrapperIP12Il2CppObjectE14EqualsComparerINSt3__28equal_toIS1_EEEclERKS2_S9_
a$h:_Collection_1_IsSynchronized_m2291009199_gshared
SBb:__ZNK13MonoBehaviour7GetNameEv
jwj:__ZN13dynamic_arrayIP12Il2CppObjectLj4EE9push_backEv
Xka:__ZN19ScriptingInvocation28AdjustArgumentsToMatchMethodEv
rSi:_IndexedSet_1_Contains_m1525966688_gshared
duj:__ZN6il2cpp6icalls8mscorlib6SystemL16ThrowInvalidCastEPK11Il2CppClassS5_
Njb:__Z20RenderMultipleMeshesRK15RenderNodeQueueRK18RenderMultipleData17ShaderChannelMask
IXi:_EqualityComparer_1_get_Default_m79107703_gshared
uzf:__ZL61MonoEnumInfo_t3694469084_CustomAttributesCacheGenerator_cacheP21CustomAttributesCache
$rg:_Latin1Encoding__ctor_m498920120
DSe:_List_1_Remove_m3499846711_gshared
qkj:__ZN6il2cpp2vm4Type19GetGenericParameterEPK10Il2CppType
vje:_StreamReader_Peek_m2272511193
m8d:_DateTimeFormatInfo_FillAllDateTimePatterns_m2683124783
qNc:__Z51Register_UnityEngine_CanvasGroup_get_blocksRaycastsv
Ioe:_NumberFormatter_get_IsFloatingSource_m3714711779
rsc:__ZN8JSONRead21TransferSTLStyleArrayI13dynamic_arrayI11ColorRGBA32Lj4EEEEvRT_18MemLabelIdentifier17TransferMetaFlags
Qhh:_InternalEnumerator_1_System_Collections_IEnumerator_Reset_m169899350_AdjustorThunk
Bzg:_Type_GetConstructor_m1195697116
td:_glBeginQuery
i8h:_Comparison_1_Invoke_m568154215_gshared
Inf:__ZL104RegionInfo_t1090270226_CustomAttributesCacheGenerator_RegionInfo_t1090270226____DisplayName_PropertyInfoP21CustomAttributesCache
C3j:b110
nPa:__ZN6Camera12RenderStereoENS_10RenderFlagE8CullFlagPNS_24PerformEyeRenderFunctionE
WU:__ZN20LocalFileSystemPosix10ToAbsoluteEPKc
Fjb:__ZN20TierGraphicsSettings8TransferI19StreamedBinaryWriteILb0EEEEvRT_
D3j:b111
yQh:__Z70RuntimeInvoker_Void_t1185182177_Int32_t2950945753_UICharInfo_t75501106PK10MethodInfoPvPS2_
uHj:__ZN6il2cpp2vm13ComObjectBase16DisconnectObjectEj
SOa:_UNITY_png_default_flush
hZi:_GenericComparer_1__ctor_m3652072706_gshared
Wo:__ZN6Object17MainThreadCleanupEv
gjb:__Z32TransferEnumWithNameForceIntSizeI14SafeBinaryRead7HDRModeEvRT_RT0_PKc17TransferMetaFlags
WRj:_getcwd
sei:_Component_GetComponent_m2813676312
ALh:__Z65RuntimeInvoker_Rect_t2360479859_Rect_t2360479859_Rect_t2360479859PK10MethodInfoPvPS2_
nab:__ZN25ThreadsafeLinearAllocatorD2Ev
n9:__Z21SendMessageToEveryoneRK17MessageIdentifier11MessageData
G5:__ZN21BillboardBatchManager16StaticInitializeEPv
J3j:b117
Nkd:_DateTime_AbsoluteDays_m4235097773
BX:__ZN12_GLOBAL__N_138ArchiveRedirectFileSystemStaticDestroyEPv
glf:__ZL126U3CGetEnumeratorU3Ec__Iterator0_t1202911786_CustomAttributesCacheGenerator_U3CGetEnumeratorU3Ec__Iterator0_Dispose_m2078994225P21CustomAttributesCache
qlf:__ZL69Type_t_CustomAttributesCacheGenerator_Type_GetConstructor_m1195697116P21CustomAttributesCache
zYd:_DefaultControls_CreateScrollView_m3842770629
obj:__ZNK15dense_hashtableINSt3__24pairIK10KeyWrapperI13dynamic_arrayIPK10Il2CppTypeLj4EEEPFvvEEES8_N6il2cpp8metadata19Il2CppSignatureHashEN14dense_hash_mapIS8_SB_SF_NS8_14EqualsComparerINSE_22Il2CppSignatureCompareEEENS0_9allocatorISC_EEE9SelectKeyESJ_SL_E5beginEv
Dof:__ZL94EnumBuilder_t2400448213_CustomAttributesCacheGenerator_EnumBuilder_GetConstructors_m3294436155P21CustomAttributesCache
Jkh:_InternalEnumerator_1_MoveNext_m1020308708_gshared
wu:__ZN7mecanim14ValueArrayCopyEPKNS_10ValueArrayEPS0_PKNS_14ValueArrayMaskE
XMi:_Lexer_State4_m1356451111
vae:_Guid_CompareTo_m243656946_AdjustorThunk
lwd:_CCMath_mod_m3631663509
cyg:_TimeSpan_Negate_m1889505500_AdjustorThunk
S3h:_ReadOnlyCollection_1_System_Collections_ICollection_CopyTo_m2715087453_gshared
wMh:__Z76RuntimeInvoker_Void_t1185182177_Il2CppObject_Il2CppObject_Single_t1397266774PK10MethodInfoPvPS2_
l5f:_Transform_1__ctor_m2810088858_gshared
J8f:_ValueCollection_System_Collections_ICollection_get_IsSynchronized_m624493528_gshared
Mwc:__ZNSt3__23mapIN20TextRenderingPrivate7FontRefEP11FT_FaceRec_NS_4lessIS2_EENS_9allocatorINS_4pairIKS2_S4_EEEEEixERS9_
LHa:__ZN17ArchiveFileSystem10AddStorageEP20ArchiveStorageReader
b3i:__ZL25UnresolvedVirtualCall_104P12Il2CppObjectS0_S0_S0_iPK10MethodInfo
jDa:__ZN12_GLOBAL__N_112UploadFormatE13TextureFormat
k$d:_Graphic_OnFillVBO_m1026749972
I6i:__ZN6il2cpp2vm5Class15GetEnumBaseTypeEP11Il2CppClass
aIe:_Context_set_WriteSequenceNumber_m942577065
QVd:_CanvasScaler_SetScaleFactor_m3006968999
aob:__ZNK9Texture2D16GetNpotTexelSizeEv
Eoe:_NumberFormatter_Init_m3576155222
owd:_CCMath_div_m3792567336
Wfi:_Display_get_systemWidth_m2297141419
qdd:_ArrayListWrapper_IndexOf_m3692065720
WPd:_EventSystem_set_sendNavigationEvents_m983981895
dsh:__Z109RuntimeInvoker_Boolean_t97287965_Il2CppObject_SByte_t1669577662_Int16U26_t3269100373_ExceptionU26_t3600731591PK10MethodInfoPvPS2_
cza:__ZN9GfxDevice22GetDefaultVertexBufferE26GfxDefaultVertexBufferTypej
Cyd:_Array_InternalArray__ICollection_Contains_TisInt64_t3736567304_m2911357929_gshared
DWh:_Collection_1_Remove_m3022471627_gshared
mSj:___fseeko_unlocked
fpe:_Object_ToString_m1740002499
aJf:__ZL81Object_t631007953_CustomAttributesCacheGenerator_Object_Destroy_m1895515052____t1P21CustomAttributesCache
tRd:_ExecuteEvents_GetEventChain_m2404658789
nha:__Z17BeginSplashScreenv
VJd:_Array_Resize_TisUILineInfo_t4195266810_m3763058392_gshared
lpg:_SByte_ToString_m3584531119_AdjustorThunk
STb:__ZN9ShaderLab16SerializedShader8TransferI19StreamedBinaryWriteILb0EEEEvRT_
gA:__ZN7mecanim9animation18CreateAvatarMemoryEPKNS0_14AvatarConstantERNS_6memory9AllocatorE
ibd:_Convert_ToInt32_m1876369743
QAe:_ModulusRing__ctor_m2420310199
Tkd:_Convert_ToDateTime_m626620011
uCh:__Z64RuntimeInvoker_Void_t1185182177_Il2CppObject_Decimal_t2948259380PK10MethodInfoPvPS2_
w3e:_Stack_1_System_Collections_ICollection_get_IsSynchronized_m2935127723_gshared
g4f:_Enumerator_System_Collections_IDictionaryEnumerator_get_Key_m2500634048_AdjustorThunk
vt:__ZN7mecanim8skeleton16SkeletonPoseCopyIN4math4trsXENS2_7affineXEEEvPKNS0_13SkeletonPoseTIT_EEPNS5_IT0_EE
$Kb:__Z18Transfer_BlittableI19StreamedBinaryWriteILb0EELb0EaEvRK29SerializationCommandArgumentsR31RuntimeSerializationCommandInfo
Kya:__ZN18GfxFramebufferGLES18GetFramebufferNameERK20GfxRenderTargetSetup
Fjj:__ZN6il2cpp2vm14TypeNameParser12ParseVersionERKNSt3__212basic_stringIcNS2_11char_traitsIcEENS2_9allocatorIcEEEERtSB_SB_SB_
TUj:_saveSetjmp
f4d:_InputField_MoveDown_m1455948167
Owj:__ZN6il2cpp6icalls8mscorlib6System2IO6MonoIO11GetFileTypeE12Il2CppIntPtrPi
fkc:__Z30Event_Get_Custom_PropCharacterP12Il2CppObject
rY:__ZN13PlayableGraph27SchedulePlayableDestructionERK9HPlayable
bme:_MethodAccessException__ctor_m3542088436
uZj:_glGetFramebufferAttachmentParameteriv__wrapper
rpi:_ChannelServices_GetCurrentChannelInfo_m3041604116
_yh:__Z58RuntimeInvoker_Il2CppObject_Int64_t3736567304_Il2CppObjectPK10MethodInfoPvPS2_
rnh:_InternalEnumerator_1__ctor_m2635640285_AdjustorThunk
tFb:__Z22scripting_array_length17ScriptingArrayPtr
tke:_SynchronizedReader_Peek_m148942882
doa:__ZN14SafeBinaryRead20TransferTypelessDataEjPvi
hPh:__Z52RuntimeInvoker_Int32_t2950945753_Vector4_t3319028937PK10MethodInfoPvPS2_
Unc:__ZN9rapidjson13GenericReaderINS_4UTF8IcEES2_13JSONAllocatorE10ParseFalseILj1ENS_25GenericInsituStringStreamIS2_EENS_15GenericDocumentIS2_S3_S3_EEEEvRT0_RT1_
Ccb:__ZN33AssetBundleLoadFromAsyncOperation7PerformEv
q_:__Z19GetActiveColorSpacev
HAc:_UNITY_tt_face_load_kern
ZNg:_MonoMethodInfo_GetDeclaringType_m2924452727
Y_:__Z6StrCmpPKcS0_
JEd:_Array_InternalArray__ICollection_Add_TisByte_t1134296376_m2816118303_gshared
YVh:_Collection_1_SetItem_m2280602743_gshared
lVb:__Z21CheckGpuProgramUsable20ShaderGpuProgramType
aFj:__ZN6il2cpp2os9Directory20GetFileSystemEntriesERKNSt3__212basic_stringIcNS2_11char_traitsIcEENS2_9allocatorIcEEEESA_iiPi
I5c:_Array_System_Collections_IList_Add_m1063688101
Jvc:__ZN20TextRenderingPrivate19NativeTextGenerator5SetupEv
_ui:_PatternCompiler_EmitAlternationEnd_m2444359097
Zxb:__ZN12AspectRatios8TransferI18StreamedBinaryReadILb0EEEEvRT_
Emd:_Convert_ToInt64_m3916071102
K2b:__ZN10GameObject14CopyPropertiesERS_
imc:__Z44Register_UnityEngine_GUIStyle_get_fixedWidthv
Azd:_Array_InternalArray__ICollection_Remove_TisLink_t544317964_m1280781374_gshared
rEj:__ZNSt3__214__split_bufferIN6il2cpp2os10ThreadImpl10APCRequestERNS_9allocatorIS4_EEEC2EjjS7_
c8c:_BitConverter_DoubleWordsAreSwapped_m1474345095
T5a:__ZNK13ScreenManager12IsFullScreenEv
Jdd:_FixedSizeArrayListWrapper_set_Capacity_m4221053039
HSj:_rand
XZj:_emscripten_glFramebufferRenderbuffer__wrapper
oTi:_ListPool_1__cctor_m3480273184_gshared
iYg:_Slider_FindSelectableOnLeft_m1667068522
MFj:__ZN6il2cpp5utils9PathUtils7CombineIcEENSt3__212basic_stringIT_NS3_11char_traitsIS5_EENS3_9allocatorIS5_EEEERKNS0_10StringViewIS5_EERKSA_
$Qd:__ZN23InterfaceActionInvoker1IP25BaseEventData_t3903027533E6InvokeEjP11Il2CppClassP12Il2CppObjectS1_
iGb:__ZN14SafeBinaryRead21TransferSTLStyleArrayINSt3__26vectorI17AnimationCurveTplIfE13stl_allocatorIS4_L18MemLabelIdentifier1ELi16EEEEEEvRT_17TransferMetaFlags
ned:_SynchronizedArrayListWrapper_Contains_m3809499313
Nzd:_Array_InternalArray__ICollection_Remove_TisLabelData_t360167391_m3556246844_gshared
mgh:_InternalEnumerator_1_MoveNext_m2156158931_AdjustorThunk
Cnj:__ZN15dense_hashtableINSt3__24pairIK10KeyWrapperINS1_IPK11Il2CppImageP11Il2CppClassEEEjEES9_17ReflectionMapHashIS8_EN14dense_hash_mapIS9_jSD_NS9_14EqualsComparerINS0_8equal_toIS8_EEEENS0_9allocatorISB_EEE9SelectKeyESI_SK_E12expand_arrayEjN21dense_hash_map_traits17integral_constantIbLb0EEE
HUc:_HMACSHA256__ctor_m346174875
r$a:__Z22PrepareOptimizedPlanesPK5PlaneiPKN4math7_float4E
Yhh:_InternalEnumerator_1__ctor_m1559487635_gshared
E5:__ZN17UniqueIDGenerator15CreatePureIndexEv
gB:__ZN11UnityEngine9Animation28GenericAnimationBindingCache15DidReloadDomainEv
XKf:__ZL88Animator_t434523843_CustomAttributesCacheGenerator_Animator_SetTriggerString_m2642918599P21CustomAttributesCache
J0g:_GUIStyle_get_normal_m3768217120
wIf:__ZL92Sprite_t280657092_CustomAttributesCacheGenerator_Sprite_INTERNAL_get_textureRect_m2235628502P21CustomAttributesCache
Y5i:__ZN15dense_hashtableINSt3__24pairIK10KeyWrapperIPK22Il2CppGenericParameterEP11Il2CppClassEES6_N6il2cpp5utils11PointerHashIS4_EEN14dense_hash_mapIS6_S9_SE_NS6_14EqualsComparerINS0_8equal_toIS5_EEEENS0_9allocatorISA_EEE9SelectKeyESJ_SL_E14squash_deletedEv
Kyb:__ZNSt3__26__treeINS_12__value_typeIN4core12basic_stringIcNS2_20StringStorageDefaultIcEEEE4PPtrI6ObjectEEENS_19__map_value_compareIS6_SA_NS_4lessIS6_EELb1EEE13stl_allocatorISA_L18MemLabelIdentifier51ELi16EEE7destroyEPNS_11__tree_nodeISA_PvEE
Duf:__ZL131RSACryptoServiceProvider_t2683512874_CustomAttributesCacheGenerator_RSACryptoServiceProvider_t2683512874____PublicOnly_PropertyInfoP21CustomAttributesCache
BHd:_Array_InternalArray__Insert_TisMark_t3471605523_m2854535880_gshared
e1b:__ZZL23RegisterLightPropertiesR22GenericPropertyBindingEN18Wrapper_LightRange13SetFloatValueEPvf
aLf:__ZL52HumanBone_t2465339518_CustomAttributesCacheGeneratorP21CustomAttributesCache
pBa:__ZNSt3__26vectorI27ComputeShaderBuiltinSamplerNS_9allocatorIS1_EEE21__push_back_slow_pathIKS1_EEvRT_
Jhg:_MethodReturnDictionary__cctor_m278392388
XNf:__ZL97CanvasGroup_t4083511760_CustomAttributesCacheGenerator_CanvasGroup_get_blocksRaycasts_m3740270137P21CustomAttributesCache
F_:__ZNK9Transform18TransformDirectionERK8Vector3f
gNe:_SslStreamBase_get_CanWrite_m1622082918
VKi:_JsonWriter_Write_m3439490280
PKa:__ZNK17ArchiveFileSystem12GetAssetGUIDERK13FileEntryData
cVb:__ZNSt3__26vectorIN9ShaderLab20SerializedSubProgram15MatrixParameterENS_9allocatorIS3_EEE21__push_back_slow_pathIKS3_EEvRT_
f_f:__ZL80CanvasScaler_t2767979955_CustomAttributesCacheGenerator_m_ReferencePixelsPerUnitP21CustomAttributesCache
iuf:__ZL47HMAC_t2621101144_CustomAttributesCacheGeneratorP21CustomAttributesCache
xse:_PrimalityTests_RabinMillerTest_m1471415870
OPe:_Enumerator_MoveNext_m2114485647_gshared
lKg:_GenericTypeParameterBuilder_GetCustomAttributes_m580748276
c2g:_GUIStyle_InternalOnAfterDeserialize_m1612061878
icj:__ZN15dense_hashtableINSt3__24pairIK10KeyWrapperIPK11Il2CppClassEPKcEES6_N6il2cpp5utils11PointerHashIS3_EEN14dense_hash_mapIS6_S9_SE_NS6_14EqualsComparerINS0_8equal_toIS5_EEEENS0_9allocatorISA_EEE9SelectKeyESJ_SL_E12resize_deltaEjj
ARh:__Z52RuntimeInvoker_TimeSpan_t881159249_Int32_t2950945753PK10MethodInfoPvPS2_
oUj:__ZNK10__cxxabiv120__si_class_type_info27has_unambiguous_public_baseEPNS_19__dynamic_cast_infoEPvi
fag:_Dictionary_2__ctor_m960225940_gshared
$Ab:__ZN24RingBufferMemoryFileData9SetLengthEy
VAe:_Kernel_LeftShift_m4140742987
PEg:_Assembly_GetManifestResourceInternal_m1224391897
hNa:__Z21WriteImageAsyncThreadPv
I4:__ZL16GetInterfaceImpl18UnityInterfaceGUID
$6i:__ZN6il2cpp2vmL17SetupFieldOffsetsENS0_15FieldLayoutKindEP11Il2CppClassjRKNSt3__26vectorIjNS4_9allocatorIjEEEE
oS:__ZN13EmscriptenWWW7GetSizeEv
jHj:__ZN6il2cpp6icalls8mscorlib6System15MonoCustomAttrs27GetCustomAttributesInternalEP12Il2CppObjectP20Il2CppReflectionTypeb
Vkh:_InternalEnumerator_1_get_Current_m1408339225_AdjustorThunk
NIc:_UNITY_TT_Set_MM_Blend
Mwa:__Z24PluginsSetGraphicsDevicePvi18GfxDeviceEventType
qMe:_InternalAsyncResult_get_FromWrite_m4228047810
oZh:_Collection_1_CopyTo_m955200729_gshared
bjb:__ZN22RenderingCommandBufferD0Ev
Hsc:__ZN8JSONRead21TransferSTLStyleArrayI13dynamic_arrayIsLj2EEEEvRT_18MemLabelIdentifier17TransferMetaFlags
RY:__ZNK18ScriptingObjectPtr17ToScriptingStringEv
cI:__ZL31InitializeAudioScriptingClassesv
SRa:__Z14SortGUIByDepthP10GUIElementS0_
NAh:__Z50RuntimeInvoker_Int64_t3736567304_SByte_t1669577662PK10MethodInfoPvPS2_
O4:__ZN13RuntimeStaticI13dynamic_arrayIPK31TransferFunctionScriptingTraitsLj4EELb0EE16StaticInitializeEPv
sJc:__Z37Register_UnityEngine_Font_get_dynamicv
Lzi:_UriParser__cctor_m3655686731
i6d:_LayoutRebuilder_U3Cs_RebuildersU3Em__0_m589488547
aai:_AnimatorStateInfo_IsTag_m4246855624
FV:__ZNK20LocalFileSystemPosix21GetAvailableDiskSpaceEPKcRy
u8:__ZNSt3__26__treeIiNS_4lessIiEENS_9allocatorIiEEE7destroyEPNS_11__tree_nodeIiPvEE
Bsa:__ZNK9GfxDevice14GetWorldMatrixEv
DGj:__ZN15dense_hashtableINSt3__24pairIK10KeyWrapperIPK19Il2CppGenericMethodEP10MethodInfoEES6_N6il2cpp8metadata23Il2CppGenericMethodHashEN14dense_hash_mapIS6_S9_SD_NS6_14EqualsComparerINSC_26Il2CppGenericMethodCompareEEENS0_9allocatorISA_EEE9SelectKeyESH_SJ_E13set_empty_keyERKSA_
OXg:_Slider_get_value_m739683640
CUa:__Z19scripting_array_new17ScriptingClassPtrjj
wwg:_WaitCallback_BeginInvoke_m3012509827
npb:__ZN14SafeBinaryRead21TransferSTLStyleArrayI13dynamic_arrayI12LightmapDataLj4EEEEvRT_17TransferMetaFlags
Oeb:__ZN21AssetBundleFileSystem11CreateAsDirER13FileEntryData
uSb:__ZNSt3__26vectorIN9ShaderLab20SerializedSubProgram16TextureParameterENS_9allocatorIS3_EEE6assignIPS3_EENS_9enable_ifIXaasr21__is_forward_iteratorIT_EE5valuesr16is_constructibleIS3_NS_15iterator_traitsISA_E9referenceEEE5valueEvE4typeESA_SA_
sEj:__ZNSt3__26vectorIN6il2cpp2os10ThreadImpl10APCRequestENS_9allocatorIS4_EEE26__swap_out_circular_bufferERNS_14__split_bufferIS4_RS6_EE
AKi:_JsonData_LitJson_IJsonWrapper_GetInt_m4078675261
bqj:__ZN15dense_hashtableINSt3__24pairIK10KeyWrapperIPK22Il2CppGenericParameterEPK24MonoGenericParameterInfoEES6_N6il2cpp5utils11PointerHashIS4_EEN14dense_hash_mapIS6_SA_SF_NS6_14EqualsComparerINS0_8equal_toIS5_EEEENS0_9allocatorISB_EEE9SelectKeyESK_SM_E15set_deleted_keyERKSB_
jpg:_SByte_TryParse_m2431806379
bAf:__ZL64ObjectDisposedException_t21392786_CustomAttributesCacheGeneratorP21CustomAttributesCache
cNh:__Z70RuntimeInvoker_Void_t1185182177_Int32_t2950945753_UIVertex_t4057497605PK10MethodInfoPvPS2_
_qg:_DSACryptoServiceProvider_get_KeySize_m786836990
Dg:_emscripten_exit_fullscreen
VVi:_U3CU3Ec__DisplayClass6_U3CinitializeU3Eb__2_m200982664
z6d:_Object_MemberwiseClone_m1474068832
GDj:__ZN6il2cpp6icalls8mscorlib6System6String19InternalAllocateStrEi
Psc:__Z29Transfer_Blittable_ArrayFieldI8JSONRead11QuaternionfEvRT_R9ArrayInfoRK23StaticTransferFieldInfo
hV:__ZN20LocalFileSystemPosix8SetFlagsER13FileEntryDatajj
tac:__Z45Register_UnityEngine_Camera_get_targetDisplayv
g0b:__ZNK24RendererAnimationBinding15GenerateBindingERKN4core12basic_stringIcNS0_20StringStorageDefaultIcEEEEbRN11UnityEngine9Animation14GenericBindingE
H9e:_IPv6Address__ctor_m3704187391
Pib:__Z15GetFlareManagerv
BXb:__ZN15ApplicationInfo24GetApplicationIdentifierEv
fbb:__ZN9Behaviour8TransferI18StreamedBinaryReadILb0EEEEvRT_
h1f:__ZL65Panel_SignIn_t876101507_CustomAttributesCacheGenerator_emailFieldP21CustomAttributesCache
jFd:_Array_InternalArray__ICollection_Add_TisResourceCacheItem_t51292791_m3851804827_gshared
gGi:_Transform_get_localPosition_m265057664
AR:__ZN19CloudServiceHandler10QueueEventEPN11UnityEngine15CloudWebService14CloudEventInfoE
rAe:_BigInteger_get_Rng_m3283260184
Goj:__ZN15dense_hashtableINSt3__24pairIK10KeyWrapperINS1_IPK9EventInfoP11Il2CppClassEEEjEES9_17ReflectionMapHashIS8_EN14dense_hash_mapIS9_jSD_NS9_14EqualsComparerINS0_8equal_toIS8_EEEENS0_9allocatorISB_EEE9SelectKeyESI_SK_E12maybe_shrinkEv
KAf:__ZL55EventHandler_t1348719766_CustomAttributesCacheGeneratorP21CustomAttributesCache
bu:__ZN7mecanim9animation16EvaluateAvatarDXEPKNS0_14AvatarConstantEPKNS0_11AvatarInputEPNS0_12AvatarMemoryEPNS0_15AvatarWorkspaceEPNS0_12AvatarOutputE
kTd:_RaycastResult_ToString_m2678663776_AdjustorThunk
lNd:_Array_InternalArray__get_Item_TisKeyValuePair_2_t2530217319_m2886833132_gshared
_Vg:_ScrollRect_OnEndDrag_m3202230060
Egc:__Z34Transform_CUSTOM_SetAsFirstSiblingP12Il2CppObject
Xkj:__ZNK15dense_hashtableINSt3__24pairIK10KeyWrapperINS1_IPK14Il2CppAssemblyP11Il2CppClassEEEjEES9_17ReflectionMapHashIS8_EN14dense_hash_mapIS9_jSD_NS9_14EqualsComparerINS0_8equal_toIS8_EEEENS0_9allocatorISB_EEE9SelectKeyESI_SK_E10test_emptyEj
Q$f:__ZL69Button_Back_t1431424664_CustomAttributesCacheGenerator_SignInPanelObjP21CustomAttributesCache
xRf:__ZL57SetupCoroutine_t2062820429_CustomAttributesCacheGeneratorP21CustomAttributesCache
W3d:_InputField_Delete_m3471899192
dzf:__ZL79Convert_t2465617642_CustomAttributesCacheGenerator_Convert_ToUInt64_m1627266664P21CustomAttributesCache
Irf:__ZL91UrlAttribute_t221584584_CustomAttributesCacheGenerator_UrlAttribute_IsContextOK_m1228378186P21CustomAttributesCache
hkg:_RemotingConfiguration_get_ProcessId_m2180277012
Mga:__ZN17PersistentManager40GlobalToLocalSerializedFileIndexInternalERK26SerializedObjectIdentifier
mP:__ZN11UnityEngine15CloudWebService17SessionEventQueue14ParseEventDataERKN4core12basic_stringIcNS2_20StringStorageDefaultIcEEEE
ckf:__ZL69Il2CppArray_CustomAttributesCacheGenerator_Array_GetValue_m2528415604P21CustomAttributesCache
gxa:__ZN13TranslateGLES4InitERK12GraphicsCaps16GfxDeviceLevelGL
TPb:__Z29Transfer_Blittable_ArrayFieldI18StreamedBinaryReadILb0EE10ColorRGBAfEvRT_R9ArrayInfoRK23StaticTransferFieldInfo
sWi:_EqualityComparer_1_get_Default_m180770000_gshared
xde:_Int64_System_IConvertible_ToUInt16_m848637338_AdjustorThunk
QJi:_JsonData_LitJson_IJsonWrapper_get_IsArray_m2530172191
CDd:_Array_InternalArray__IndexOf_TisLink_t544317964_m455584088_gshared
ozb:__ZNSt3__26vectorIN30RuntimeInitializeOnLoadManager15ClassMethodInfoE13stl_allocatorIS2_L18MemLabelIdentifier12ELi16EEE8__appendEj
o_b:__ZN13ProduceHelperI10TagManagerLb0EE7ProduceE18MemLabelIdentifier18ObjectCreationMode
uwe:_KeyGeneratedEventHandler__ctor_m1990062371
nZf:__ZL66Selectable_t3250028441_CustomAttributesCacheGenerator_m_TransitionP21CustomAttributesCache
JOj:__ZN6il2cpp2os6Memory12AlignedAllocEjj
ohi:_PersistentCall_get_arguments_m1263638726
XYg:_Text_set_alignByGeometry_m3828822280
sIj:__ZN6il2cpp8metadataL7CompareEPK10Il2CppTypeS3_
IHb:__Z18Transfer_BlittableI17RemapPPtrTransferLb0E11ColorRGBA32EvRK29SerializationCommandArgumentsR31RuntimeSerializationCommandInfo
O6e:_HybridDictionary__ctor_m1681134385
vOb:__Z18Transfer_BlittableI18StreamedBinaryReadILb0EELb1E10ColorRGBAfEvRK29SerializationCommandArgumentsR31RuntimeSerializationCommandInfo
snb:__ZN12CubemapArray23VirtualRedirectTransferER17RemapPPtrTransfer
myg:_TimeSpan_op_LessThan_m1594498345
t7b:__ZL27GetComponentsImplementationILb0ELi0EEbR10GameObjectbRK17CompareParametersRK39GetComponentsImplementation_ReturnValue
a6:__ZN26SharedLightmapSettingsDataD2Ev
i1e:_List_1__ctor_m446022677_gshared
PHi:_Vector3_get_normalized_m1684899259_AdjustorThunk
ksf:__ZL92ConstructionCallDictionary_t686578562_CustomAttributesCacheGenerator_U3CU3Ef__switchU24map24P21CustomAttributesCache
JZf:__ZL64Slider_t3903728902_CustomAttributesCacheGenerator_m_WholeNumbersP21CustomAttributesCache
T2:__ZL16ReadTypeTreeImplILb0EEbR8TypeTreeRK16TypeTreeIteratorRPKhS6_i
fhf:_Interval_Contains_m110351300_AdjustorThunk
kmd:_Convert_ToInt32_m3048308591
m$f:__ZL77LayoutUtility_t2745813735_CustomAttributesCacheGenerator_U3CU3Ef__amU24cache6P21CustomAttributesCache
kTg:_RectMask2D_OnCanvasHierarchyChanged_m3195492255
qqd:_DateTimeOffset_Equals_m3030958070
oVb:__ZN9ShaderLab7ProgramD0Ev
smb:__ZNK22BuiltinResourceManager21GetResourceInstanceIDEPKN5Unity4TypeERKN4core12basic_stringIcNS4_20StringStorageDefaultIcEEEE
Rua:__ZN9GfxDevice15BeginFrameStatsEv
Dbc:__Z42Register_UnityEngine_RectOffset_set_bottomv
Gkc:__Z28GUIStyleState_CUSTOM_CleanupP12Il2CppObject
O7d:_DateTimeFormatInfo_GetMonthName_m2034512315
NUa:__ZN28LightProbeProxyVolumeContext8CopyFromERKS_
o4h:_ReadOnlyCollection_1_System_Collections_Generic_IListU3CTU3E_Insert_m2489506856_gshared
$0a:__ZN23TransformChangeDispatch32QueueTransformChangeIfHasChangedER18TransformHierarchy
nqe:_SimpleCollator_ToDashTypeValue_m6184468
qCa:__ZN7ApiGLES18DeleteRenderbufferERj
kBa:__ZL23ProgramUniformMatrix4fvPK7ApiGLESjiihPKv
J0b:__ZN13ProduceHelperI11LightProbesLb0EE7ProduceE18MemLabelIdentifier18ObjectCreationMode
j7c:_Array_new_gap_m262136975
cSb:__ZN9ShaderLab20SerializedSubProgram15MatrixParameter8TransferI14SafeBinaryReadEEvRT_
v7b:__ZL27GetComponentsImplementationILb0ELi1EEbR10GameObjectbRK17CompareParametersRK39GetComponentsImplementation_ReturnValue
idf:_X509Store__ctor_m275383717
Uqe:_SimpleCollator_LastIndexOfOrdinalIgnoreCase_m2984667899
PHc:_Round_Down_To_Grid
Eca:__ZN13RenderTexture7ReleaseEv
hvb:__ZN10MeshFilter23VirtualRedirectTransferER14SafeBinaryRead
CZa:__ZN19ShaderPropertySheet26SetTextureWithExplicitSizeEN9ShaderLab16FastPropertyNameE9TextureIDiiff
N_f:__ZL64LayoutGroup_t2436138090_CustomAttributesCacheGenerator_m_PaddingP21CustomAttributesCache
Yaf:_AsnEncodedData_get_Oid_m402887164
rvb:__ZN12MeshRenderer17MainThreadCleanupEv
M6i:__ZN6il2cpp2vmL10InitLockedEP11Il2CppClassRKNS_2os12FastAutoLockE
t9b:__Z36AsyncOperation_Get_Custom_PropIsDoneP12Il2CppObject
$Ea:__ZN22CreateGpuProgramOutput12CreateParamsEv
iOe:_KeyValuePair_2_get_Value_m3122173819_AdjustorThunk
eNg:_MethodBase_GetMethodFromHandle_m286788163
ULi:_JsonReader_get_Value_m3034661202
A4h:_ReadOnlyCollection_1_System_Collections_IList_Insert_m177536056_gshared
TZd:_FontData_get_font_m2720086288
Nih:_InternalEnumerator_1_System_Collections_IEnumerator_get_Current_m548105685_gshared
Ywa:__ZNK14GfxContextGLES13GetDefaultFBOEv
J9c:_Byte_System_IConvertible_ToType_m2251112646
e2g:_GUIStyleState_ProduceGUIStyleStateFromDeserialization_m3019693491
Gnf:__ZL77RegionInfo_t1090270226_CustomAttributesCacheGenerator_U3CU3Ef__switchU24map1BP21CustomAttributesCache
jpd:_DateTime_get_Hour_m4153505178_AdjustorThunk
c$c:_Evidence_Equals_m1478353107
Ahf:_CostDelegate__ctor_m4027655829
ebg:_Dictionary_2_System_Collections_Generic_ICollectionU3CSystem_Collections_Generic_KeyValuePairU3CTKeyU2CTValueU3EU3E_get_IsReadOnly_m3868601443_gshared
NYe:_List_1_System_Collections_IList_set_Item_m1842844683_gshared
yTi:_ObjectPool_1__ctor_m2535233435_gshared
gSi:_EventFunction_1__ctor_m4292798223_gshared
Dtj:__ZN6il2cpp2vm6Thread49CheckCurrentThreadForInterruptAndThrowIfNecessaryEv
PFi:_TouchScreenKeyboard_Open_m1573053638
ckd:_Convert_ToChar_m3757390865
Kea:__ZNSt3__23mapIN9ShaderLab16FastPropertyNameEN18UnityPropertySheet11UnityTexEnvENS_4lessIS2_EENS_9allocatorINS_4pairIKS2_S4_EEEEEixERS9_
Mra:__ZNK13TranslateGLES25GetTextureTargetDimensionEj
n$e:_List_1__ctor_m668768191_gshared
T7h:_Comparison_1__ctor_m533218197_gshared
PJi:_JsonData_System_Collections_ICollection_get_SyncRoot_m1695797096
N1h:_ReadOnlyCollection_1_System_Collections_IList_Remove_m1842121503_gshared
oge:_File_OpenRead_m2936789020
Yfc:__Z47Texture2D_CUSTOM_INTERNAL_CALL_GetPixelBilinearP12Il2CppObjectffR10ColorRGBAf
wid:_Enumerator_get_Entry_m3561948123
Ai:_emscripten_glVertexAttrib4f
Rgi:_ArgumentCache_get_boolArgument_m4017632913
eHi:_Vector2_ToString_m592043461
ooh:_InternalEnumerator_1_System_Collections_IEnumerator_Reset_m4072625129_AdjustorThunk
Gki:_AnimatorControllerPlayable_INTERNAL_CALL_CrossFadeInFixedTimeInternal_m3039397247
OUb:__ZNSt3__26vectorIN20GpuProgramParameters14ConstantBufferENS_9allocatorIS2_EEE8__appendEj
Sdf:_X509CertificateCollection_AddRange_m3683116910
ulh:_InternalEnumerator_1_Dispose_m1837758743_AdjustorThunk
M4i:__ZL25UnresolvedVirtualCall_195P12Il2CppObject26DateTimeOffset_t3229287507S1_PK10MethodInfo
Spi:_SinkProviderData__ctor_m1624738837
cTa:__ZN11HaloManager21ReleaseGeometryJobMemEP25DynamicVBOGeometryJobData
cge:_DirectoryNotFoundException__ctor_m1689636868
f2h:_ReadOnlyCollection_1_System_Collections_Generic_IListU3CTU3E_get_Item_m978644313_gshared
yZh:_Collection_1_get_Item_m2253972692_gshared
uGg:_CustomAttributeTypedArgument_Equals_m2261980307
Pxa:__ZN4gles10SetTextureER15DeviceStateGLESjjj19BuiltinSamplerState
Wua:__ZN9GfxDevice18SetGlobalDepthBiasEff
esh:__Z58RuntimeInvoker_Int16_t2552820387_Il2CppObject_Il2CppObjectPK10MethodInfoPvPS2_
Ofj:__ZN6il2cpp6icalls8mscorlib6System8MonoType12get_AssemblyEP20Il2CppReflectionType
Xhe:_IsolatedStorageException__ctor_m3386787868
pMg:_TypeBuilder_MakeGenericType_m2799607032
ho:FUNCTION_TABLE_vi
Y6h:_ReadOnlyCollection_1_IndexOf_m3669095250_gshared
VFd:_Array_InternalArray__ICollection_CopyTo_TisKeyValuePair_2_t3016395677_m226208620_gshared
QSf:__ZL81Logger_t274032455_CustomAttributesCacheGenerator_Logger_set_logEnabled_m507755901P21CustomAttributesCache
Pt:__ZN8Animator22ApplyBuiltinRootMotionEv
Byj:__ZN15dense_hashtableI10KeyWrapperIP18Il2CppGenericClassES3_N6il2cpp8metadata22Il2CppGenericClassHashEN14dense_hash_setIS3_S6_NS3_14EqualsComparerINS5_25Il2CppGenericClassCompareEEENSt3__29allocatorIS3_EEE8IdentityESA_SD_E5clearEv
loe:_MulticastDelegate_KPM_m22863605
$lh:_InternalEnumerator_1_get_Current_m1897120917_AdjustorThunk
Jne:_MonoType_ReorderParamArrayArguments_m2458683451
Glg:_FormatterConverter_ToInt16_m4282804414
LCg:_UIntPtr__ctor_m698924671
PTd:_StandaloneInputModule_ProcessTouchPress_m4019232747
jge:_FileStream__ctor_m3151488352
i7c:_Array_swap_m547389985
grb:__ZN8Renderer23VirtualRedirectTransferER14SafeBinaryRead
OBg:_UInt32_ToString_m2420423038
LVe:_List_1_System_Collections_IList_Add_m634558835_gshared
R6h:_ReadOnlyCollection_1_System_Collections_IList_get_IsFixedSize_m1923250479_gshared
Pge:_FileStream_get_Length_m426703983
g7f:_Enumerator__ctor_m1558933899_AdjustorThunk
WAf:__ZL88BigInteger_t2902905090_CustomAttributesCacheGenerator_BigInteger_op_Implicit_m3414367033P21CustomAttributesCache
lRa:__Z27ConvertSubMeshesToTrianglesR13dynamic_arrayI7SubMeshLj4EERS_ItLj2EE
W6i:__ZN6il2cpp2vmL15GetBitmapNoInitEP11Il2CppClassPjRjj
W0e:_List_1_Remove_m2092085040_gshared
v9a:__ZL13MotionHandleriPK27EmscriptenDeviceMotionEventPv
FH:__ZN12AudioManager5ResetEv
aRf:__ZL68DisallowMultipleComponent_t1422053217_CustomAttributesCacheGeneratorP21CustomAttributesCache
m3b:__ZN15DirectorManager18ScheduleGraphStartERK14HPlayableGraph
Z1h:_ReadOnlyCollection_1_get_Count_m1336304542_gshared
R_i:_Button_CreateAccount_U3CSignUpU3Em__0_m710262411
u$f:__ZL111LayoutUtility_t2745813735_CustomAttributesCacheGenerator_LayoutUtility_U3CGetPreferredHeightU3Em__6_m3049688934P21CustomAttributesCache
gfe:_BinaryReader_ReadInt32_m2994982418
JFj:__ZN6il2cpp6icalls8mscorlib6System11Environment20GetWindowsFolderPathEi
tjd:_Convert_ToBoolean_m2833752130
fy:__ZN7mecanim5human18HumanPoseBlendNodeERNS0_9HumanPoseEPS1_f
FDc:_UNITY_FT_RoundFix
XUb:__ZN9ShaderLab20SerializedSubProgram15AddTextureParamEPKcii16TextureDimension
vr:__ZNK8Animator26GetTypeInfoVirtualInternalEv
yO:__ZN23CloudWebServicesManager23VirtualRedirectTransferER17RemapPPtrTransfer
ALj:_GC_is_heap_ptr
w9g:_RangeInt__ctor_m3370658309_AdjustorThunk
gte:_ASN1_DecodeTLV_m1200977460
zMe:_InternalAsyncResult_get_CompletedWithError_m3777099678
vbd:_Char_System_IConvertible_ToUInt32_m3901815580
XTg:_Scrollbar_set_onValueChanged_m346467699
bTi:_ListPool_1_Release_m957266927_gshared
Ysf:__ZL105ConfigHandler_t4192437216_CustomAttributesCacheGenerator_ConfigHandler_ValidatePath_m3895556516____paths1P21CustomAttributesCache
Ete:_BitConverterLE_ToInt16_m1855092160
bFf:__ZL105Component_t1923634451_CustomAttributesCacheGenerator_Component_SendMessageUpwards_m3320529579____options2P21CustomAttributesCache
cfa:__ZN14SafeBinaryRead19TransferSTLStyleMapINSt3__23mapIN4core12basic_stringIcNS3_20StringStorageDefaultIcEEEES7_NS1_4lessIS7_EE13stl_allocatorINS1_4pairIKS7_S7_EEL18MemLabelIdentifier1ELi16EEEEEEvRT_17TransferMetaFlags
DLc:__ZN2UI6Canvas27UpdateEventIndexesRecursiveERi
cx:__ZN7mecanim9animation18EvaluateRootMotionERKNS0_18ClipMuscleConstantERKNS0_15ClipMuscleInputEPKfS8_RNS0_12MotionOutputEb
sP:__ZN11UnityEngine15CloudWebService16SessionContainer21PrepareDataErrorEventERN4core12basic_stringIcNS2_20StringStorageDefaultIcEEEE
hRd:_ExecuteEvents_get_pointerUpHandler_m3515704212
ucd:_ArrayList_set_Item_m2003485935
BGj:__ZNSt3__218uninitialized_copyIPNS_4pairIK10KeyWrapperIPK19Il2CppGenericMethodEP10MethodInfoEESB_EET0_T_SD_SC_
yni:_SatelliteContractVersionAttribute__ctor_m3630863995
azf:__ZL79Convert_t2465617642_CustomAttributesCacheGenerator_Convert_ToUInt64_m3102114524P21CustomAttributesCache
ZSd:_MouseButtonEventData_PressedThisFrame_m1060658845
KOd:_AxisEventData_get_moveVector_m270528189
rLb:__Z19TransferField_ArrayI19StreamedBinaryWriteILb0EE27Converter_SimpleNativeClassI8GUIStyleEEvRK23StaticTransferFieldInfoR31RuntimeSerializationCommandInfoRT0_
e2h:_ReadOnlyCollection_1_System_Collections_Generic_IListU3CTU3E_RemoveAt_m3969985996_gshared
UTi:_SymmetricTransform_CFB_m1755507252
HDi:_SortingLayer_GetLayerValueFromID_m1500421328
qU:__ZNK13ScreenManager12GetIsFocusedEv
P$d:_GraphicRegistry_GetGraphicsForCanvas_m4219276355
UTf:__ZL90EventSystem_t1003666588_CustomAttributesCacheGenerator_EventSystem_get_current_m1416377559P21CustomAttributesCache
Sq:__ZL32CleanupAnimationScriptingClassesv
Gtf:__ZL59StreamingContext_t3711869237_CustomAttributesCacheGeneratorP21CustomAttributesCache
Ydj:__ZNSt3__213__vector_baseIN6il2cpp2os19SocketHandleWrapperENS_9allocatorIS3_EEED2Ev
xlf:__ZL48_Type_t3588564251_CustomAttributesCacheGeneratorP21CustomAttributesCache
jKi:_JsonData_set_Item_m1920107000
eXf:__ZL81FontUpdateTracker_t1839077620_CustomAttributesCacheGenerator_U3CU3Ef__mgU24cache0P21CustomAttributesCache
dc:invoke_viiffi
Knf:__ZL103RegionInfo_t1090270226_CustomAttributesCacheGenerator_RegionInfo_t1090270226____NativeName_PropertyInfoP21CustomAttributesCache
yde:_Int64_System_IConvertible_ToUInt32_m109903525
rSf:__ZL81UnityEvent_t2581268647_CustomAttributesCacheGenerator_UnityEvent__ctor_m974839563P21CustomAttributesCache
Nt:__ZNSt3__227__insertion_sort_incompleteIRPFbPKN8Animator11AnimatorJobES4_EPS4_EEbT0_S9_T_
H$f:__ZL92IMeshModifier_t1571826021_CustomAttributesCacheGenerator_IMeshModifier_ModifyMesh_m897646185P21CustomAttributesCache
pnb:__ZNK12CubemapArray20GetRuntimeMemorySizeEv
Xxg:_TimeSpan_FromHours_m1109641064
N_i:_Cmn_function_MessageBoxOK_m686251112
TSb:__Z14resize_trimmedINSt3__26vectorIN9ShaderLab18SerializedPropertyENS0_9allocatorIS3_EEEEEvRT_j
Sbj:__ZN6il2cpp2vm13MetadataCache38GetMethodInfoFromMethodDefinitionIndexEi
UPd:_EventSystem_set_current_m38955169
yfi:_CustomYieldInstruction_get_Current_m544197713
lZf:__ZL53Selectable_t3250028441_CustomAttributesCacheGeneratorP21CustomAttributesCache
Chf:_CostDelegate_EndInvoke_m2797921932
tsb:__ZN10VertexData8TransferI24GenerateTypeTreeTransferEEvRT_
Ijd:_Double_IsInfinity_m820013146
z8c:__ZN21InterfaceFuncInvoker1I19Decimal_t2948259380P12Il2CppObjectE6InvokeEjP11Il2CppClassS2_S2_
dGi:_TrackedReference_GetHashCode_m1270858212
gGj:__ZN13Il2CppHashMapIPK19Il2CppGenericMethodP10MethodInfoN6il2cpp8metadata23Il2CppGenericMethodHashENS6_26Il2CppGenericMethodCompareENSt3__29allocatorINS9_4pairIK10KeyWrapperIS2_ES4_EEEEEC2EjRKS7_RKS8_
zVe:_List_1_TrimExcess_m440552561_gshared
Cug:_UTF8Encoding_InternalGetByteCount_m2120178851
BIj:_GC_default_oom_fn
T_a:__ZL10CullLightsRK22SceneCullingParametersR11CullResults
iNf:__ZL95TextGenerator_t3211863866_CustomAttributesCacheGenerator_TextGenerator_get_lineCount_m467646179P21CustomAttributesCache
jod:_Convert_ToUInt64_m3170916409
kTh:__Z37RuntimeInvoker_Enumerator_t1957567516PK10MethodInfoPvPS2_
M0g:_GUIStyleState_GetGUIStyleState_m2565005256
Ky:__ZN7mecanim12statemachine20GetBlendTreeConstantERKNS0_13StateConstantEi
lde:_Int64_System_IConvertible_ToInt16_m4062196970_AdjustorThunk
eoe:_MonoType_GetGenericTypeDefinition_m3201894896
K3b:__Z40GetTemporaryCachePathApplicationSpecificv
hta:__ZN9GfxDevice16EndAsyncJobFrameEv
moj:__ZNK15dense_hashtableINSt3__24pairIK10KeyWrapperINS1_IPK12PropertyInfoP11Il2CppClassEEEjEES9_17ReflectionMapHashIS8_EN14dense_hash_mapIS9_jSD_NS9_14EqualsComparerINS0_8equal_toIS8_EEEENS0_9allocatorISB_EEE9SelectKeyESI_SK_E10test_emptyERK30dense_hashtable_const_iteratorISB_S9_SD_SM_SI_SK_E
AAc:_UNITY_tt_face_load_hhea
hIg:_DerivedType_get_Assembly_m2979298667
SAb:__ZN24RingBufferMemoryFileData11SetGrowableEb
Fk:___syscall3
mOf:__ZL113CanvasRenderer_t2598313366_CustomAttributesCacheGenerator_CanvasRenderer_SplitIndiciesStreamsInternal_m2583413468P21CustomAttributesCache
Ik:___syscall6
xua:__ZN9GfxDevice15GetNextCPUFenceEv
Kk:___syscall4
cig:_ReturnMessage__ctor_m2352989078
bNh:__Z53RuntimeInvoker_UIVertex_t4057497605_Int32_t2950945753PK10MethodInfoPvPS2_
MIi:_WWW_Dispose_m2234569747
Z5c:_Array_GetLongLength_m561139708
hAj:__ZN6il2cpp2vm3RCW14QueryInterfaceILb1EEEP14Il2CppIUnknownP15Il2CppComObjectRK10Il2CppGuid
kHe:_TlsServerCertificateRequest__ctor_m1334974076
DJh:__Z73RuntimeInvoker_Single_t1397266774_Vector2_t2156229523_Vector2_t2156229523PK10MethodInfoPvPS2_
nmd:_Convert_ToInt32_m1613163543
ERg:_MatEntry__ctor_m1949610076
G7b:__ZN9Scripting25BroadcastScriptingMessageER10GameObjectPKc18ScriptingObjectPtr
Zk:_emscripten_glShaderBinary
LSf:__ZL80Logger_t274032455_CustomAttributesCacheGenerator_U3ClogEnabledU3Ek__BackingFieldP21CustomAttributesCache
VAg:_UInt16_ToString_m760649087
uV:__ZNK20LocalFileSystemPosix6ExistsERK13FileEntryData
tu:__ZN7mecanim5human19MaskHasLeftFootGoalERKNS_6bitsetILj70EEE
XOc:__Z58Register_UnityEngine_Canvas_GetETC1SupportedCanvasMaterialv
lyg:_TimeSpan_op_Inequality_m2467851530
uNb:__ZN17AnimationCurveTplIfE8TransferI18StreamedBinaryReadILb1EEEEvRT_
QKd:_Array_Sort_TisUIVertex_t4057497605_m3996333845_gshared
pZc:_ToBase64Transform_get_CanReuseTransform_m702204640
SQc:__ZN18UnityConnectClientD2Ev
C7c:_Swapper_BeginInvoke_m1688449973
Mhc:__Z40WWW_Get_Custom_PropResponseHeadersStringP12Il2CppObject
mhj:_il2cpp_set_data_dir
bgb:__ZN16LevelGameManager23VirtualRedirectTransferER19StreamedBinaryWriteILb0EE
psb:__Z32TransferEnumWithNameForceIntSizeI14SafeBinaryRead16GfxPrimitiveTypeEvRT_RT0_PKc17TransferMetaFlags
nOh:__Z110RuntimeInvoker_Int32_t2950945753_Il2CppObject_AnimatorClipInfo_t3156717155_Int32_t2950945753_Int32_t2950945753PK10MethodInfoPvPS2_
x4e:_Collection_1_set_Item_m1056173816_gshared
Bnj:__ZN15dense_hashtableINSt3__24pairIK10KeyWrapperINS1_IPK11Il2CppImageP11Il2CppClassEEEjEES9_17ReflectionMapHashIS8_EN14dense_hash_mapIS9_jSD_NS9_14EqualsComparerINS0_8equal_toIS8_EEEENS0_9allocatorISB_EEE9SelectKeyESI_SK_E5clearEv
yxf:__ZL80Convert_t2465617642_CustomAttributesCacheGenerator_Convert_ToBoolean_m2807110707P21CustomAttributesCache
Ejf:__ZL72Enum_t4135868527_CustomAttributesCacheGenerator_Enum_GetName_m2151614395P21CustomAttributesCache
vSi:_IndexedSet_1_IndexOf_m241693686_gshared
g$h:_Collection_1_System_Collections_IList_Add_m1802516464_gshared
_Pc:__ZN11UnityEngine15PlatformWrapper30GetGraphicsDriverLibraryStringEv
nog:_RuntimeMethodHandle_Equals_m3301340296_AdjustorThunk
NJd:_Array_Resize_TisAnimatorClipInfo_t3156717155_m3215314758_gshared
hIi:_Vector4__ctor_m1702261405_AdjustorThunk
T1i:__ZL24UnresolvedVirtualCall_40P12Il2CppObjectS0_PK10MethodInfo
wTi:_ListPool_1__cctor_m704263611_gshared
wOb:__Z18Transfer_BlittableI18StreamedBinaryReadILb0EELb0E4AABBEvRK29SerializationCommandArgumentsR31RuntimeSerializationCommandInfo
Dah:_Rect_Contains_m2308869928_AdjustorThunk
D7g:_MonoBehaviour_StartCoroutine_Auto_m2947476851
v1a:__Z14DrawGUITextureRK5RectTIfEP7Texture11ColorRGBA32P8Materiali
a2h:_ReadOnlyCollection_1_System_Collections_Generic_ICollectionU3CTU3E_Add_m2686599243_gshared
Es:__ZN9BlobWrite8TransferI22OffsetPtrArrayTransferIKN4math7_float4EEEEvRT_PKc17TransferMetaFlags
$ba:__ZN15TextureSettings8TransferI24GenerateTypeTreeTransferEEvRT_
lqc:__ZN9JSONWrite8TransferI4AABBEEvRT_PKc17TransferMetaFlags
QIa:__ZN25MultiBlocksMemoryFileData9SetLengthEy
nTe:_List_1_Clear_m2154023298_gshared
FOd:_AbstractEventData_get_used_m2991176710
Bkh:_InternalEnumerator_1_get_Current_m3191242573_AdjustorThunk
iUi:_Aes__ctor_m178909601
Snb:__ZNK9Texture2D20GetRuntimeMemorySizeEv
DVd:_CanvasScaler_set_screenMatchMode_m2975492035
gm:_emscripten_glUniform2iv
c_i:_Enumerator_Dispose_m1204547613_AdjustorThunk
xwc:_UNITY_FT_Outline_Transform
KMd:_Mesh_SetUvsImpl_TisVector2_t2156229523_m984389559_gshared
Sfc:__Z60Register_UnityEngine_Sprites_DataUtility_Internal_GetMinSizev
n7i:__ZN6il2cpp2vm5Class10GetMethodsEP11Il2CppClassPPv
FWa:__Z30AddDefaultStreamsToMeshBuffersR9GfxDeviceR11MeshBuffersRK16DrawBuffersRange17ShaderChannelMaskS6_
rxa:__ZN7ApiGLES17DeleteFramebufferERN2gl6HandleILNS0_10ObjectTypeE9EEES3_
c7i:__ZN13dynamic_arrayIP11Il2CppClassLj4EE7reserveEj
dEa:__ZN15UniformTFMethod13MapBoneBufferEj
FKc:__ZN2UI14CanvasRendererD2Ev
CNd:_Array_InternalArray__get_Item_TisParameterModifier_t1461694466_m29553316_gshared
OMg:_FieldInfo_internal_from_handle_type_m3256989094
Dde:_Int64_CompareTo_m1928360444_AdjustorThunk
A8:__Z9SetupArgviPPKc
Fmd:_Convert_ToInt64_m2075031821
_di:_Color_GetHashCode_m3613701643
Jnc:__ZN9rapidjson13GenericReaderINS_4UTF8IcEES2_13JSONAllocatorE11ParseObjectILj0ENS_19GenericStringStreamIS2_EENS_15GenericDocumentIS2_S3_S3_EEEEvRT0_RT1_
Bkg:_RemotingException__ctor_m1015537352
X0j:_glTexParameteri__wrapper
kbb:__ZN12ImmediatePtrI10GameObjectE8TransferI19StreamedBinaryWriteILb0EEEEvRT_
tnb:__ZN12CubemapArray23VirtualRedirectTransferER24GenerateTypeTreeTransfer
B1i:__ZL24UnresolvedVirtualCall_22P12Il2CppObjectS0_iS0_S0_S0_PK10MethodInfo
v3:__ZN12FileAccessor4OpenER15FileSystemEntry14FilePermission16FileAutoBehavior
$Ej:__ZN6il2cpp2os9Directory6CreateERKNSt3__212basic_stringIcNS2_11char_traitsIcEENS2_9allocatorIcEEEEPi
aga:__ZN4PPtrI6ShaderE8TransferI18StreamedBinaryReadILb0EEEEvRT_
_0a:__ZN23TransformChangeDispatch32QueueTransformChangeIfHasChangedERK15TransformAccess
Qga:__ZNSt3__26vectorINS_4pairIN9ShaderLab16FastPropertyNameEN18UnityPropertySheet11UnityTexEnvEEENS_9allocatorIS6_EEE21__push_back_slow_pathIKS6_EEvRT_
cLa:__ZN15ArchiveReadFile5WriteEyPKvPy
vUh:__Z74RuntimeInvoker_Il2CppObject_UIVertex_t4057497605_Il2CppObject_Il2CppObjectPK10MethodInfoPvPS2_
LEg:_Assembly_get_FullName_m293988418
yub:__ZN18StreamedBinaryReadILb0EE21TransferSTLStyleArrayI13dynamic_arrayI16BlendShapeVertexLj4EEEEvRT_17TransferMetaFlags
yli:_PlayableHandle_Equals_m4241652461
mlc:__Z31GUIStyle_CUSTOM_SetFontInternalP12Il2CppObjectS0_
B:tempValue
$Mh:__Z80RuntimeInvoker_Boolean_t97287965_ColorBlockU26_t337120346_ColorBlock_t2139031574PK10MethodInfoPvPS2_
T7a:__Z29StdTemplateConversionFunctionIaiEbPvR14SafeBinaryRead
X5i:__ZNK10KeyWrapperIPK22Il2CppGenericParameterE14EqualsComparerINSt3__28equal_toIS2_EEEclERKS3_SA_
lPj:__ZN6il2cpp8metadata24Il2CppGenericContextHash4HashEPK20Il2CppGenericContext
hkh:_InternalEnumerator_1_get_Current_m356936020_AdjustorThunk
DZh:_Collection_1_CheckWritable_m1583234367_gshared
Sce:_Int32_ToString_m141394615_AdjustorThunk
ydd:_ArrayListWrapper_CopyTo_m498486826
ive:_SmallXmlParser_UnexpectedEndError_m1914362401
hz:__ZN26AnimatorControllerPlayable18DeallocateBindingsEv
ktf:__ZL61FormatterTypeStyle_t3400733584_CustomAttributesCacheGeneratorP21CustomAttributesCache
d6g:_Mathf_Abs_m4236457675
ncj:__ZN15dense_hashtableINSt3__24pairIK10KeyWrapperIPKcEP11Il2CppClassEES5_N6il2cpp5utils11StringUtils12StringHasherIS4_EEN14dense_hash_mapIS5_S8_SE_NS5_14EqualsComparerINSC_21CaseSensitiveComparerEEENS0_9allocatorIS9_EEE9SelectKeyESI_SK_E12resize_deltaEjj
nBc:_UNITY_FT_Stream_ReadAt
sna:__ZN9Texture3D34UpdateFileTextureUploadInstructionEP28FileTextureUploadInstructionj
jxg:_TimeSpan__ctor_m1896986612_AdjustorThunk
Pre:_ArgumentException__ctor_m1216717135
Hi:_glReadBuffer
DYe:_List_1_System_Collections_IList_Contains_m3860993176_gshared
Y3e:_Collection_1_System_Collections_IList_Contains_m3007059473_gshared
mN:__ZN11AudioModule22CreateAudioClipFromWWWEP10IWWWStreamPKcbbi
Xmg:_ObjectRecord_get_IsUnsolvedObjectReference_m1163921033
ZAg:_UInt32_System_IConvertible_ToBoolean_m1763673183_AdjustorThunk
CMc:__Z13RegisterClassIN2UI11CanvasGroupEEvv
nf:_emscripten_glClear
pzd:_Array_InternalArray__ICollection_Remove_TisByte_t1134296376_m2266787817_gshared
Ghg:_DictionaryEnumerator_get_Value_m2166220004
Kzf:__ZL72LoaderOptimization_t1484956347_CustomAttributesCacheGenerator_DomainMaskP21CustomAttributesCache
UKj:_GC_initialize_offsets
i3b:__ZNK8Playable6HandleEv
pXg:_SetPropertyUtility_SetColor_m2229203028
IUj:___cxa_guard_abort
o3f:_Enumerator_MoveNext_m481679286_gshared
I1:__ZN14MessageHandler28MessageIDToMessageIdentifierEi
r2f:_Enumerator_System_Collections_IDictionaryEnumerator_get_Value_m1697693617_AdjustorThunk
X2i:__ZL24UnresolvedVirtualCall_98P12Il2CppObject8IntPtr_tPK10MethodInfo
Zfe:_FileSystemInfo__ctor_m3035148496
iej:_Mesh_GetAllocArrayFromChannel_TisVector2_t2156229523_m2030487332_gshared
jce:_Int32_System_IConvertible_ToDecimal_m2190376994_AdjustorThunk
ONe:_KeyValuePair_2_set_Key_m2121548577_AdjustorThunk
f0i:_Panel_MainScene_U3CButtonClick_gameStartU3Em__3_m2871301280
jwf:__ZL88UTF7Encoding_t2644108479_CustomAttributesCacheGenerator_UTF7Encoding_GetBytes_m521917477P21CustomAttributesCache
Z$h:_ReadOnlyCollection_1_System_Collections_IEnumerable_GetEnumerator_m2009819261_gshared
KD:__Z51Register_UnityEngine_Animator_get_hasBoundPlayablesv
bHd:_Array_InternalArray__Insert_TisKeyValuePair_2_t3842366416_m961898847_gshared
Fd:emscriptenWebGLGetUniform
io:FUNCTION_TABLE_iiiiiiiiiii
aoa:__Z32TransferEnumWithNameForceIntSizeI14SafeBinaryRead13TextureFormatEvRT_RT0_PKc17TransferMetaFlags
axg:_WaitHandle_get_Handle_m3260446580
u0a:__ZL10CleanUpJobP20CullingGroupsJobData
EWa:__Z20IsRunningNativeTestsv
tfe:_DirectoryInfo_get_Exists_m3142069876
gvb:__ZN10MeshFilter23VirtualRedirectTransferER24GenerateTypeTreeTransfer
o1a:__ZN13RenderManager15BatchModeUpdateEv
oOi:_Predicate_1__ctor_m327447107_gshared
nNf:__ZL77Font_t1956802104_CustomAttributesCacheGenerator_Font_HasCharacter_m2728901030P21CustomAttributesCache
ptb:__ZN14SafeBinaryRead21TransferSTLStyleArrayI13dynamic_arrayI8Vector2fLj4EEEEvRT_17TransferMetaFlags
fXa:__Z14SetupLightmapsRK8Vector4fS1_R17ShaderPassContext
Lga:__ZN17PersistentManager51InstanceIDToLocalSerializedObjectIdentifierInternalEiR31LocalSerializedObjectIdentifier
QZi:_GenericEqualityComparer_1__ctor_m4072188982_gshared
rGc:_UNITY_FT_Create_Class_cff_services
Pzi:_UriParser_set_DefaultPort_m4007715058
id:_glVertexAttribIPointer
Vsg:_StringBuilder_ToString_m3317489284
x5b:__ZNK6Sprite10GetPaddingE20SpriteRenderDataMode
_zd:_Array_InternalArray__ICollection_Remove_TisUInt32_t2560061978_m733727733_gshared
Dpg:_CryptographicException__ctor_m503735289
$Kd:_Array_swap_TisKeyValuePair_2_t2530217319_TisKeyValuePair_2_t2530217319_m1847291765_gshared
Osi:_ConstructionCall_get_CallSiteActivationAttributes_m3498917408
Ijg:_RemotingConfiguration_get_ApplicationName_m593755586
hOd:_GameObject_AddComponent_TisIl2CppObject_m3469369570_gshared
$Di:_DataUtility_Internal_GetMinSize_m2954368021
mfj:__ZN6il2cpp2vm7Runtime10SetDataDirEPKc
a7g:_Mesh_GetUVChannel_m3402048366
mJi:_MathfInternal__cctor_m3796400441
mBc:_UNITY_ft_glyphslot_alloc_bitmap
scg:_Dictionary_2_GetObjectData_m3463318060_gshared
YKf:__ZL90Animator_t434523843_CustomAttributesCacheGenerator_Animator_ResetTriggerString_m1083629800P21CustomAttributesCache
hLe:_RSASslSignatureDeformatter_SetHashAlgorithm_m895570787
zzj:__ZN14dense_hash_mapI10KeyWrapperIP12Il2CppObjectEN6il2cpp2gc9CachedCCWENS4_5utils11PointerHashIS1_EENS3_14EqualsComparerINSt3__28equal_toIS2_EEEENSB_9allocatorINSB_4pairIKS3_S6_EEEEEC2EjRKS9_RKSE_
ECi:_X509CrlEntry__ctor_m4013514048
R9i:__ZN15dense_hashtableI10KeyWrapperIPK17Il2CppGenericInstES4_N6il2cpp8metadata21Il2CppGenericInstHashEN14dense_hash_setIS4_S7_NS4_14EqualsComparerINS6_24Il2CppGenericInstCompareEEENSt3__29allocatorIS4_EEE8IdentityESB_SE_E16reset_thresholdsEv
uZb:__ZZN2UI13RectTransform15InitializeClassEvEN31FunctorImpl_62kTransformChanged4CallEPviR11MessageData
E0f:__ZL79Panel_MainScene_t1057628098_CustomAttributesCacheGenerator_U3CU3Ef__amU24cache3P21CustomAttributesCache
ICc:_ft_raster1_render
_Pf:__ZL89GUIStyle_t3956901511_CustomAttributesCacheGenerator_GUIStyle_set_stretchWidth_m3968500777P21CustomAttributesCache
Xec:__Z57Register_UnityEngine_RectTransform_INTERNAL_set_anchorMaxv
ach:_RenderTexture_Internal_GetWidth_m3496340582
aRe:_Enumerator_get_Current_m3382684163_AdjustorThunk
D6g:_Matrix4x4_MultiplyPoint3x4_m1691748578
Efh:_InternalEnumerator_1_System_Collections_IEnumerator_Reset_m3677481164_AdjustorThunk
yTj:__ZNKSt3__221__basic_string_commonILb1EE20__throw_length_errorEv
_Wi:_EqualityComparer_1_System_Collections_IEqualityComparer_Equals_m245992594_gshared
CWg:_Selectable_get_allSelectables_m868218263
tgg:_EqualityComparer_1_System_Collections_IEqualityComparer_GetHashCode_m3428445395_gshared
SDd:_Array_InternalArray__IndexOf_TisParameterModifier_t1461694466_m1227120810_gshared
LCa:__ZN18GfxFramebufferGLES13ReadbackImageER14ImageReferenceiiiiii
yff:_FactoryCache__ctor_m206337971
tjg:_SerializationInfo_SetType_m3923964808
eia:__ZN6prcoreL12RemapGenericI17TexFormatARGB888815TexFormatRGB565EEvPKNS_9InnerInfoE
UI:__ZN4FMOD7Channel19setReverbPropertiesEPK29FMOD_REVERB_CHANNELPROPERTIES
rje:_StreamReader_Dispose_m156389394
h1:__ZN13MonoBehaviour22GetScriptFullClassNameEv
Bij:_il2cpp_object_get_class
hZc:_SymmetricAlgorithm_get_Padding_m1011382560
EWc:_RIPEMD160Managed_JJ_m112143231
yqh:_Comparer_1__ctor_m191896560_gshared
ore:_PreviousInfo_t2148130204_marshal_pinvoke_back
cIh:__Z103RuntimeInvoker_Void_t1185182177_Vector2U26_t2376273893_Il2CppObject_Il2CppObject_Vector2U26_t2376273893PK10MethodInfoPvPS2_
Rma:__ZN20SphericalHarmonicsL211AddWeightedERKS_f
Mei:_Component_get_tag_m3111332171
mIb:__Z19TransferField_ArrayI17RemapPPtrTransfer27Converter_SimpleNativeClassI8GUIStyleEEvRK23StaticTransferFieldInfoR31RuntimeSerializationCommandInfoRT0_
l$:__ZL22StaticInitializeShaderPv
wnc:__ZN9JSONWrite8TransferI10ColorRGBAfEEvRT_PKc17TransferMetaFlags
Bnh:_InternalEnumerator_1__ctor_m3913006324_AdjustorThunk
C1:__Z25scripting_method_get_name18ScriptingMethodPtr
efc:__Z35Register_UnityEngine_Resources_Loadv
sLe:_SslCipherSuite_ComputeKeys_m661027754
XGb:__Z19TransferField_ArrayI14SafeBinaryRead16Converter_StringEvRK23StaticTransferFieldInfoR31RuntimeSerializationCommandInfoRT0_
xjd:_Convert_ToBoolean_m481380807
dsd:_Decimal_Equals_m2486655999
WKj:_GC_exit_check
BFg:_AssemblyName_SetPublicKeyToken_m582470133
vOg:_MonoField__ctor_m5376011
lbh:_RectTransform_get_sizeDelta_m2136908840
hxh:__Z116RuntimeInvoker_Void_t1185182177_Il2CppObject_Int32_t2950945753_Int32_t2950945753_SByte_t1669577662_SByte_t1669577662PK10MethodInfoPvPS2_
zHj:__ZThn4_N6il2cpp2vm13ComObjectBase18ReleaseMarshalDataEP13Il2CppIStream
d0:__Z20UnlockObjectCreationv
Q0e:_List_1_GetEnumerator_m2825145182_gshared
LOg:_MonoField_ToString_m2518484388
fue:_DSAManaged_get_Random_m923751780
_ff:_Interpreter_PopulateGroup_m4042796257
k8i:__ZN13Il2CppHashMapIPKcP11Il2CppClassN6il2cpp5utils11StringUtils12StringHasherIS1_EENS6_21CaseSensitiveComparerENSt3__29allocatorINSA_4pairIK10KeyWrapperIS1_ES3_EEEEEC2EjRKS8_RKS9_
Cnh:_InternalEnumerator_1_System_Collections_IEnumerator_Reset_m1451164462_AdjustorThunk
vs:__ZN9BlobWrite8TransferI22OffsetPtrArrayTransferI9OffsetPtrIN7mecanim12statemachine18StateMachineMemoryEEEEEvRT_PKc17TransferMetaFlags
Jyc:_UNITY_ft_smooth_renderer_class_pic_free
ef:_emscripten_glStencilOpSeparate
WWh:_Collection_1_System_Collections_IList_IndexOf_m3894953546_gshared
OAi:_PKCS12_get_Certificates_m26161562
B7e:_NameObjectCollectionBase_Init_m2525481323
vkj:__ZN6il2cpp2vm4Type16GetDeclaringTypeEPK10Il2CppType
Bog:_SByte_System_IConvertible_ToByte_m2268214252_AdjustorThunk
pEj:__ZN6il2cpp2os10ThreadImpl12QueueUserAPCEPFvPvES2_
VF:__Z32TransferEnumWithNameForceIntSizeI14SafeBinaryReadN10SampleClip17CompressionFormatEEvRT_RT0_PKc17TransferMetaFlags
Oei:_Component_set_tag_m782554587
JQc:__ZN22BaseUnityConnectClient10QueueEventERN11UnityEngine15CloudWebService17CloudServiceEventEPKcjb
xMf:__ZL136AnimatorControllerPlayable_t1397024487_CustomAttributesCacheGenerator_AnimatorControllerPlayable_INTERNAL_CALL_SetBoolString_m4241698873P21CustomAttributesCache
b2h:_ReadOnlyCollection_1_System_Collections_Generic_ICollectionU3CTU3E_Clear_m522482168_gshared
YHg:_DerivedType_IsByRefImpl_m2585680005
Qsi:_ConstructionCall_InitMethodProperty_m2021094586
hIc:_UNITY_FT_Hypot
a_b:__ZN8RendererC2E12RendererType18MemLabelIdentifier18ObjectCreationMode
oPh:__Z56RuntimeInvoker_Void_t1185182177_KeyValuePair_2_t71524366PK10MethodInfoPvPS2_
m_f:__ZL74CanvasScaler_t2767979955_CustomAttributesCacheGenerator_m_DefaultSpriteDPIP21CustomAttributesCache
Phj:_il2cpp_class_is_abstract
Eki:_AnimatorControllerPlayable_CrossFadeInFixedTime_m2992048292
xf:_emscripten_glGetError
HJ:__Z14FMOD_FILE_SeekPvjS_
ZRg:_MaskableGraphic_OnDisable_m1757789159
W$d:_LayoutGroup__ctor_m2162961217
Cki:_AnimatorControllerPlayable_GetParameter_m862821821
zDg:_ValueType_t3640485471_marshal_pinvoke_cleanup
Y1a:__ZNK13RenderTexture32CalculateNeedsInvertedProjectionEv
J9a:__ZN10systeminfo18GetOperatingSystemEv
Ff:emscriptenWebGLGet
F3:__Z19CanReplaceComponentRN5Unity9ComponentEPKNS_4TypeEPN4core12basic_stringIcNS5_20StringStorageDefaultIcEEEE
Dle:_UnmanagedMemoryStream_Flush_m1540584491
gae:_GuidParser_ParseGuid2_m1914838819
l$b:__ZN12CubemapArray11InitTextureEiii13TextureFormatb
POj:__ZN6il2cpp2vm9LastError31InitializeLastErrorThreadStaticEv
VVe:_List_1_System_Collections_IList_get_Item_m1112579679_gshared
gnd:_Convert_ToSingle_m3983149863
Jeh:_InternalEnumerator_1_System_Collections_IEnumerator_get_Current_m55999184_gshared
LKh:__Z50RuntimeInvoker_TouchScreenKeyboardType_t1530597702PK10MethodInfoPvPS2_
tKh:__Z104RuntimeInvoker_Void_t1185182177_Color_t2555686324_Single_t1397266774_SByte_t1669577662_SByte_t1669577662PK10MethodInfoPvPS2_
P7f:_ValueCollection_System_Collections_Generic_ICollectionU3CTValueU3E_Contains_m1842955046_gshared
SHa:__ZNK15Lz4Decompressor20DecompressStreamInitEPPv
ymj:__ZN24dense_hashtable_iteratorINSt3__24pairIK10KeyWrapperIPK10Il2CppTypeEjEES6_N6il2cpp8metadata14Il2CppTypeHashEN14dense_hash_mapIS6_jSB_NS6_14EqualsComparerINSA_26Il2CppTypeEqualityComparerEEENS0_9allocatorIS8_EEE9SelectKeyESF_SH_E30advance_past_empty_and_deletedEv
ELh:__Z42RuntimeInvoker_ScreenMatchMode_t3675272090PK10MethodInfoPvPS2_
RMf:__ZL127AnimationClipPlayable_t2591841208_CustomAttributesCacheGenerator_AnimationClipPlayable_INTERNAL_CALL_GetApplyFootIK_m1802268754P21CustomAttributesCache
R_d:_Graphic_get_depth_m815589653
CE:__Z105Register_UnityEngine_Experimental_Director_AnimatorControllerPlayable_INTERNAL_CALL_GetLayerCountInternalv
VWd:_ContentSizeFitter_get_horizontalFit_m2773126143
ISi:_U3CStartU3Ec__Iterator0__ctor_m2366347741_gshared
dt:__ZN7mecanim5human13HumanFixTwistEPKNS0_5HumanEPNS_8skeleton13SkeletonPoseTIN4math4trsXEEES9_iiRKf
oXa:__ZL24AssignProjectorQueuesJobP30AssignProjectorQueuesJobHeader
grh:__Z50RuntimeInvoker_Int32_t2950945753_Int32_t2950945753PK10MethodInfoPvPS2_
LG:__ZN24AudioScriptBufferManagerC2Ev
v3i:__ZL25UnresolvedVirtualCall_124P12Il2CppObjectPK10MethodInfo
uQg:_ParameterModifier_t1461694466_marshal_pinvoke
sbe:_Int16_System_IConvertible_ToUInt32_m3410279543
UUb:__ZN9ShaderLab20SerializedSubProgram14SetConstBufferEPKci
hjj:__ZN6il2cpp2os4File5CloseEPNS0_10FileHandleEPi
kbh:_RectTransform_INTERNAL_set_anchoredPosition_m3924630850
Jaj:__ZNSt3__27__sort5IRN6il2cpp5utils11collections13ArrayValueMapIPK10Il2CppType17Il2CppInteropData26InteropDataToTypeConverterNS1_8metadata14Il2CppTypeLessENSA_26Il2CppTypeEqualityComparerEE12SortComparerEPS8_EEjT0_SH_SH_SH_SH_T_
sFi:_Texture_get_height_m97494195
IEc:_cf2_getStdVW
DAg:_UInt16_CompareTo_m2664746316_AdjustorThunk
Y7f:_ValueCollection_GetEnumerator_m616748621_gshared
fzh:__Z86RuntimeInvoker_Void_t1185182177_Il2CppObject_Il2CppObject_StreamingContext_t3711869237PK10MethodInfoPvPS2_
NT:__Z40DebugStringToFilePostprocessedStacktraceRK21DebugStringToFileData
aWh:_Collection_1_IsSynchronized_m2775206130_gshared
Xrc:__Z29Transfer_Blittable_ArrayFieldI8JSONReadjEvRT_R9ArrayInfoRK23StaticTransferFieldInfo
U5h:_ReadOnlyCollection_1_get_Item_m679165083_gshared
aLj:_GC_check_finalizer_nested
O$f:__ZL77U3CPrivateImplementationDetailsU3E_t3057255366_CustomAttributesCacheGeneratorP21CustomAttributesCache
kg:__setLetterbox
PEd:_Array_InternalArray__ICollection_Add_TisKeyValuePair_2_t3016395677_m3896790274_gshared
aha:__ZNSt3__26__treeINS_12__value_typeIN9ShaderLab16FastPropertyNameEfEENS_19__map_value_compareIS3_S4_NS_4lessIS3_EELb1EEENS_9allocatorIS4_EEE12__find_equalIS3_EERPNS_16__tree_node_baseIPvEENS_21__tree_const_iteratorIS4_PNS_11__tree_nodeIS4_SE_EEiEESH_RKT_
VVg:_ScrollRect_OnScroll_m3861066534
Bse:_BigInteger_op_LessThanOrEqual_m2553515144
kLi:_JsonWriter_PutString_m890241341
jTf:__ZL72FormerlySerializedAsAttribute_t2859083114_CustomAttributesCacheGeneratorP21CustomAttributesCache
e1f:__ZL121Panel_MainScene_t1057628098_CustomAttributesCacheGenerator_Panel_MainScene_U3CButtonClick_resendEmailU3Em__11_m2379279677P21CustomAttributesCache
Qui:_PatternCompiler_EmitFastRepeat_m3012952683
mgg:_EqualityComparer_1__ctor_m3773989354_gshared
dub:__ZNSt3__26vectorI17BlendShapeChannelNS_9allocatorIS1_EEE6assignINS_11__wrap_iterIPS1_EEEENS_9enable_ifIXaasr21__is_forward_iteratorIT_EE5valuesr16is_constructibleIS1_NS_15iterator_traitsISA_E9referenceEEE5valueEvE4typeESA_SA_
F1a:__ZN11TimeManager11GetRealtimeEv
mfe:_BinaryReader_ReadUInt32_m2210658763
UJ:__ZN29AudioEffectInternalDefinitionC2EP26UnityAudioEffectDefinitionb
N6h:_ReadOnlyCollection_1_System_Collections_IList_Remove_m2434650390_gshared
WAg:_UInt16_ToString_m3056878594_AdjustorThunk
GA:__ZN4PPtrI6AvatarE8TransferI18StreamedBinaryReadILb0EEEEvRT_
Ddg:_Dictionary_2_System_Collections_Generic_ICollectionU3CSystem_Collections_Generic_KeyValuePairU3CTKeyU2CTValueU3EU3E_Contains_m2803718146_gshared
Xgf:_Interval_get_IsSingleton_m3386290029
w3g:_GUIStyle_Internal_CalcSizeWithConstraints_m287899535
jQh:__Z71RuntimeInvoker_Void_t1185182177_Int32_t2950945753_LabelFixup_t858502054PK10MethodInfoPvPS2_
Ikj:__ZNSt3__2plIcNS_11char_traitsIcEENS_9allocatorIcEEEENS_12basic_stringIT_T0_T1_EERKS9_PKS6_
UZa:__ZN4Mesh14GetMeshBuffersER11MeshBuffers17ShaderChannelMaskPS_b
pYc:_SHA384Managed__ctor_m3220477113
Ena:_stbir_resize
aDd:_Array_IndexOf_TisCustomAttributeTypedArgument_t2723150157_m3158556463_gshared
AWi:_EqualityComparer_1_System_Collections_IEqualityComparer_GetHashCode_m360549782_gshared
xvd:_Environment_GetOSVersionString_m407782784
D4c:_DecoderExceptionFallback_Equals_m1082173956
xYi:_EqualityComparer_1_System_Collections_IEqualityComparer_GetHashCode_m345188086_gshared
CPh:__Z61RuntimeInvoker_Void_t1185182177_ParameterModifier_t1461694466PK10MethodInfoPvPS2_
mvb:__ZN4PPtrI4MeshE8TransferI14SafeBinaryReadEEvRT_
SJf:__ZL101SceneManager_t2787271929_CustomAttributesCacheGenerator_SceneManager_Internal_SceneLoaded_m4023393011P21CustomAttributesCache
moc:__Z18Transfer_BlittableI9JSONWriteLb0EfEvRK29SerializationCommandArgumentsR31RuntimeSerializationCommandInfo
rIa:__Z37ReadDirectoryInfo_UnityWebAndUnityRawR12FileAccessorRKN20ArchiveStorageHeader6HeaderERNS1_13DirectoryInfoE
T_:__ZNSt3__26__treeINS_12__value_typeIPKciEENS_19__map_value_compareIS3_S4_15compare_tstringIS3_ELb1EEENS_9allocatorIS4_EEE7destroyEPNS_11__tree_nodeIS4_PvEE
O5b:__ZN15GUIEventManager18RemoveEventAtIndexEi
bde:_Int64_System_IConvertible_ToByte_m375085029_AdjustorThunk
mpe:_Locale_GetText_m3374010885
NId:_Array_InternalArray__set_Item_TisAnimatorClipInfo_t3156717155_m21807017_gshared
u_h:_Collection_1_System_Collections_IEnumerable_GetEnumerator_m1598238343_gshared
aWc:_RijndaelManaged_CreateEncryptor_m263736311
Swg:_WaitCallback__ctor_m1893321019
mUa:__ZN20DynamicPropertySheet14SetValueQueuedEN9ShaderLab16FastPropertyNameEN19ShaderPropertySheet12PropertyTypeEjNS2_8SetFlagsE
Q4i:__ZL25UnresolvedVirtualCall_199P12Il2CppObject26ObjectMetadata_t3566284522S1_PK10MethodInfo
oLc:__ZN2UI6Canvas26MarkAllNestedCanvasesDirtyEv
Jhf:__ZL67Il2CppObject_CustomAttributesCacheGenerator_Object__ctor_m297566312P21CustomAttributesCache
Nxj:__ZN6il2cpp2vm12ReboxIfBoxedEP14Il2CppIUnknownP11Il2CppClass
u6a:__ZN25PathNamePersistentManagerD2Ev
Y$:__ZN17PersistentManager48IntegrateObjectAndUnlockIntegrationMutexInternalEi
XTf:__ZL55EventTrigger_t1076084509_CustomAttributesCacheGeneratorP21CustomAttributesCache
$$c:_SecurityElement_SearchForChildByTag_m900466299
Zo:__ZN6Object12SetHideFlagsENS_9HideFlagsE
Vte:_CryptoConvert_FromCapiPublicKeyBlob_m4073029974
YZj:_emscripten_glGetFramebufferAttachmentParameteriv__wrapper
lPa:__ZN13RendererScene15InitializeUmbraEv
Bma:__Z28CalculateGlobalMatrixInverse23TransformAccessReadOnly
qpc:__ZN4PPtrI6ObjectE8TransferI9JSONWriteEEvRT_
BQf:__ZL59GUITargetAttribute_t25796337_CustomAttributesCacheGeneratorP21CustomAttributesCache
ANh:__Z48RuntimeInvoker_Boolean_t97287965_Slot_t384495010PK10MethodInfoPvPS2_
nNd:_Array_InternalArray__get_Item_TisSlot_t3975888750_m905303097_gshared
teh:_InternalEnumerator_1_MoveNext_m299856312_gshared
Ugh:_InternalEnumerator_1_System_Collections_IEnumerator_Reset_m2386791007_AdjustorThunk
Kqh:__Z31RuntimeInvoker_Void_t1185182177PK10MethodInfoPvPS2_
z4c:_DecoderExceptionFallback__ctor_m4044614564
jOh:__Z85RuntimeInvoker_Int32_t2950945753_Il2CppObject_CustomAttributeNamedArgument_t287865710PK10MethodInfoPvPS2_
Mih:_InternalEnumerator_1_System_Collections_IEnumerator_Reset_m3011999097_AdjustorThunk
EOa:_UNITY_png_write_sCAL_s
Ile:_LocalDataStoreSlot__cctor_m644942532
jPj:__ZN6il2cpp6icalls8mscorlib6System6Object7GetTypeEP12Il2CppObject
BPg:_MonoProperty_CachePropertyInfo_m2968057423
_8i:__ZNK15dense_hashtableINSt3__24pairIK10KeyWrapperIPKcEP11Il2CppClassEES5_N6il2cpp5utils11StringUtils12StringHasherIS4_EEN14dense_hash_mapIS5_S8_SE_NS5_14EqualsComparerINSC_21CaseSensitiveComparerEEENS0_9allocatorIS9_EEE9SelectKeyESI_SK_E5beginEv
Fnf:__ZL53RegionInfo_t1090270226_CustomAttributesCacheGeneratorP21CustomAttributesCache
Oif:__ZL74Single_t1397266774_CustomAttributesCacheGenerator_Single_IsNaN_m4024467661P21CustomAttributesCache
Wxd:_Array_get_swapper_TisColor32_t2600501292_m2310851009_gshared
meg:_DefaultComparer__ctor_m857900415_gshared
fG:__ZN4FMOD6SoundI7releaseEv
eKi:_JsonData_System_Collections_IList_get_IsReadOnly_m978904392
cJa:__ZN10MemoryFile9SetLengthEy
Rhi:_ExecuteInEditMode__ctor_m2328450127
tpb:__ZN14SafeBinaryRead21TransferSTLStyleArrayI13dynamic_arrayI7Hash128Lj8EEEEvRT_17TransferMetaFlags
OCb:__Z28scripting_class_is_interface17ScriptingClassPtr
xh:_glTexStorage2D
DFh:__Z34RuntimeInvoker_Vector3_t3722313464PK10MethodInfoPvPS2_
Ghd:_SyncHashtable_get_Item_m2686606216
HUb:__ZNK9ShaderLab10SubProgram14EnsureCompiledEv
lLg:_MethodBuilder_GetGenericArguments_m1765425737
Apd:_DateTime_CompareTo_m3687348273
RJj:_GC_push_marked
Kbh:_RectTransformUtility_FlipLayoutOnAxis_m144305054
_re:_Kernel_modInverse_m668448880
xud:_Enum_t4135868527_marshal_pinvoke
msg:_Encoding_get_WebName_m1362487227
u1:__Z18BuildScriptClassId17ScriptingClassPtr
hwe:_RSAManaged_Finalize_m3915335854
mq:__ZNK16LevelGameManager7GetNameEv
P$b:__ZN8Renderer28HandleParentHierarchyChangesEPK23TransformAccessReadOnlyj
l7g:_Mesh_SetVertices_m2641879696
XV:__ZL31DeleteLastPathNameComponentImplRKN4core12basic_stringIcNS_20StringStorageDefaultIcEEEEPKc
Tqd:_DBNull_System_IConvertible_ToUInt64_m4072736670
Jke:_TextReader_Close_m3130290355
VQc:__ZN18UnityConnectClient15GetCloudServiceEv
AIb:__Z18Transfer_BlittableI24GenerateTypeTreeTransferLb0EiEvRK29SerializationCommandArgumentsR31RuntimeSerializationCommandInfo
Ajh:_InternalEnumerator_1_get_Current_m2698009637_gshared
f2g:_GUIStyleState_GetBackgroundInternalFromDeserialization_m3576650576
KCb:__ZL28SerializationCommandGroupForRK31TransferFunctionScriptingTraits17ScriptingClassPtr17ScriptingFieldPtrRK20CoreScriptingClasses
Dgb:__ZN10TagManager32RegisterDefaultTagsAndLayerMasksEv
dxg:_WaitHandle_Dispose_m738127030
g2f:_Enumerator_System_Collections_IEnumerator_get_Current_m3461102605_AdjustorThunk
C$e:_List_1_System_Collections_IList_get_IsReadOnly_m1729002068_gshared
rOi:_Predicate_1_EndInvoke_m1490920825_gshared
Lzf:__ZL78LoaderOptimization_t1484956347_CustomAttributesCacheGenerator_DisallowBindingsP21CustomAttributesCache
Edg:_Dictionary_2_System_Collections_Generic_ICollectionU3CSystem_Collections_Generic_KeyValuePairU3CTKeyU2CTValueU3EU3E_CopyTo_m3122240003_gshared
Cdb:__ZN14CachingManager12ReadInfoFileERKN4core12basic_stringIcNS0_20StringStorageDefaultIcEEEEPlPNSt3__26vectorIS4_NS8_9allocatorIS4_EEEE
a$e:_List_1_Remove_m3853969205_gshared
qRe:_Enumerator_System_Collections_IEnumerator_get_Current_m1540440674_gshared
Y0c:_Single_System_IConvertible_ToInt16_m809233024_AdjustorThunk
NRj:_fmodf
e2d:_InputField_UpdateLabel_m1837760870
fxa:__ZN4gles8InitCapsEP7ApiGLESP12GraphicsCapsR16GfxDeviceLevelGL
zha:__ZN6prcore14BlitImageFloatERK14ImageReferenceRS0_NS0_8BlitModeE
qeb:__ZN21AssetBundleFileSystem4ReadER13FileEntryDatayyPvPy
ei:_glEnable
vfb:__ZNK13Lz4Compressor29CalculateCompressedBufferSizeEj
Plh:_InternalEnumerator_1_MoveNext_m973048327_gshared
bfj:__ZN6il2cpp2vm19SocketPollingThreadC2Ev
bSa:__ZNK25CameraStackRenderingState21GetImageEffectTextureEb
E4g:_HumanBone_t2465339518_marshal_pinvoke_cleanup
TZi:_Enumerator__ctor_m1590062855_AdjustorThunk
Dyb:__ZNSt3__26vectorI4PPtrI6ObjectE13stl_allocatorIS3_L18MemLabelIdentifier51ELi16EEE6assignINS_11__wrap_iterIPS3_EEEENS_9enable_ifIXaasr21__is_forward_iteratorIT_EE5valuesr16is_constructibleIS3_NS_15iterator_traitsISD_E9referenceEEE5valueEvE4typeESD_SD_
MNf:__ZL85Canvas_t3310196443_CustomAttributesCacheGenerator_Canvas_set_sortingOrder_m2825109295P21CustomAttributesCache
btf:__ZL54SoapServices_t133988723_CustomAttributesCacheGeneratorP21CustomAttributesCache
hle:_UnexceptionalStreamReader_Peek_m1842169584
APc:__ZN11UnityEngine7Connect15DeviceInfoEvent16CollectExtraInfoEv
zYf:__ZL66Navigation_t3049316579_CustomAttributesCacheGenerator_m_SelectOnUpP21CustomAttributesCache
uah:_Rect_get_size_m3542039952_AdjustorThunk
kod:_Convert_ChangeType_m739676612
YSj:_atoi
oce:_Int32_System_IConvertible_ToInt32_m265310525_AdjustorThunk
ZSj:_atol
YMj:__ZN6il2cpp6icalls8mscorlib6System10Reflection9FieldInfo25internal_from_handle_typeE12Il2CppIntPtrS5_
WLj:__ZThn8_N6il2cpp2vm13CachedCCWBaseINS0_13ManagedObjectEE6AddRefEv
DEe:_Alert_GetAlertMessage_m1942367141
uZf:__ZL88Selectable_t3250028441_CustomAttributesCacheGenerator_U3CisPointerDownU3Ek__BackingFieldP21CustomAttributesCache
vig:_RemotingServices_GetRealProxy_m2081098851
Lte:_BlockProcessor_Core_m189015002
e_j:_emscripten_glScissor__wrapper
h4g:_GUIStyleState__ctor_m1882292417
mo:FUNCTION_TABLE_viifi
no:FUNCTION_TABLE_viiff
pye:_X501__cctor_m1166912714
SUf:__ZL102PointerEventData_t3807901092_CustomAttributesCacheGenerator_PointerEventData_set_lastPress_m2928324031P21CustomAttributesCache
mlf:__ZL37Type_t_CustomAttributesCacheGeneratorP21CustomAttributesCache
wIc:_UNITY_tt_face_free_hdmx
Qrj:__ZN15dense_hashtableINSt3__24pairIK10KeyWrapperINS1_IP11Il2CppClassjEEES4_EES6_N6il2cpp8metadata14ArrayClassHashEN14dense_hash_mapIS6_S4_SB_NS6_14EqualsComparerINSA_17ArrayClassCompareEEENS0_9allocatorIS8_EEE9SelectKeyESF_SH_E5clearEv
Qag:_Dictionary_2_get_Values_m136306313_gshared
I8i:__ZNSt3__218uninitialized_copyIPNS_4pairIK10KeyWrapperIPK11Il2CppClassEPKcEESB_EET0_T_SD_SC_
ojj:__ZN6il2cpp2vm14TypeNameParser5ParseEb
Zle:_Math_Sqrt_m1297338011
Kje:_StreamWriter_Initialize_m3490883444
Ezg:_Type_GetGenericArguments_m3500465462
Ush:__Z66RuntimeInvoker_Int32_t2950945753_Il2CppObject_Int32U26_t1369213839PK10MethodInfoPvPS2_
ZSc:__ZN23UnityPurchasingSettingsC2Ev
wUj:__ZNSt9bad_allocD0Ev
GNg:_Module_IsDefined_m2423524910
Fdf:_X509Certificate2Enumerator__ctor_m1083666285
dDd:_Array_IndexOf_TisColor32_t2600501292_m2718632137_gshared
mZf:__ZL66Selectable_t3250028441_CustomAttributesCacheGenerator_m_NavigationP21CustomAttributesCache
PQg:_ResolveEventHandler__ctor_m1911137231
pYh:_Collection_1_System_Collections_IList_Contains_m2393482847_gshared
_6f:_Enumerator_System_Collections_IEnumerator_Reset_m618244593_gshared
$Cd:_Array_IndexOf_TisCustomAttributeNamedArgument_t287865710_m2817957199_gshared
N5:__ZNSt3__26__treeINS_12__value_typeI18VertexChannelsInfo16MeshVertexFormatEENS_19__map_value_compareIS2_S4_NS_4lessIS2_EELb1EEE13stl_allocatorIS4_L18MemLabelIdentifier16ELi16EEE12__find_equalIS2_EERPNS_16__tree_node_baseIPvEENS_21__tree_const_iteratorIS4_PNS_11__tree_nodeIS4_SF_EEiEESI_RKT_
k1h:_ReadOnlyCollection_1_System_Collections_IList_RemoveAt_m1980090087_gshared
Kna:__ZL37stbir__resample_horizontal_downsampleP11stbir__infoiPf
Wzi:_ExtendedKeyUsageExtension_ToString_m2116504780
ala:__ZNK5Unity9Component38MarkGameObjectAndComponentDependenciesER27GarbageCollectorThreadState
fW:__ZL16OutOfMemoryErrorjj18MemLabelIdentifieriPKc
Yee:_BinaryReader_Read_m3708759962
K4g:_Input_GetKeyDownInt_m3866582026
ONa:_UNITY_png_write_data
bM:__ZNK7Texture21GetShadowSamplingModeEv
cuh:__Z33RuntimeInvoker_UInt64_t4134040092PK10MethodInfoPvPS2_
FU:__ZN13ScreenManager21OnWindowRegainedFocusEv
bPb:__Z18Transfer_BlittableI18StreamedBinaryReadILb0EELb1EdEvRK29SerializationCommandArgumentsR31RuntimeSerializationCommandInfo
x$j:_emscripten_glVertexAttrib2fv__wrapper
oTc:__ZN13RuntimeStaticINSt3__26vectorIPN5physx15PxVehicleWheelsENS0_9allocatorIS4_EEEELb0EE13StaticDestroyEPv
vke:_SynchronizedReader_ReadToEnd_m2160105378
_td:_Double_System_IConvertible_ToUInt16_m4132603953_AdjustorThunk
Sza:__ZN4crnd12symbol_codec32decode_receive_static_data_modelERNS_25static_huffman_data_modelE
pZb:__ZN18ScriptingArguments8AddFloatEf
Chb:__ZN6Camera23VirtualRedirectTransferER24GenerateTypeTreeTransfer
S$i:_Panel_MainScene_GoSignInPanel_m2644572130
Yoc:__Z18Transfer_BlittableI9JSONWriteLb0EaEvRK29SerializationCommandArgumentsR31RuntimeSerializationCommandInfo
OO:__ZN11UnityEngine15CloudWebService14DataDispatcher34OnSessionContainerArchivedAndReadyERNS0_16SessionContainerE
ZAe:_Kernel_Multiply_m193213393
Wme:_IntComparer__ctor_m2901422390
Xyf:__ZL79Convert_t2465617642_CustomAttributesCacheGenerator_Convert_ToUInt32_m1767593911P21CustomAttributesCache
juf:__ZL50HMACMD5_t2742219965_CustomAttributesCacheGeneratorP21CustomAttributesCache
Qph:_Comparer_1__ctor_m1078828713_gshared
tKb:__Z18Transfer_BlittableI19StreamedBinaryWriteILb0EELb0E8Vector3fEvRK29SerializationCommandArgumentsR31RuntimeSerializationCommandInfo
nQe:_Enumerator_VerifyState_m2621680056_gshared
Zyi:_UriParser_InternalRegister_m3643767086
aRb:__ZN14SafeBinaryRead19TransferSTLStyleMapINSt3__23mapIN4core12basic_stringIcNS3_20StringStorageDefaultIcEEEEiNS1_4lessIS7_EENS1_9allocatorINS1_4pairIKS7_iEEEEEEEEvRT_17TransferMetaFlags
P7d:_DateTimeFormatInfo_get_RawAbbreviatedDayNames_m1257850285
ynj:__ZN15dense_hashtableINSt3__24pairIK10KeyWrapperINS1_IPK11Il2CppImageP11Il2CppClassEEEjEES9_17ReflectionMapHashIS8_EN14dense_hash_mapIS9_jSD_NS9_14EqualsComparerINS0_8equal_toIS8_EEEENS0_9allocatorISB_EEE9SelectKeyESI_SK_ED2Ev
dAc:_gray_move_to
Pqd:_DBNull_System_IConvertible_ToSingle_m13713620
V_f:__ZL127U3CDelayedSetDirtyU3Ec__Iterator0_t3170500204_CustomAttributesCacheGenerator_U3CDelayedSetDirtyU3Ec__Iterator0_Reset_m160466733P21CustomAttributesCache
Xzb:__ZN5Cache9URLToPathERKN4core12basic_stringIcNS0_20StringStorageDefaultIcEEEE7Hash128
gHi:_Vector2_GetHashCode_m2690926524
g1h:_ReadOnlyCollection_1_System_Collections_IList_Contains_m1327645028_gshared
s1d:_Image_GetDrawingDimensions_m3060965396
qFh:__Z88RuntimeInvoker_Void_t1185182177_Int32_t2950945753_Il2CppObject_Il2CppObject_Il2CppObjectPK10MethodInfoPvPS2_
rNf:__ZL69FontTextureRebuildCallback_t2467502454_CustomAttributesCacheGeneratorP21CustomAttributesCache
Z6b:__Z30RegisterValidateMethodCallbackiPF18ScriptingMethodPtrS_17ScriptingClassPtrP6ObjectEPKc
EW:__ZN20LocalFileSystemPosixD0Ev
mFg:_AssemblyDescriptionAttribute__ctor_m3993445315
$He:_Context_get_WriteSequenceNumber_m1115956887
tze:_Activator_CreateInstanceInternal_m1337209899
Rsh:__Z58RuntimeInvoker_Il2CppObject_Int32_t2950945753_Il2CppObjectPK10MethodInfoPvPS2_
gMd:_Dictionary_2_Do_ICollectionCopyTo_TisKeyValuePair_2_t2401056908_m1169495264_gshared
ULg:_OpCodes__cctor_m3821715395
UWd:_ContentSizeFitter__ctor_m2349275633
teb:__ZN21AssetBundleFileSystem5WriteER13FileEntryDatayPvPy
KBf:__ZL56TypeConverter_t2249118273_CustomAttributesCacheGeneratorP21CustomAttributesCache
$Xh:_Collection_1_RemoveAt_m3506636491_gshared
BBc:_tt_cmap_init
iBa:__ZL25ProgramUniformMatrix4x2fvPK7ApiGLESjiihPKv
XYb:__ZN9TextAssetC2E18MemLabelIdentifier18ObjectCreationMode
I_d:_Graphic_OnRectTransformDimensionsChange_m3695755375
Dog:_SByte_System_IConvertible_ToChar_m1489191771_AdjustorThunk
VNh:__Z53RuntimeInvoker_Boolean_t97287965_UIVertex_t4057497605PK10MethodInfoPvPS2_
Rgf:_Interval_t1802865632_marshal_pinvoke_cleanup
atj:__ZNK15dense_hashtableINSt3__24pairIK10KeyWrapperIP11Il2CppClassES4_EES5_N6il2cpp8metadata16SZArrayClassHashEN14dense_hash_mapIS5_S4_SA_NS5_14EqualsComparerINS9_19SZArrayClassCompareEEENS0_9allocatorIS7_EEE9SelectKeyESE_SG_E12test_deletedEj
c$d:_Graphic_GraphicUpdateComplete_m1502194795
rrc:__Z18Transfer_BlittableI8JSONReadLb0EdEvRK29SerializationCommandArgumentsR31RuntimeSerializationCommandInfo
$ri:_SynchronizationAttribute_EnterContext_m1660729920
fCd:__ZN21InterfaceFuncInvoker2Ii26KeyValuePair_2_t2530217319S0_E6InvokeEjP11Il2CppClassP12Il2CppObjectS0_S0_
m1h:_ReadOnlyCollection_1_System_Collections_ICollection_get_SyncRoot_m2522539235_gshared
ISg:_VertexHelper_Clear_m627349662
SDh:__Z60RuntimeInvoker_X509ChainStatusFlags_t1026973125_Il2CppObjectPK10MethodInfoPvPS2_
Hm:FUNCTION_TABLE_viiiiiifiii
Csa:__ZNK9GfxDevice13GetViewMatrixEv
Ele:_UnmanagedMemoryStream_Dispose_m2681886347
mla:__ZN17RemapPPtrTransferC2E24TransferInstructionFlagsb
yld:_Convert_ToDecimal_m889385228
$ud:_Enum_get_value_m3943994903
D9h:_AnimationEvent_get_animationState_m2229874910
_6c:_Array_Reverse_m3714848183
cZd:_Dropdown_ClearOptions_m4085591601
iWd:_CanvasUpdateRegistry_InternalRegisterCanvasElementForGraphicRebuild_m3522560454
EOe:_KeyValuePair_2__ctor_m880186442_gshared
xla:__ZN18LoadSceneOperation23GetAllowSceneActivationEv
$Wi:_EqualityComparer_1_get_Default_m1811086326_gshared
Aja:__ZN11prophecysdk4half7convertEi
MIh:__Z84RuntimeInvoker_Void_t1185182177_Il2CppObject_Int32_t2950945753_IntPtrU26_t2465655971PK10MethodInfoPvPS2_
thb:__ZN6CameraD0Ev
s7:__ZN31CanvasBatchIntermediateRenderer16StaticInitializeEPv
y_h:_Collection_1_System_Collections_IList_IndexOf_m837396833_gshared
l5c:_EncoderFallback__cctor_m3806755293
B3a:__ZN10GameObjectC2E18MemLabelIdentifier18ObjectCreationMode
gzc:_raccess_guess_apple_double
SAa:__ZL18ProgramUniform1uivPK7ApiGLESjiihPKv
v$b:__ZN14Texture2DArray13RebuildMipMapEv
i8i:__ZN13Il2CppHashSetIPK17Il2CppGenericInstN6il2cpp8metadata21Il2CppGenericInstHashENS4_24Il2CppGenericInstCompareENSt3__29allocatorI10KeyWrapperIS2_EEEEC2EjRKS5_RKS6_
TEb:__Z18Transfer_BlittableI14SafeBinaryReadLb1EaEvRK29SerializationCommandArgumentsR31RuntimeSerializationCommandInfo
vFj:__ZN6il2cpp2gc16GarbageCollector14RemoveWeakLinkEPPv
VUb:__ZN9ShaderLab20SerializedSubProgram14AddVectorParamEPKcii15ShaderParamTypei
YMc:__ZN2UI14CanvasRenderer12CleanupClassEv
Pid:_Enumerator__ctor_m3362421874
uci:_Camera_FireOnPreCull_m2863664483
p3j:_emscripten_glIsFramebuffer__wrapper
Feb:__ZNK17FileSystemHandler6ParentERK13FileEntryDataRN4core12basic_stringIcNS3_20StringStorageDefaultIcEEEE
WBj:__ZN6il2cpp2vm6Object3BoxEP11Il2CppClassPv
Otj:__ZN6il2cpp2vm6Thread7SetNameEP12Il2CppThreadP12Il2CppString
ISh:__Z91RuntimeInvoker_Il2CppObject_Il2CppObject_ArrayMetadata_t894288939_Il2CppObject_Il2CppObjectPK10MethodInfoPvPS2_
k9:__ZN13ScreenManager18SetAllowCursorLockEb
lzb:__ZN30RuntimeInitializeOnLoadManager15ClassMethodInfo8TransferI14SafeBinaryReadEEvRT_
Jsi:_ConstructionCall_InitDictionary_m2824447813
IQg:_TargetException__ctor_m3701535709
KBb:__ZN9TextAsset8TransferI14SafeBinaryReadEEvRT_
FN:__ZL22InitializeModule_Audiov
V8a:__ZN16MemoryFileSystem8IsLockedERK13FileEntryData
ADh:__Z142RuntimeInvoker_Void_t1185182177_Il2CppObject_Il2CppObject_Il2CppObject_Int32_t2950945753_Int32_t2950945753_SByte_t1669577662_SByte_t1669577662PK10MethodInfoPvPS2_
Lk:_emscripten_glBindRenderbuffer
UEh:__Z54RuntimeInvoker_UriHostNameType_t881866241_Il2CppObjectPK10MethodInfoPvPS2_
_kc:__Z32GUIStyle_Set_Custom_PropClippingP12Il2CppObjecti
qIh:__Z162RuntimeInvoker_Void_t1185182177_Il2CppObject_Int32_t2950945753_Int32_t2950945753_Il2CppObject_Int32_t2950945753_Single_t1397266774_Single_t1397266774_Il2CppObjectPK10MethodInfoPvPS2_
MGf:__ZL118TouchScreenKeyboard_t731888065_CustomAttributesCacheGenerator_TouchScreenKeyboard_Open_m2745521035____textPlaceholder6P21CustomAttributesCache
PRg:_MaskableGraphic_SetClipRect_m1292666041
RKj:_GC_dirty_init
KBj:__ZN6il2cpp2vm5Image33GetCachedMemoryMappedResourceFileEP24Il2CppReflectionAssembly
vAj:__ZN6il2cpp2vm5Field14GetValueObjectEP9FieldInfoP12Il2CppObject
rMc:__ZNK2UI6Canvas16GetTargetDisplayEv
cOh:__Z87RuntimeInvoker_Int32_t2950945753_UICharInfo_t75501106_UICharInfo_t75501106_Il2CppObjectPK10MethodInfoPvPS2_
Oxg:_TimeSpan_CompareTo_m3633415627_AdjustorThunk
k6:__ZN6Object17FindObjectsOfTypeEPKN5Unity4TypeER13dynamic_arrayIPS_Lj4EEb
Z3b:__ZNSt3__26vectorINS_4pairIiiEE13stl_allocatorIS2_L18MemLabelIdentifier1ELi16EEE21__push_back_slow_pathIKS2_EEvRT_
Bpc:__ZN9JSONWrite8TransferI4PPtrI9Texture2DEEEvRT_PKc17TransferMetaFlags
oDf:__ZL70U3CU3Ec__CompilerGenerated1_t1117331131_CustomAttributesCacheGeneratorP21CustomAttributesCache
gCb:__ZN13MonoBehaviour17RemoveFromManagerEv
Whb:__ZN12ImageFilters14AddImageFilterERK11ImageFilter
fNc:__ZL23RegisterModuleICalls_UIv
Qrb:__ZL11DecodeValuePPKcS0_
xSh:__Z74RuntimeInvoker_Int32_t2950945753_UICharInfo_t75501106_UICharInfo_t75501106PK10MethodInfoPvPS2_
K$c:_WindowsIdentity_System_Runtime_Serialization_IDeserializationCallback_OnDeserialization_m3428853631
QS:__ZN13MemoryManagerC2Ev
NDa:__ZN12SkinMeshInfo10DeallocateEPS_
wNd:_Array_InternalArray__get_Item_TisIl2CppObject_m3347010206_gshared
wVg:_ScrollRect_SetDirty_m214267968
Oyh:__Z128RuntimeInvoker_Void_t1185182177_Byte_t1134296376_Il2CppObject_SByte_t1669577662_ObjectU26_t2146539884_HeaderU5BU5DU26_t426975256PK10MethodInfoPvPS2_
pLa:__ZN20ArchiveStorageReader28AcquireAndPrefillUnusedBlockEjPNS_11CacheResultE
K8c:_Boolean_System_IConvertible_ToDateTime_m603510836
p$b:__Z12NHxRoughnessIA4_tEvP9Texture2DPT_iiii
lte:_ASN1_get_Value_m1857007406
c3i:__ZL25UnresolvedVirtualCall_105P12Il2CppObjecthPK10MethodInfo
K6:__ZN18AsyncUploadManagerD2Ev
JWb:__ZN9Transform5ResetEv
Tsd:_DelegateSerializationHolder__ctor_m23226427
lmd:_Decimal_op_Explicit_m1842265407
hKb:__Z22TransferField_NonArrayI24GenerateTypeTreeTransfer16Converter_StringEvRK23StaticTransferFieldInfoR31RuntimeSerializationCommandInfoRT0_
sBc:_UNITY_FT_CMap_New
Vfh:_InternalEnumerator_1_get_Current_m4241643334_AdjustorThunk
Yeh:_InternalEnumerator_1_MoveNext_m154749640_AdjustorThunk
b9:__Z17MainLoopKeepalivePv
FZf:__ZL62Slider_t3903728902_CustomAttributesCacheGenerator_m_HandleRectP21CustomAttributesCache
m0a:__Z24ScheduleCullingAllGroupsR8JobFenceRK22SceneCullingParameters4PPtrI6CameraERK13CullingOutputRK13dynamic_arrayIP12CullingGroupLj4EERKS_
Kii:_AnimatorControllerPlayable_GetFloat_m1454590132
jmh:_InternalEnumerator_1_get_Current_m1588647567_AdjustorThunk
Sqf:__ZL51GCHandle_t3351438187_CustomAttributesCacheGeneratorP21CustomAttributesCache
G$a:__Z14CalcHullBoundsPK8Vector3fPKhhRK5PlaneRK10Matrix4x4fR10MinMaxAABB
v2d:_InputField_get_caretBlinkRate_m3620074524
mRh:__Z48RuntimeInvoker_Link_t544317964_Int32_t2950945753PK10MethodInfoPvPS2_
hUa:__Z19SetupLODFadeKeywordR17ShaderPassContexti
GXc:_RSAPKCS1SignatureFormatter_CreateSignature_m3191980616
eDa:__ZL25CheckCopyTextureArgumentsRK7ApiGLESP11GLESTextureS3_
lmh:_InternalEnumerator_1__ctor_m362401472_AdjustorThunk
cWe:_List_1_AsReadOnly_m2400800347_gshared
E6:__ZN13dynamic_arrayI26EnlightenSystemInformationLj8EE6insertEPS0_PKS0_S4_
YAc:_tt_name_entry_ascii_from_utf16
OJb:__Z29Transfer_Blittable_ArrayFieldI24GenerateTypeTreeTransferyEvRT_R9ArrayInfoRK23StaticTransferFieldInfo
DDg:_ValueType_Equals_m1524437845
kRf:__ZL71RuntimePlatform_t4159857903_CustomAttributesCacheGenerator_OSXWebPlayerP21CustomAttributesCache
kJ:__ZN4FMOD7SystemI9playSoundE17FMOD_CHANNELINDEXPNS_5SoundEbPPNS_7ChannelE
Gde:_Int64_GetHashCode_m703091690
WUe:_List_1_System_Collections_IList_get_IsFixedSize_m636235037_gshared
ZW:__GLOBAL__sub_I_runtime_graphics_mesh2_lump_cpp
RCi:_X509CrlEntry_get_RevocationDate_m606796547
Dld:_Decimal_op_Implicit_m4256234411
IH:__ZN12AudioManager23VirtualRedirectTransferER18StreamedBinaryReadILb0EE
mje:_StreamReader__ctor_m3941437302
Lgc:__Z57Register_UnityEngine_Transform_INTERNAL_get_localRotationv
v9e:_IPv6Address_get_Address_m1389170741
q0h:_ReadOnlyCollection_1_get_Item_m3326918867_gshared
_yb:__ZN30RuntimeInitializeOnLoadManager23VirtualRedirectTransferER17RemapPPtrTransfer
XWj:dynCall_viif
sOi:_Predicate_1__ctor_m3002344741_gshared
sFg:_AssemblyName_get_Flags_m1616840602
UWj:dynCall_viii
AQ:__ZN11UnityEngine15CloudWebService13WWWRestClient21ParseHTTPHeaderStringEN4core12basic_stringIcNS2_20StringStorageDefaultIcEEEERNS0_16WWWRestHeaderMapERjPKc
fke:_StringReader_ReadLine_m2337102945
Dji:_AnimatorControllerPlayable_IsParameterControlledByCurveString_m649113970
o0g:_Rect_get_height_m977101306
QHb:__ZL26Transfer_SimpleNativeClassI17RemapPPtrTransfer8GradientLb0EEvRK29SerializationCommandArgumentsR31RuntimeSerializationCommandInfo
Jhd:_SyncHashtable_Add_m3016107307
Ffb:__ZNSt3__26vectorIN20ArchiveStorageHeader12StorageBlockE13stl_allocatorIS2_L18MemLabelIdentifier54ELi16EEE21__push_back_slow_pathIKS2_EEvRT_
s9c:_Boolean_Equals_m2410333903_AdjustorThunk
Pfj:__ZN6il2cpp6icalls8mscorlib6System8MonoType14get_attributesEP20Il2CppReflectionType
bdb:__Z43DestroyWithoutLoadingButDontDestroyFromFilei
ttf:__ZL61ISurrogateSelector_t3040401154_CustomAttributesCacheGeneratorP21CustomAttributesCache
Z1e:_List_1_ToArray_m1990123684_gshared
Oni:_ClassInterfaceAttribute__ctor_m637338123
uVj:dynCall_viiiiiffi
wEi:_SystemInfo_get_operatingSystemFamily_m846124428
zc:_emscripten_glBlendFuncSeparate
eXh:_Collection_1_Add_m809543251_gshared
SY:__Z20scripting_string_newPKc
kfc:__Z43Material_CUSTOM_Internal_CreateWithMaterialP12Il2CppObjectS0_
hyi:_Parser_IsSingleline_m326238187
Afd:_CollectionBase_get_Count_m1708965601
hUc:_HMAC__ctor_m97939284
B6g:_Matrix4x4_Equals_m2121237340_AdjustorThunk
nzf:__ZL49DBNull_t3725197148_CustomAttributesCacheGeneratorP21CustomAttributesCache
CDg:_ValueType_DefaultEquals_m2927252100
ste:_ASN1_ToString_m1340204511
ldf:_X509Store_get_Certificates_m2149701265
zeg:_DefaultComparer_GetHashCode_m2865442331_gshared
OE:__Z103Register_UnityEngine_Experimental_Director_AnimatorControllerPlayable_INTERNAL_CALL_ResolveHashInternalv
MVf:__ZL144StandaloneInputModule_t2760469101_CustomAttributesCacheGenerator_StandaloneInputModule_t2760469101____allowActivationOnMobileDevice_PropertyInfoP21CustomAttributesCache
_sg:_StringBuilder_set_Chars_m3548656617
$ij:__ZN6il2cpp2os4File17GetFileAttributesERKNSt3__212basic_stringIcNS2_11char_traitsIcEENS2_9allocatorIcEEEEPi
Jt:__ZNSt3__26__sortIRPFbPKN8Animator11AnimatorJobES4_EPS4_EEvT0_S9_T_
YG:__ZN17AudioCustomFilterD2Ev
Wjc:__ZN11IMGUIModule26SetDeveloperConsoleVisibleEb
QWb:__ZN9Transform16ResetReplacementEv
KIj:_GC_unpromote_black_lists
knf:__ZL64DebuggerBrowsableState_t747501856_CustomAttributesCacheGeneratorP21CustomAttributesCache
Djc:__ZNK8GUIStyle13GetLineHeightEv
DFf:__ZL87Display_t1387065949_CustomAttributesCacheGenerator_Display_GetSystemExtImpl_m1142438950P21CustomAttributesCache
mCa:__ZN18GfxFramebufferGLES18ReleaseFramebufferEP17RenderSurfaceBaseP14GfxContextGLES
W1b:__ZN13ProduceHelperI6CameraLb0EE7ProduceE18MemLabelIdentifier18ObjectCreationMode
Kke:_TextReader_Dispose_m4253712522
RR:__ZN19CloudServiceHandler34HandleSaveFileWebRequestPlayerLoopEv
RAf:__ZL82BigInteger_t2902905090_CustomAttributesCacheGenerator_BigInteger__ctor_m2474659844P21CustomAttributesCache
Bz:__ZN7mecanim21ValueArrayReverseCopyEPKNS_18ValueArrayConstantEPKNS_10ValueArrayES2_PS3_PKi
FUh:__Z50RuntimeInvoker_Il2CppObject_FloatTween_t1274330004PK10MethodInfoPvPS2_
JG:__Z31GetParentSampleClipFromInstancePN11SoundHandle8InstanceE
WMe:_InternalAsyncResult_get_BytesRead_m3975435112
vZb:__ZNK28RectTransformPropertyBinding13GetFloatValueERKN11UnityEngine9Animation10BoundCurveE
u2a:__ZN6Camera22StandaloneCustomRenderENS_10RenderFlagEP6ShaderRKN4core12basic_stringIcNS3_20StringStorageDefaultIcEEEEPNS_21PerformRenderFunctionE
ADd:_Array_InternalArray__IndexOf_TisKeyValuePair_2_t2401056908_m4118889689_gshared
m$h:_Collection_1_System_Collections_ICollection_get_IsSynchronized_m500240145_gshared
hCf:__ZL68X509CertificateCollection_t3399372417_CustomAttributesCacheGeneratorP21CustomAttributesCache
EPj:__ZN6il2cpp2os16ThreadLocalValue8GetValueEPPv
ocf:_X509Certificate2_get_PublicKey_m370665820
vcj:__ZN6il2cpp2vm13MetadataCache14GetGenericInstEPKPK10Il2CppTypej
$c:_glUniform1uiv
bhc:__Z52Object_CUSTOM_GetOffsetOfInstanceIDInCPlusPlusObjectv
IUh:_Collection_1_System_Collections_Generic_ICollectionU3CTU3E_get_IsReadOnly_m1419845799_gshared
sM:__ZN9AudioClip15InitializeClassEv
To:setThrew
Iig:_SoapMethodAttribute_get_XmlNamespace_m4029617514
_th:__Z36RuntimeInvoker_IntPtr_t_Il2CppObjectPK10MethodInfoPvPS2_
h$b:__ZL21BuildEmptyCubeTexturePKci11ColorRGBA3217TextureColorSpace
dRb:__ZN14SafeBinaryRead21TransferSTLStyleArrayINSt3__26vectorIN9ShaderLab20SerializedSubProgramENS1_9allocatorIS4_EEEEEEvRT_17TransferMetaFlags
XDd:_Array_InternalArray__IndexOf_TisX509ChainStatus_t133602714_m48896230_gshared
Eqc:__Z15Transfer_StringI8JSONReadLb1EEvRK29SerializationCommandArgumentsR31RuntimeSerializationCommandInfo
n8h:_Comparison_1_BeginInvoke_m816899747_gshared
Ria:__ZN6prcoreL17RemapGenericFloatI17TexFormatRGBFloat15TexFormatRGHalfEEvPKNS_9InnerInfoE
MVa:__Z25DoForwardShaderRenderLoopR17RenderLoopContextR13dynamic_arrayI16RenderObjectDataLj4EERK11CullResultsbbbN6Camera10RenderFlagE
Zrf:__ZL63IContributeEnvoySink_t2817847987_CustomAttributesCacheGeneratorP21CustomAttributesCache
wAc:_sfnt_load_face
twc:_UNITY_FT_Render_Glyph_Internal
tvj:__ZNSt3__212basic_stringIDsNS_11char_traitsIDsEENS_9allocatorIDsEEE21__grow_by_and_replaceEjjjjjjPKDs
nAc:_UNITY_ft_service_list_lookup
JHb:__Z18Transfer_BlittableI17RemapPPtrTransferLb1E11ColorRGBA32EvRK29SerializationCommandArgumentsR31RuntimeSerializationCommandInfo
djc:__ZN5IMGUI21SelectReceivingWindowER8GUIStateb
yUc:_HMAC_Initialize_m3157696427
Veb:__ZN17FileSystemHandler5TouchER13FileEntryData
URj:___strchrnul
u_e:_List_1_System_Collections_ICollection_CopyTo_m3643417403_gshared
lab:__ZN13BaseAllocator13TryDeallocateEPv
QLb:__Z29Transfer_Blittable_ArrayFieldI19StreamedBinaryWriteILb0EEfEvRT_R9ArrayInfoRK23StaticTransferFieldInfo
vTi:_ListPool_1_Release_m1363449253_gshared
hbf:_X509SubjectKeyIdentifierExtension__ctor_m2055934916
CQe:_Enumerator_Dispose_m2531396701_AdjustorThunk
D8a:__ZN16MemoryFileSystem5WriteER13FileEntryDatayPvPy
U4i:__ZL25UnresolvedVirtualCall_203P12Il2CppObjectsPK10MethodInfo
fib:__ZNSt3__26vectorIN12FlareManager10FlareEntryENS_9allocatorIS2_EEE21__push_back_slow_pathIKS2_EEvRT_
NQj:_sprintf
DSf:__ZL67NativeContainerAttribute_t2600515814_CustomAttributesCacheGeneratorP21CustomAttributesCache
cwe:_PrivateKeyInfo_DecodeRSA_m2889346634
tH:__ZN13AudioListener17RemoveFromManagerEv
ud:_glAttachShader
dXd:_ContentSizeFitter_SetLayoutHorizontal_m2833273874
aNa:__ZNK6Camera19GetProjectionMatrixEv
gUh:__Z95RuntimeInvoker_Il2CppObject_UICharInfo_t75501106_UICharInfo_t75501106_Il2CppObject_Il2CppObjectPK10MethodInfoPvPS2_
X7h:_Comparison_1__ctor_m1942809147_gshared
XXf:__ZL70InputField_t3762917431_CustomAttributesCacheGenerator_m_SelectionColorP21CustomAttributesCache
U2d:_InputField_SetToCustomIfContentTypeIsNot_m2813459946
oNa:__Z24ConvertBufferToPNGBufferPKhjjj13TextureFormatPvPFvS2_PhjE
cQ:__ZN11UnityEngine15CloudWebService10RestClientINS0_16WWWRestHeaderMapEE6SetUrlERKN4core12basic_stringIcNS4_20StringStorageDefaultIcEEEE
pRf:__ZL70RuntimePlatform_t4159857903_CustomAttributesCacheGenerator_FlashPlayerP21CustomAttributesCache
Cae:_Guid_GetHashCode_m3042133858_AdjustorThunk
ZLf:__ZL124AnimatorControllerPlayable_t1397024487_CustomAttributesCacheGenerator_AnimatorControllerPlayable_PlayInFixedTime_m1929698819P21CustomAttributesCache
a1:__Z38PreallocateObjectFromPersistentManagerib
ngi:_Event_t2956885303_marshal_pinvoke_cleanup
g0c:_SecurityException_get_FirstPermissionThatFailed_m3934559164
ggf:_Interpreter_Backtrack_m2828876822
$W:__GLOBAL__sub_I_runtime_interfaces_lump_cpp
Znb:__ZNK9Texture2D20GetUnscaledTextureIDEv
apf:__ZL103TypeBuilder_t1073948154_CustomAttributesCacheGenerator_TypeBuilder_DefineDefaultConstructor_m2168449784P21CustomAttributesCache
HVi:_U3CU3Ec__DisplayClass1b_U3CgetMyInfoU3Eb__19_m1673276453
Tog:_SByte_System_IConvertible_ToType_m4075253447
D0j:_glFenceSync__wrapper
Ash:__Z86RuntimeInvoker_Int32_t2950945753_Int32_t2950945753_Int32_t2950945753_Int32_t2950945753PK10MethodInfoPvPS2_
H7c:_AssemblyLoadEventHandler_Invoke_m1462077361
Zuh:__Z115RuntimeInvoker_Il2CppObject_Il2CppObject_Int32_t2950945753_Il2CppObject_Int32_t2950945753_Il2CppObject_Il2CppObjectPK10MethodInfoPvPS2_
lHh:__Z86RuntimeInvoker_Void_t1185182177_Int32_t2950945753_Single_t1397266774_Int32_t2950945753PK10MethodInfoPvPS2_
cob:__ZNK9Texture2D26CanReuploadDataToGfxDeviceEv
kDh:__Z96RuntimeInvoker_Void_t1185182177_Il2CppObject_ByteU5BU5DU26_t4057885439_ByteU5BU5DU26_t4057885439PK10MethodInfoPvPS2_
SPb:__ZN18StreamedBinaryReadILb0EE21TransferSTLStyleArrayI13dynamic_arrayI4AABBLj4EEEEvRT_17TransferMetaFlags
pvf:__ZL63CodeAccessPermission_t2681295399_CustomAttributesCacheGeneratorP21CustomAttributesCache
_la:__Z29ClearRepeatingLogMessageStatev
wkh:_InternalEnumerator_1_get_Current_m3191242573_gshared
zad:_Byte_Equals_m1161982810_AdjustorThunk
nic:__ZN13TextRendering17TextMeshGenerator13GetTextOffsetERK5RectTIfE
GZb:__ZN15QualitySettings12CleanupClassEv
qLe:_SslCipherSuite_ComputeMasterSecret_m3963626850
_4b:__Z35SetMeshComponentFromArrayFromScriptR4Mesh30InternalScriptingShaderChannel34InternalScriptingVertexChannelTypei17ScriptingArrayPtri
A1e:_List_1_GrowIfNeeded_m278824317_gshared
SLg:_OpCode_get_StackBehaviourPush_m986094870_AdjustorThunk
gHa:__ZN7ApiGLESD2Ev
Uai:_AsyncOperation_InternalDestroy_m2288495658
k4a:__ZN9Transform47ClearTransformHierarchyAndApplyToSerializedDataEv
Cee:_IntPtr_op_Explicit_m536245531
u9h:_AnimationEvent_set_objectReferenceParameter_m1772927931
A6a:__ZN17PersistentManager9AddStreamEv
nXj:dynCall_fidi
xlj:__ZN15dense_hashtableINSt3__24pairIK10KeyWrapperINS1_IPK9FieldInfoP11Il2CppClassEEEjEES9_17ReflectionMapHashIS8_EN14dense_hash_mapIS9_jSD_NS9_14EqualsComparerINS0_8equal_toIS8_EEEENS0_9allocatorISB_EEE9SelectKeyESI_SK_E12resize_deltaEjj
Zlc:__Z47Register_UnityEngine_GUIStyle_set_imagePositionv
Alc:__Z49GUIStyle_CUSTOM_INTERNAL_CALL_Internal_DrawCursor13Il2Cpp_IntPtrRK5RectTIfEP12Il2CppObjectiRK10ColorRGBAf
IAh:__Z50RuntimeInvoker_Int16_t2552820387_Int16_t2552820387PK10MethodInfoPvPS2_
Wrf:__ZL58IContextProperty_t840037424_CustomAttributesCacheGeneratorP21CustomAttributesCache
TQ:__ZN11UnityEngine15CloudWebService14RestDownloaderD2Ev
sIg:_EnumBuilder_get_Assembly_m1175292766
n7a:__Z29StdTemplateConversionFunctionIjhEbPvR14SafeBinaryRead
reh:_InternalEnumerator_1_System_Collections_IEnumerator_get_Current_m3865845908_AdjustorThunk
_ib:__ZN22RenderingCommandBufferC2ERKS_
fLd:_Array_swap_TisCustomAttributeNamedArgument_t287865710_TisCustomAttributeNamedArgument_t287865710_m881919420_gshared
V7b:__ZNK13MonoBehaviour13GetScriptTypeEv
$aa:__ZN13RenderTexture12SetDimensionE16TextureDimension
ILe:_SslClientStream_set_ClientCertSelectionDelegate_m1261530976
je:_SDL_FreeRW
pUf:__ZL109ExecuteEvents_t3484638744_CustomAttributesCacheGenerator_ExecuteEvents_U3Cs_HandlerListPoolU3Em__0_m391641698P21CustomAttributesCache
JNc:__Z34CanvasRenderer_Get_Custom_PropCullP12Il2CppObject
J$i:_Panel_ForgotPassword_Start_m3302309345
VL:__ZN20SoundChannelInstance8getDelayE14FMOD_DELAYTYPEPjS1_
beb:__ZN21AssetBundleFileSystemC2EPKc
_gi:_InvokableCall__ctor_m616326848
wdh:_ArrayReadOnlyList_1_Contains_m232667507_gshared
K$:__ZN10UnitySceneD0Ev
fvc:__ZNSt3__26vectorIN20TextRenderingPrivate8FontImpl13CharacterInfoE13stl_allocatorIS3_L18MemLabelIdentifier1ELi16EEE8__appendEj
v:tempBigInt
KHd:_Array_InternalArray__Insert_TisKeyframe_t4206410242_m1558638568_gshared
Dxf:__ZL77Convert_t2465617642_CustomAttributesCacheGenerator_Convert_ToByte_m3567528984P21CustomAttributesCache
re:_emscripten_glVertexAttrib1fv
ERb:__ZNSt3__26vectorIN9ShaderLab20SerializedSubProgram12UAVParameterENS_9allocatorIS3_EEE7reserveEj
mKd:_Array_Sort_TisIl2CppObject_m1972115694_gshared
tUj:__ZSt11__terminatePFvvE
z4i:__ZL25UnresolvedVirtualCall_182P12Il2CppObject28AnimatorClipInfo_t3156717155S1_PK10MethodInfo
LJ:__ZN12AudioManager14systemCallbackEP11FMOD_SYSTEM24FMOD_SYSTEM_CALLBACKTYPEPvS3_
R4h:_ReadOnlyCollection_1_System_Collections_Generic_ICollectionU3CTU3E_Clear_m3451551308_gshared
$Ud:_BaseMeshEffect_OnEnable_m3291426649
BF:__ZN10SampleClip23VirtualRedirectTransferER24GenerateTypeTreeTransfer
H1a:__ZN16ReflectionProbes16UpdateSampleDataEv
Djg:_TrackingServices_NotifyUnmarshaledObject_m2784831802
z7g:_MonoBehaviour_IsInvoking_m2187914354
Xuh:__Z57RuntimeInvoker_RuntimeTypeHandle_t3027515415_Il2CppObjectPK10MethodInfoPvPS2_
NDb:__ZN14SafeBinaryRead21TransferSTLStyleArrayI10vector_setI4PPtrI10MonoScriptENSt3__24lessIS4_EE13stl_allocatorIS4_L18MemLabelIdentifier76ELi16EEEEEvRT_17TransferMetaFlags
Ssb:__ZN14Texture2DArray5ResetEv
csc:__ZN8JSONRead21TransferSTLStyleArrayINSt3__26vectorI10RectOffset13stl_allocatorIS3_L18MemLabelIdentifier1ELi16EEEEEEvRT_S5_17TransferMetaFlags
Omf:__ZL80Hashtable_t1853889766_CustomAttributesCacheGenerator_Hashtable__ctor_m1763145853P21CustomAttributesCache
old:_Convert_ToDecimal_m1284148187
WYh:_Collection_1__ctor_m3489157029_gshared
g_j:_emscripten_glRenderbufferStorage__wrapper
Swh:__Z93RuntimeInvoker_Void_t1185182177_DateTime_t3738529785_DateTime_t3738529785_TimeSpan_t881159249PK10MethodInfoPvPS2_
dei:_Color_op_Multiply_m69884213
Oe:_JS_Sound_Play
O5h:_ReadOnlyCollection_1_System_Collections_IList_set_Item_m1538987737_gshared
zph:_DefaultComparer_Compare_m1920986590_gshared
GQb:__ZN9ShaderLab16SerializedShader8TransferI14SafeBinaryReadEEvRT_
spa:__ZN5Mutex7TryLockEv
e0d:_GridLayoutGroup_set_constraint_m3308895167
Ysi:_ConstructionCallDictionary_SetMethodProperty_m3145285304
zce:_Int32_System_IConvertible_ToUInt32_m3557270157
ITf:__ZL129U3CSendDataU3Ed__0_t2572211964_CustomAttributesCacheGenerator_U3CSendDataU3Ed__0_System_Collections_IEnumerator_Reset_m1751248550P21CustomAttributesCache
Teh:_InternalEnumerator_1_System_Collections_IEnumerator_get_Current_m1503522504_gshared
ft:__ZN7mecanim8skeleton13SkeletonAlignEPKNS0_8SkeletonERKN4math7_float4ES7_i
_$b:__ZN19ShaderPropertySheet16SetVectorIndexedEN9ShaderLab16FastPropertyNameEifRK8Vector4fNS_8SetFlagsE
Gyg:_Type_get_IsAbstract_m1120089130
fq:__ZN14SafeBinaryRead21TransferSTLStyleArrayIN4core12basic_stringIcNS1_20StringStorageDefaultIcEEEEEEvRT_17TransferMetaFlags
Hzi:_UriFormatException__ctor_m1115096473
Qih:_InternalEnumerator_1_Dispose_m2818366163_AdjustorThunk
hBd:_Array_InternalArray__IEnumerable_GetEnumerator_TisSlot_t384495010_m460993382_gshared
gQe:_Enumerator_Dispose_m670887799_AdjustorThunk
qkf:__ZL73Il2CppArray_CustomAttributesCacheGenerator_Array_BinarySearch_m3171087170P21CustomAttributesCache
Prj:__ZN15dense_hashtableINSt3__24pairIK10KeyWrapperINS1_IP11Il2CppClassjEEES4_EES6_N6il2cpp8metadata14ArrayClassHashEN14dense_hash_mapIS6_S4_SB_NS6_14EqualsComparerINSA_17ArrayClassCompareEEENS0_9allocatorIS8_EEE9SelectKeyESF_SH_E9copy_fromERKSK_j
R7a:__Z29StdTemplateConversionFunctionIayEbPvR14SafeBinaryRead
mvg:_WaitHandle__ctor_m1707080176
xR:__ZN11UnityEngine15CloudWebService14DataDispatcher4StopEv
LAh:__Z50RuntimeInvoker_Int16_t2552820387_Int32_t2950945753PK10MethodInfoPvPS2_
ube:_Int16_System_IConvertible_ToUInt64_m134975563
GRb:__ZNSt3__26vectorIN9ShaderLab20SerializedSubProgram12UAVParameterENS_9allocatorIS3_EEE8__appendEj
oqf:__ZL68TargetInvocationException_t4266643902_CustomAttributesCacheGeneratorP21CustomAttributesCache
Yoj:__ZNK15dense_hashtableINSt3__24pairIK10KeyWrapperINS1_IPK9EventInfoP11Il2CppClassEEEjEES9_17ReflectionMapHashIS8_EN14dense_hash_mapIS9_jSD_NS9_14EqualsComparerINS0_8equal_toIS8_EEEENS0_9allocatorISB_EEE9SelectKeyESI_SK_E12test_deletedERK24dense_hashtable_iteratorISB_S9_SD_SM_SI_SK_E
Wic:__ZN5IMGUI9GUIWindow5OnGUIER8GUIState
bMh:__Z71RuntimeInvoker_Void_t1185182177_Int32_t2950945753_ObjectU26_t2146539884PK10MethodInfoPvPS2_
U0c:_Single_System_IConvertible_ToDecimal_m325860800_AdjustorThunk
uGd:_Array_InternalArray__ICollection_CopyTo_TisSingle_t1397266774_m455540885_gshared
Ada:__ZN17ScriptingGCHandle7AcquireE18ScriptingObjectPtr25ScriptingGCHandleWeakness
yFh:__Z143RuntimeInvoker_Il2CppObject_Il2CppObject_Int32_t2950945753_SByte_t1669577662_SByte_t1669577662_SByte_t1669577662_SByte_t1669577662_Il2CppObjectPK10MethodInfoPvPS2_
Fsh:__Z112RuntimeInvoker_Int32_t2950945753_Il2CppObject_Int32_t2950945753_Il2CppObject_Int32_t2950945753_Int32_t2950945753PK10MethodInfoPvPS2_
q7f:_Enumerator__ctor_m1734342590_gshared
p8i:__ZN14dense_hash_mapI10KeyWrapperIPK11Il2CppClassEPKcN6il2cpp5utils11PointerHashIS1_EENS4_14EqualsComparerINSt3__28equal_toIS3_EEEENSC_9allocatorINSC_4pairIKS4_S6_EEEEE13set_empty_keyERSI_
HUi:_CBFunc_Success__ctor_m2737309515
zna:__Z21HasAlphaTextureFormat13TextureFormat
XM:__ZN12AudioManager6UpdateEv
xna:__ZN14ImageReference9BlitImageERKS_NS_8BlitModeE
Dr:__ZN8Animator12AddToManagerEv
gme:_MissingFieldException__ctor_m3742452630
cdh:_ArrayReadOnlyList_1_get_Count_m3450004702_gshared
S4h:_ReadOnlyCollection_1_System_Collections_Generic_IListU3CTU3E_Insert_m1121807192_gshared
eDb:__ZN23CachedSerializationDataD2Ev
g1a:__ZNK25CameraStackRenderingState31CalculateStereoCameraTargetTypeEv
cmb:__ZN14RenderSettings23VirtualRedirectTransferER14SafeBinaryRead
mLg:_MethodBuilder_get_Module_m2693263127
nGi:_Vector3_get_forward_m2293047824
Pbi:_Bounds_set_size_m1025767497
eNd:_Array_InternalArray__get_Item_TisLink_t3209266973_m1574224299_gshared
vjb:__ZN17GlobalGameManager8TransferI17RemapPPtrTransferEEvRT_
cZc:_SymmetricAlgorithm_get_Key_m3241860519
V4d:_U3CMouseDragOutsideRectU3Ec__Iterator1_Reset_m2233410497
uHe:_ClientSessionInfo_get_HostName_m2118440995
Qlb:__ZN16LevelGameManager8TransferI18StreamedBinaryReadILb0EEEEvRT_
BIc:_UNITY_tt_face_load_fpgm
$vb:__ZN12InputManagerD0Ev
huf:__ZL64DSASignatureFormatter_t2007981259_CustomAttributesCacheGeneratorP21CustomAttributesCache
fbj:__ZN15dense_hashtableINSt3__24pairIK10KeyWrapperI13dynamic_arrayIPK10Il2CppTypeLj4EEEPFvvEEES8_N6il2cpp8metadata19Il2CppSignatureHashEN14dense_hash_mapIS8_SB_SF_NS8_14EqualsComparerINSE_22Il2CppSignatureCompareEEENS0_9allocatorISC_EEE9SelectKeyESJ_SL_E8min_sizeEjj
QMi:_Lexer_ProcessEscChar_m4259284362
wvg:_ExecutionContext_Capture_m681135907
xdg:_Dictionary_2_System_Collections_IDictionary_Add_m4011968134_gshared
DOb:__Z18Transfer_BlittableI18StreamedBinaryReadILb0EELb1EtEvRK29SerializationCommandArgumentsR31RuntimeSerializationCommandInfo
Dgh:_InternalEnumerator_1_System_Collections_IEnumerator_get_Current_m2889979481_AdjustorThunk
pTj:_posix_memalign
o0b:__ZN13ProduceHelperI12MeshRendererLb0EE7ProduceE18MemLabelIdentifier18ObjectCreationMode
FXg:_Slider_get_direction_m3871593184
pte:_ASN1_GetBytes_m3305539297
T1e:_List_1_Remove_m2092116835_gshared
gyf:__ZL77Convert_t2465617642_CustomAttributesCacheGenerator_Convert_ToSByte_m717245755P21CustomAttributesCache
pph:_DefaultComparer__ctor_m2039558311_gshared
d1:__ZNK15MonoScriptCache7ReleaseEv
tvh:__Z68RuntimeInvoker_Int32_t2950945753_Int32_t2950945753_Int32_t2950945753PK10MethodInfoPvPS2_
lcd:_CLSCompliantAttribute__ctor_m581760440
ag:_glBindTexture
FRj:_snprintf
Hee:_InvalidCastException__ctor_m2551002860
w$j:_emscripten_glVertexAttrib1fv__wrapper
A_b:__ZN13ProduceHelperI30RuntimeInitializeOnLoadManagerLb0EE7ProduceE18MemLabelIdentifier18ObjectCreationMode
Oka:__Z36scripting_liveness_calculation_begin17ScriptingClassPtriPFvPP12Il2CppObjectiPvES3_PFvvES7_
qmi:_Gradient__ctor_m3489855449
aFa:__ZN16UniformCacheGLES6CreateERK20GpuProgramParameters
WZj:_emscripten_glGetProgramInfoLog__wrapper
ovf:__ZL80AllowPartiallyTrustedCallersAttribute_t1828959166_CustomAttributesCacheGeneratorP21CustomAttributesCache
FAj:__ZN6il2cpp2vm5Field14IsThreadStaticEP9FieldInfo
uDg:_UnitySerializationHolder_GetModuleData_m1550266881
NVf:__ZL52InputMode_t3382566315_CustomAttributesCacheGeneratorP21CustomAttributesCache
T3:__ZN17PersistentManager23DestroyFromFileInternalEi
A1h:_ReadOnlyCollection_1_System_Collections_Generic_IListU3CTU3E_Insert_m1020890112_gshared
RYd:_Dropdown_get_onValueChanged_m2462066659
bYd:_DefaultControls_SetDefaultTextValues_m1943359795
V0i:__ZL7log2_64y
o8e:_TypeConverterAttribute_Equals_m1580461255
$u:__ZN26AnimatorControllerPlayable18PrepareForPlaybackERN7mecanim6memory9AllocatorE
$$d:_GridLayoutGroup_get_cellSize_m2967185053
xod:_CurrentSystemTimeZone_GetUtcOffset_m340358963
yAi:_PKCS12_Decrypt_m1280162536
Mgh:_InternalEnumerator_1_get_Current_m3081223448_gshared
Xgi:_BaseInvokableCall_AllowInvoke_m1250801794
efd:_CaseInsensitiveHashCodeProvider_AreEqual_m1790260777
_4e:_Collection_1_IndexOf_m3762683187_gshared
sea:__ZN22CreateGpuProgramOutputC2Ev
uBe:_BigInteger_op_LessThanOrEqual_m3925173639
J8c:_Boolean_System_IConvertible_ToChar_m4279513009_AdjustorThunk
pgd:_Hashtable__ctor_m1763145853
fJf:__ZL85Object_t631007953_CustomAttributesCacheGenerator_Object_FindObjectsOfType_m2898745631P21CustomAttributesCache
D8g:_Object_ToString_m426284353
x7d:_NumberFormatter_ScaleOrder_m3813786990
tTe:_List_1_GetEnumerator_m239622569_gshared
KWf:__ZL60OptionData_t3270282352_CustomAttributesCacheGenerator_m_TextP21CustomAttributesCache
J9g:_RaycastHit_get_point_m177058539
m7g:_Mesh_SetNormals_m404565226
dwe:_PrivateKeyInfo_DecodeDSA_m771724585
NTf:__ZL53EventHandle_t600343995_CustomAttributesCacheGeneratorP21CustomAttributesCache
C1b:__ZN8GUILayer12CleanupClassEv
ked:_SynchronizedArrayListWrapper_get_SyncRoot_m3862302789
KVe:_List_1_System_Collections_IEnumerable_GetEnumerator_m839737540_gshared
oBg:_UInt32_System_IConvertible_ToSByte_m1061556466
jlg:_WellKnownClientTypeEntry__ctor_m2471908952
ga:invoke_vidi
Rea:__ZN8Material17MainThreadCleanupEv
Pkg:_RemotingServices_CreateClientProxyForContextBound_m783705199
s7c:_Array_slow_swapper_m4116724811
pMe:_InternalAsyncResult_get_ProceedAfterHandshake_m2508379800
QLc:__ZN2UI14CanvasRenderer17SyncDirtyElementsER8JobFence
AOb:__Z18Transfer_BlittableI18StreamedBinaryReadILb0EELb0ExEvRK29SerializationCommandArgumentsR31RuntimeSerializationCommandInfo
tbd:_Convert_ToUInt16_m2952781888
$2f:_Enumerator_System_Collections_IEnumerator_get_Current_m3816090481_gshared
cDj:__ZN6il2cpp5utils11StringUtils15StringDuplicateEPKc
lgg:_DefaultComparer_Equals_m2480133610_gshared
r3a:__Z15CanAddComponentR10GameObjectPKN5Unity4TypeE
Nda:__ZNK9ShaderLab21ShaderRasterStateDesc16ToGfxRasterStateEPK19ShaderPropertySheetS3_R14GfxRasterState
WKd:_Array_Sort_TisVector3_t3722313464_m1915176437_gshared
NPj:__ZN6il2cpp2os9EventImplC2Ebb
_Te:_List_1_System_Collections_IList_get_IsFixedSize_m3566150119_gshared
$A:__ZN4PPtrI13MonoBehaviourE8TransferI19StreamedBinaryWriteILb0EEEEvRT_
rZe:_List_1_get_Item_m2113769949_gshared
pib:__ZN12FlareManager12RemoveCameraER6Camera
uch:_ScriptableObject_t2528358522_marshal_pinvoke
RZ:__Z20IsMatrixBuiltinParamPKcPi
bNb:__ZN18StreamedBinaryReadILb1EE5AlignEv
p0c:_SecurityFrame_t1422462475_marshal_pinvoke
Umj:__ZN15dense_hashtableINSt3__24pairIK10KeyWrapperINS1_IPK10MethodInfoP11Il2CppClassEEEjEES9_17ReflectionMapHashIS8_EN14dense_hash_mapIS9_jSD_NS9_14EqualsComparerINS0_8equal_toIS8_EEEENS0_9allocatorISB_EEE9SelectKeyESI_SK_E16reset_thresholdsEv
ztg:_UnicodeEncoding_GetBytesInternal_m1902824297
I$b:__ZN8Renderer19PostInitializeClassEv
wCi:_X509Chain_FindCertificateRoot_m1937726457
Vxc:__ZN20TextRenderingPrivate15DynamicFontDataD2Ev
rih:_InternalEnumerator_1__ctor_m217498388_AdjustorThunk
nMj:__ZN6il2cpp6icalls8mscorlib6System8Delegate23CreateDelegate_internalEP20Il2CppReflectionTypeP12Il2CppObjectP22Il2CppReflectionMethodb
_3f:_Enumerator_System_Collections_IEnumerator_get_Current_m921113401_AdjustorThunk
$$a:__ZNK13RendererScene22GetStaticBoundingBoxesEv
rCb:__ZN18DelayedCallManager18CancelCallDelayed2E4PPtrI6ObjectEPF15CallObjectStatePS1_PvES7_
qab:__ZN25ThreadsafeLinearAllocator10ReallocateEPvji
pEb:__Z18Transfer_BlittableI14SafeBinaryReadLb1E11QuaternionfEvRK29SerializationCommandArgumentsR31RuntimeSerializationCommandInfo
oki:_AnimatorControllerPlayable_GetNextAnimatorClipInfoInternal_m3216490378
jGh:__Z82RuntimeInvoker_Void_t1185182177_Il2CppObject_Single_t1397266774_Single_t1397266774PK10MethodInfoPvPS2_
EZi:_GenericEqualityComparer_1__ctor_m1058369027_gshared
a_g:_ToggleGroup_set_allowSwitchOff_m4192200290
Zag:_Dictionary_2__ctor_m3680180642_gshared
CLj:_GC_disable
Ytb:__ZN10Matrix4x4f8TransferI14SafeBinaryReadEEvRT_
Znj:__ZNK10KeyWrapperINSt3__24pairIPK12PropertyInfoP11Il2CppClassEEE14EqualsComparerINS0_8equal_toIS7_EEEclERKS8_SE_
Qpg:_CryptographicUnexpectedOperationException__ctor_m2381988196
$pj:__ZN14dense_hash_mapI10KeyWrapperIPK22Il2CppGenericParameterEPK24MonoGenericParameterInfoN6il2cpp5utils11PointerHashIS2_EENS4_14EqualsComparerINSt3__28equal_toIS3_EEEENSD_9allocatorINSD_4pairIKS4_S7_EEEEE15set_deleted_keyERSJ_
Yu:__ZN14AvatarPlayback8StopTimeEv
pjh:_InternalEnumerator_1_System_Collections_IEnumerator_get_Current_m4213507601_gshared
m4:__Z6AppendRKN4core12basic_stringIcNS_20StringStorageDefaultIcEEEEPKc
Nka:__ZL14OnWorldStoppedv
qBd:_Array_InternalArray__IEnumerable_GetEnumerator_TisCustomAttributeNamedArgument_t287865710_m523021714_gshared
r$h:__ZN21InterfaceFuncInvoker1I19Vector4_t3319028937iE6InvokeEjP11Il2CppClassP12Il2CppObjecti
$Lb:__Z18Transfer_BlittableI18StreamedBinaryReadILb1EELb0E8Vector3fEvRK29SerializationCommandArgumentsR31RuntimeSerializationCommandInfo
sgi:_Event_Cleanup_m1044305745
lhd:_HashKeys_get_SyncRoot_m3757723936
aya:__ZN7ApiGLES18ClearBufferSubDataEjN2gl12BufferTargetEll
hac:__Z37Camera_Get_Custom_PropAllCamerasCountv
ltb:__ZN14Texture2DArray8TransferI18StreamedBinaryReadILb0EEEEvRT_
M0e:_List_1_CopyTo_m2746988508_gshared
n_a:__Z18ApplyOcclusionMaskR19ProbeOcclusionCacheRK17LightProbeContextRK10RenderNodeb
Xwh:__Z34RuntimeInvoker_Decimal_t2948259380PK10MethodInfoPvPS2_
cDc:_Split_Cubic
cb:invoke_fiiii
Fbh:_ReapplyDrivenProperties_BeginInvoke_m1645183702
z4d:_InputField_OnSubmit_m3583210804
qBf:__ZL64CipherSuiteCollection_t1129639304_CustomAttributesCacheGeneratorP21CustomAttributesCache
iPf:__ZL72GUISkin_t1244372282_CustomAttributesCacheGenerator_m_horizontalScrollbarP21CustomAttributesCache
PVf:__ZL79TouchInputModule_t4248229598_CustomAttributesCacheGenerator_m_ForceModuleActiveP21CustomAttributesCache
Tyi:_Uri_CheckHostName_m2213216182
t$j:_emscripten_glBindRenderbuffer__wrapper
zEj:__ZN6il2cpp2os10ThreadImpl22CreateForCurrentThreadEv
BDg:_ValueType_InternalEquals_m1384040357
YKd:_Array_Sort_TisVector4_t3319028937_TisVector4_t3319028937_m4254533673_gshared
smc:__Z64Register_UnityEngine_GUIStyle_GetFontInternalDuringLoadingThreadv
odd:_ArrayListWrapper_Contains_m2641184447
QCc:_ft_black_render
ENd:_Array_InternalArray__get_Item_TisResourceInfo_t2872965302_m3865610257_gshared
tXj:dynCall_viiifi
TBa:__ZN18GfxFramebufferGLES20ActiveContextChangedEPP17RenderSurfaceBaseS2_
HXa:__ZN19ShaderPropertySheet17UpdateTextureInfoEiN9ShaderLab16FastPropertyNameEPK10TextureRef
ycd:_ArrayList_get_IsFixedSize_m24366329
C8e:_FileWebRequest_System_Runtime_Serialization_ISerializable_GetObjectData_m1504466482
PBa:__Z19PluginsRenderMarkeri
Roh:_InternalEnumerator_1__ctor_m2307827786_AdjustorThunk
SB:__ZN10HumanTrait18InitializeBoneNameEv
myi:__ZN23InterfaceActionInvoker1ItE6InvokeEjP11Il2CppClassP12Il2CppObjectt
Rsb:__ZN14Texture2DArray21AwakeFromLoadThreadedEv
tPb:__Z29Transfer_Blittable_ArrayFieldI18StreamedBinaryReadILb0EEyEvRT_R9ArrayInfoRK23StaticTransferFieldInfo
Clh:_InternalEnumerator_1_get_Current_m1698047500_gshared
PBj:__ZNSt3__214__split_bufferIN6il2cpp2vm5Image20EmbeddedResourceDataERNS_9allocatorIS4_EEEC2EjjS7_
dPa:__ZN5Image13ReformatImageERK14ImageReferenceii13TextureFormatNS0_8BlitModeE
fH:__ZN12AudioManager17RemoveAudioSourceEP11AudioSource
mdf:_X509Certificate2Collection_Add_m3151757943
Hqh:_Comparer_1__cctor_m951016718_gshared
gej:_Mesh_GetAllocArrayFromChannel_TisIl2CppObject_m1957112185_gshared
ifd:_CaseInsensitiveHashCodeProvider_get_DefaultInvariant_m4264275163
Gzf:__ZL67IndexOutOfRangeException_t1578797820_CustomAttributesCacheGeneratorP21CustomAttributesCache
PN:__ZN5physx14PxLightCpuTask12addReferenceEv
_pb:__ZN21EnlightenSceneMapping8TransferI19StreamedBinaryWriteILb0EEEEvRT_
Xzj:__ZN6il2cpp2gc16GarbageCollector19InitializeFinalizerEv
I2h:_ReadOnlyCollection_1_System_Collections_Generic_IListU3CTU3E_RemoveAt_m8081639_gshared
fOe:_KeyValuePair_2_get_Key_m152623220_AdjustorThunk
F6h:_ReadOnlyCollection_1_System_Collections_Generic_ICollectionU3CTU3E_get_IsReadOnly_m2508509261_gshared
Iic:__ZN10GUIManager10DoGUIEventER10InputEventb
kId:_Array_InternalArray__set_Item_TisLink_t544317964_m1234244240_gshared
G_:__Z20CalculateSqrDistanceRK8Vector3fRK4AABB
XYd:_OptionData_get_text_m2997376818
Jng:_SerializationInfo_GetBoolean_m1756153320
bL:__Z32AudioMixerDuckingProcessCallbackP21UnityAudioEffectStatePfS1_jii
Lea:__ZNK13sorted_vectorIN22BuiltinResourceManager8ResourceENSt3__24lessIS1_EENS2_9allocatorIS1_EEE4findIS1_EENS2_11__wrap_iterIPKS1_EERKT_
PUg:_U3CClickRepeatU3Ec__Iterator0_System_Collections_IEnumerator_get_Current_m543328413
r1h:_ReadOnlyCollection_1_Contains_m2979956790_gshared
O_b:__ZN26CustomRenderTextureManagerD2Ev
GWi:_EqualityComparer_1_System_Collections_IEqualityComparer_Equals_m4172006498_gshared
NH:__ZN12AudioManager8TransferI24GenerateTypeTreeTransferEEvRT_
uha:__Z25GetBytesFromTextureFormat13TextureFormat
una:__ZN9Texture3D19UnloadFromGfxDeviceEb
wVj:dynCall_iiffi
wHb:__Z18Transfer_BlittableI17RemapPPtrTransferLb0EsEvRK29SerializationCommandArgumentsR31RuntimeSerializationCommandInfo
Tnb:__ZN7Cubemap23VirtualRedirectTransferER19StreamedBinaryWriteILb0EE
V7e:__KeysEnumerator_get_Current_m2996478063
DEg:_AmbiguousMatchException__ctor_m2012725345
Fi:_emscripten_webgl_init_context_attributes
pB:__ZN16MecanimAnimation25RegisterIAnimationBindingEPKN5Unity4TypeEiP17IAnimationBinding
$1:__Z32scripting_class_get_assemblyname17ScriptingClassPtr
oQc:__ZN11UnityEngine15PlatformWrapper15GetVRDeviceNameEv
r$f:__ZL109LayoutUtility_t2745813735_CustomAttributesCacheGenerator_LayoutUtility_U3CGetFlexibleWidthU3Em__3_m1091238571P21CustomAttributesCache
oFi:_TextGenerator_get_lineCount_m467646179
Xhh:_InternalEnumerator_1_get_Current_m2128158355_AdjustorThunk
hGa:__ZN9GfxDevice21RegisterNativeTextureE9TextureIDi16TextureDimension
lsd:_Decimal_decimal2double_m2573538823
CAf:__ZL53TypeFilter_t2356120900_CustomAttributesCacheGeneratorP21CustomAttributesCache
oNj:__ZN6il2cpp6icalls8mscorlib6System10Reflection4Emit11TypeBuilder20create_generic_classEP27Il2CppReflectionTypeBuilder
_Ph:__Z76RuntimeInvoker_Void_t1185182177_Int32_t2950945753_KeyValuePair_2_t2401056908PK10MethodInfoPvPS2_
TXc:_SHA1Internal_FillBuff_m3615718415
Dwf:__ZL50Monitor_t2197244473_CustomAttributesCacheGeneratorP21CustomAttributesCache
Ggj:__ZNSt3__26vectorIPK10MethodInfoNS_9allocatorIS3_EEE26__swap_out_circular_bufferERNS_14__split_bufferIS3_RS5_EE
HBe:_PrimalityTest_EndInvoke_m1035389364
_T:__ZN3WWW20GetCachedErrorStringEv
csj:__ZN15dense_hashtableINSt3__24pairIK10KeyWrapperINS1_IP11Il2CppClassjEEES4_EES6_N6il2cpp8metadata14ArrayClassHashEN14dense_hash_mapIS6_S4_SB_NS6_14EqualsComparerINSA_17ArrayClassCompareEEENS0_9allocatorIS8_EEE9SelectKeyESF_SH_E13set_empty_keyERKS8_
vVb:__ZN12ScriptMapperD2Ev
w7f:_Enumerator_Dispose_m3040896940_AdjustorThunk
sJj:_GC_stopped_mark
hZg:_Text_OnEnable_m616205807
SSf:__ZL85Logger_t274032455_CustomAttributesCacheGenerator_Logger_set_filterLogType_m3753077331P21CustomAttributesCache
p4d:_InputField_OnFillVBO_m3649106646
kng:_SerializationCallbacks__cctor_m1674315180
z9h:_AnimationEvent_get_messageOptions_m3657540398
CSb:__Z32TransferEnumWithNameForceIntSizeI14SafeBinaryRead7FogModeEvRT_RT0_PKc17TransferMetaFlags
fgc:__Z52Register_UnityEngine_RenderTexture_Internal_GetWidthv
mKj:_GC_check_leaked
dUb:__ZN9ShaderLab20SerializedSubProgram16TextureParameter8TransferI19StreamedBinaryWriteILb0EEEEvRT_
ZGh:__Z75RuntimeInvoker_Il2CppObject_PlayableHandleU26_t4060785685_Int32_t2950945753PK10MethodInfoPvPS2_
RLd:_Dictionary_2_Do_CopyTo_TisDictionaryEntry_t3123975638_TisDictionaryEntry_t3123975638_m285084698_gshared
qed:_SynchronizedArrayListWrapper_IndexOf_m3642674350
C3:__ZNSt3__227__insertion_sort_incompleteIRNS_6__lessI14ObjectLoadDataS2_EEPS2_EEbT0_S6_T_
FR:__ZN11UnityEngine15CloudWebService16SessionContainer8AddEventEPNS0_14CloudEventInfoE
cFa:__Z4TrimRKN4core12basic_stringIcNS_20StringStorageDefaultIcEEEES5_
g4h:_ReadOnlyCollection_1_CopyTo_m209634623_gshared
aMd:_Dictionary_2_Do_ICollectionCopyTo_TisKeyValuePair_2_t3842366416_m1399105608_gshared
aUf:__ZL77ExecuteEvents_t3484638744_CustomAttributesCacheGenerator_U3CU3Ef__mgU24cache2P21CustomAttributesCache
ycf:_X509Certificate2_Import_m4026562329
B0j:_glGetStringi__wrapper
hsb:__ZN10VertexData8TransferI14SafeBinaryReadEEvRT_
eJ:__ZN4FMOD8ChannelI8setDelayE14FMOD_DELAYTYPEjj
gLj:_GC_malloc_atomic
RJi:_JsonData_get_IsArray_m3368968947
Roi:_ActivatedClientTypeEntry_ToString_m2494181680
E_i:_HashSet_1_GetEnumerator_m3346268098_gshared
yrh:__Z49RuntimeInvoker_Void_t1185182177_Int32_t2950945753PK10MethodInfoPvPS2_
TNj:__ZN6il2cpp5utils6Memory13AlignedMallocEjj
uD:__Z93Register_UnityEngine_Experimental_Director_AnimationClipPlayable_INTERNAL_CALL_SetApplyFootIKv
uFh:__Z47RuntimeInvoker_Il2CppObject_Vector3_t3722313464PK10MethodInfoPvPS2_
jNh:__Z69RuntimeInvoker_Void_t1185182177_Int32_t2950945753_Vector4_t3319028937PK10MethodInfoPvPS2_
ZWg:_Selectable_get_animator_m2899312855
Xcb:__ZN15dense_hashtableINSt3__24pairIKN4core12basic_stringIcNS2_20StringStorageDefaultIcEEEEP11AssetBundleEES6_20StringHash32FunctionIS6_EN14dense_hash_mapIS6_S9_SC_NS0_8equal_toIS6_EENS0_9allocatorISA_EEE9SelectKeyESF_SH_E4findERS7_
e0:__ZL20SortItemByInstanceIDRKN18AwakeFromLoadQueue4ItemES2_
b_d:_FontData_get_maxSize_m195374730
cLh:__Z45RuntimeInvoker_ScrollbarVisibility_t705693775PK10MethodInfoPvPS2_
l8e:_TypeConverterAttribute__ctor_m1774069684
Ku:__ZNK34AnimationStateMachineMixerPlayable26GetInterruptedPosePlayableEv
YRc:__ZN20UnityConnectSettings8TransferI24GenerateTypeTreeTransferEEvRT_
Hs:__ZN34BlobWriteTransferSTLStyleArrayImplI22OffsetPtrArrayTransferIbEEclERS1_17TransferMetaFlagsR9BlobWrite
Lad:_Byte_ToString_m4063101981
g3g:_GUIStyle_Internal_DrawWithTextSelection_m4095233580
qne:_MonoType_GetConstructors_m2574682189
WIh:__Z61RuntimeInvoker_Void_t1185182177_Il2CppObject_Rect_t2360479859PK10MethodInfoPvPS2_
zGj:__ZNK15dense_hashtableINSt3__24pairIK10KeyWrapperIPK19Il2CppGenericMethodEP10MethodInfoEES6_N6il2cpp8metadata23Il2CppGenericMethodHashEN14dense_hash_mapIS6_S9_SD_NS6_14EqualsComparerINSC_26Il2CppGenericMethodCompareEEENS0_9allocatorISA_EEE9SelectKeyESH_SJ_E10test_emptyERK30dense_hashtable_const_iteratorISA_S6_SD_SL_SH_SJ_E
WKa:__Z16FlaggedAsSkippedIN4core12basic_stringIcNS0_20StringStorageDefaultIcEEEEEbRK13FileEntryInfoRKT_19FileEnumerationFlag
_8e:_ServicePointManager_FindServicePoint_m4119451290
P5:__ZL31InitializeRendererUpdateManagerPv
jHg:_ParameterInfo__ctor_m2779026345
L2d:_InputField_set_onValueChange_m1251390545
l_d:_FontData_get_verticalOverflow_m4132840071
vxe:_DeriveBytes_set_Password_m3005258189
Koe:_NumberFormatter_get_IsZeroInteger_m2263284741
KM:__ZN13AudioListener12CleanupClassEv
g6:__Z13GetIEnlightenv
qDh:__Z50RuntimeInvoker_SecurityCompressionType_t4242483129PK10MethodInfoPvPS2_
IEh:__Z55RuntimeInvoker_Il2CppObject_RegexOptionsU26_t1638284957PK10MethodInfoPvPS2_
adb:__Z28GetAbsoluteAssetBundlePrefixRKN4core12basic_stringIcNS_20StringStorageDefaultIcEEEE
pDi:_HitInfo_t3229609740_marshal_pinvoke
JAi:_X509Certificate_PEM_m2020851166
okf:__ZL72Il2CppArray_CustomAttributesCacheGenerator_Array_BinarySearch_m687718979P21CustomAttributesCache
Qse:_BigInteger_op_GreaterThanOrEqual_m700865613
fdj:__ZNK15dense_hashtableINSt3__24pairIK10KeyWrapperIPK19Il2CppGenericMethodEPK26Il2CppGenericMethodIndicesEES6_N6il2cpp8metadata23Il2CppGenericMethodHashEN14dense_hash_mapIS6_SA_SE_NS6_14EqualsComparerINSD_26Il2CppGenericMethodCompareEEENS0_9allocatorISB_EEE9SelectKeyESI_SK_E12test_deletedERK24dense_hashtable_iteratorISB_S6_SE_SM_SI_SK_E
hHd:_Array_InternalArray__Insert_TisDateTime_t3738529785_m2308632330_gshared
nch:_Scene_GetHashCode_m42646907_AdjustorThunk
Qwb:__ZN11TimeManager8TransferI19StreamedBinaryWriteILb0EEEEvRT_
GJe:_TlsServerCertificateRequest_ProcessAsTls1_m3214041063
g_h:_Collection_1_RemoveAt_m3841405113_gshared
bEc:_compare_uni_maps
YIc:__ZL34RegisterModuleICalls_TextRenderingv
dQc:__ZN11UnityEngine15PlatformWrapper27GetGraphicsCapsSupportFlagsEv
jKc:__ZNSt3__218__insertion_sort_3IRPFbPN2UI6CanvasES3_EPS3_EEvT0_S8_T_
KVi:_U3CU3Ec__DisplayClass27_U3CpocViewU3Eb__25_m3795938759
gFa:__ZN18GlslGpuProgramGLES25LoadFromBinaryShaderCacheERKN4core12basic_stringIcNS0_20StringStorageDefaultIcEEEER17ShaderChannelMaskPKc
NLb:__ZN12NativeBufferI16Converter_StringE15SetupForWritingER9ArrayInfo
Wse:_SequentialSearchPrimeGeneratorBase_GenerateSearchBase_m3595783982
F5i:__ZL25UnresolvedVirtualCall_242P12Il2CppObject20UIVertex_t4057497605PK10MethodInfo
WFh:__Z77RuntimeInvoker_Vector3_t3722313464_Quaternion_t2301928331_Vector3_t3722313464PK10MethodInfoPvPS2_
J5f:_Transform_1__ctor_m788724302_gshared
bcd:_Char_ToString_m278452217
UEe:_CipherSuite_get_DecryptionCipher_m2839827488
O0h:_ReadOnlyCollection_1_System_Collections_IList_set_Item_m4047645019_gshared
pBe:_BigInteger_op_RightShift_m460065452
bkb:__ZThn268_N31CanvasBatchIntermediateRenderer20OnAssetBoundsChangedEv
X2a:__ZN13MonoBehaviour22DoScriptRebuildWarningEv
jac:__Z38Camera_CUSTOM_INTERNAL_CALL_RaycastTryP12Il2CppObjectRK3Rayfi
dTi:_ListPool_1_U3Cs_ListPoolU3Em__0_m2790550420_gshared
n1b:__ZZL23RegisterLightPropertiesR22GenericPropertyBindingEN22Wrapper_LightSpotAngle13GetFloatValueEPv
tfb:__ZN13Lz4CompressorD0Ev
oJc:__Z38TextGenerator_Get_Custom_PropLineCountP12Il2CppObject
XB:__ZN7mecanim4hand12PhalangeNameEj
Prg:_Encoding_GetEncoding_m2801244948
krf:__ZL52_Assembly_t1988906988_CustomAttributesCacheGeneratorP21CustomAttributesCache
$Gc:_tt_get_interface
Wuj:__ZN6il2cpp5utils9PathUtils7CombineIcEENSt3__212basic_stringIT_NS3_11char_traitsIS5_EENS3_9allocatorIS5_EEEERKSA_SC_
wqc:__ZN9JSONWrite8TransferI13dynamic_arrayIiLj4EEEEvRT_PKc17TransferMetaFlags
MXh:_Collection_1_System_Collections_IList_get_IsFixedSize_m214626114_gshared
gwf:__ZL86UTF7Encoding_t2644108479_CustomAttributesCacheGenerator_UTF7Encoding_Equals_m227704363P21CustomAttributesCache
bvf:__ZL59ApplicationTrust_t3270368423_CustomAttributesCacheGeneratorP21CustomAttributesCache
OIg:_EnumBuilder_GetConstructorImpl_m3068576149
VY:__Z18ConvertUTF16toUTF8PPKtS0_PPhS2_15ConversionFlags
Jzh:__Z85RuntimeInvoker_Void_t1185182177_Int16_t2552820387_Int16_t2552820387_Int32_t2950945753PK10MethodInfoPvPS2_
RFj:__ZN6il2cpp2os20PathErrnoToErrorCodeERKNSt3__212basic_stringIcNS1_11char_traitsIcEENS1_9allocatorIcEEEEi
NXf:__ZL68InputField_t3762917431_CustomAttributesCacheGenerator_m_KeyboardTypeP21CustomAttributesCache
I0i:__ZL16my_g_bit_nth_msfj
Yzf:__ZL65NonSerializedAttribute_t2945079482_CustomAttributesCacheGeneratorP21CustomAttributesCache
rsj:__ZN15dense_hashtableINSt3__24pairIK10KeyWrapperIP11Il2CppClassES4_EES5_N6il2cpp8metadata16SZArrayClassHashEN14dense_hash_mapIS5_S4_SA_NS5_14EqualsComparerINS9_19SZArrayClassCompareEEENS0_9allocatorIS7_EEE9SelectKeyESE_SG_E12expand_arrayEjN21dense_hash_map_traits17integral_constantIbLb0EEE
qfg:_DefaultComparer_GetHashCode_m3369508712_gshared
nFh:__Z61RuntimeInvoker_Void_t1185182177_CullingGroupEvent_t1722745023PK10MethodInfoPvPS2_
cJe:_TlsClientFinished_ProcessAsTls1_m2429863130
Ooi:_ActivatedClientTypeEntry_get_ApplicationUrl_m2894992111
USa:__Z23SetupStereoFlareElementP11FlareVertexRK8Vector2fS3_S3_RK11ColorRGBA32RK10Matrix4x4fRK8Vector3fb
Xxh:__Z56RuntimeInvoker_Il2CppObject_StreamingContext_t3711869237PK10MethodInfoPvPS2_
qIg:_DerivedType_GetCustomAttributes_m851300494
k7i:__ZN6il2cpp2vm5Class15GetInstanceSizeEPK11Il2CppClass
bBh:__Z61RuntimeInvoker_Il2CppObject_DateTime_t3738529785_Il2CppObjectPK10MethodInfoPvPS2_
oOe:_KeyValuePair_2_get_Key_m1149260547_AdjustorThunk
ta:invoke_iiiifiiii
Krh:__Z141RuntimeInvoker_Boolean_t97287965_Il2CppObject_Int32_t2950945753_Il2CppObject_SByte_t1669577662_UInt32U26_t3735378166_ExceptionU26_t3600731591PK10MethodInfoPvPS2_
R2d:_InputField_EnforceContentType_m2436948794
wtc:__ZN9rapidjson8internal6u64toaEyPc
ZXh:__ZN23InterfaceActionInvoker2Ii20UICharInfo_t75501106E6InvokeEjP11Il2CppClassP12Il2CppObjectiS0_
_rj:__ZNK15dense_hashtableINSt3__24pairIK10KeyWrapperINS1_IP11Il2CppClassjEEES4_EES6_N6il2cpp8metadata14ArrayClassHashEN14dense_hash_mapIS6_S4_SB_NS6_14EqualsComparerINSA_17ArrayClassCompareEEENS0_9allocatorIS8_EEE9SelectKeyESF_SH_E12test_deletedERK30dense_hashtable_const_iteratorIS8_S6_SB_SJ_SF_SH_E
B3c:_String_Join_m2050845953
b5f:_ShimEnumerator_MoveNext_m2406150314_gshared
uCa:__ZL19BlitFramebufferImplRN4gles23BlitFramebufferDrawQuadER9GfxDevice9TextureIDRK8Vector4f
gHb:__Z18Transfer_BlittableI17RemapPPtrTransferLb0EhEvRK29SerializationCommandArgumentsR31RuntimeSerializationCommandInfo
Zlj:__ZN15dense_hashtableINSt3__24pairIK10KeyWrapperIPK10Il2CppTypeEjEES6_N6il2cpp8metadata14Il2CppTypeHashEN14dense_hash_mapIS6_jSB_NS6_14EqualsComparerINSA_26Il2CppTypeEqualityComparerEEENS0_9allocatorIS8_EEE9SelectKeyESF_SH_E4findERS7_
eWj:dynCall_viiiiiiiiiiiiii
Zwc:_UNITY_FT_List_Add
j$b:__ZN14Texture2DArray11InitTextureEiii13TextureFormatb
Vvf:__ZL104Encoding_t1523322056_CustomAttributesCacheGenerator_Encoding_t1523322056____DecoderFallback_PropertyInfoP21CustomAttributesCache
tFd:_Array_InternalArray__ICollection_Add_TisUInt64_t4134040092_m4256575528_gshared
qfe:_Directory_CreateDirectoriesInternal_m3735342319
ZVf:__ZL108U3CStartU3Ec__Iterator0_t1249263001_CustomAttributesCacheGenerator_U3CStartU3Ec__Iterator0__ctor_m1316384627P21CustomAttributesCache
ATe:_List_1_RemoveAll_m517055598_gshared
xEf:__ZL82Camera_t4157153871_CustomAttributesCacheGenerator_Camera_get_clearFlags_m869917516P21CustomAttributesCache
XQg:_LayoutUtility_GetLayoutProperty_m3731360667
Qqj:__ZN15dense_hashtableINSt3__24pairIK10KeyWrapperINS1_IPK11Il2CppImageP11Il2CppClassEEEjEES9_17ReflectionMapHashIS8_EN14dense_hash_mapIS9_jSD_NS9_14EqualsComparerINS0_8equal_toIS8_EEEENS0_9allocatorISB_EEE9SelectKeyESI_SK_E14squash_deletedEv
VYc:_SHAConstants__cctor_m1699027474
zwb:__ZN9InputAxis8TransferI18StreamedBinaryReadILb0EEEEvRT_
D0i:_Panel_SignUp_Start_m1084158344
nXa:__ZNK6Camera26GetStereoSingleCullEnabledEv
GTe:_List_1_TrimExcess_m4121641494_gshared
Xxf:__ZL78Convert_t2465617642_CustomAttributesCacheGenerator_Convert_ToInt16_m1733792763P21CustomAttributesCache
cUi:_SymmetricTransform_FinalDecrypt_m764004682
B9h:_AnimationEvent_get_isFiredByLegacy_m2397681361
SEb:__Z18Transfer_BlittableI14SafeBinaryReadLb0EaEvRK29SerializationCommandArgumentsR31RuntimeSerializationCommandInfo
fcd:_CharEnumerator_System_Collections_IEnumerator_get_Current_m1328529384
UOh:__Z49RuntimeInvoker_Int32_t2950945753_Byte_t1134296376PK10MethodInfoPvPS2_
nYj:_emscripten_glFrustum__wrapper
Sli:_Font_HasCharacter_m2728901030
Fli:_ScriptPlayable_OnGraphStop_m765081704
rjb:__ZN17GlobalGameManager8TransferI24GenerateTypeTreeTransferEEvRT_
ybd:_Char_System_IConvertible_ToUInt64_m3536560782
Rgg:_EqualityComparer_1__cctor_m3452395357_gshared
WCc:_Render_Single_Pass
tPa:__Z20SyncFenceCullResultsR11CullResults
UDa:__ZN15TextureTFMethod20IsBoneCountSupportedEi
RC:__ZN26AnimatorControllerPlayable9GotoStateEiifff
sud:_Double_ToString_m3828879243_AdjustorThunk
Fag:_Dictionary_2_CopyTo_m1502123015_gshared
pIb:__Z22TransferField_NonArrayI17RemapPPtrTransfer27Converter_SimpleNativeClassI8GUIStyleEEvRK23StaticTransferFieldInfoR31RuntimeSerializationCommandInfoRT0_
Qke:_TextReader_Synchronized_m3004980758
NZb:__ZNK17AnimationCurveTplIfE20EvaluateWithoutCacheEfRf
_Dj:__ZN6il2cpp2os6Thread12QueueUserAPCEPFvPvES2_
hGg:_CustomAttributeData__ctor_m2966233049
_Vd:_CanvasUpdateRegistry_PerformUpdate_m1793997159
nIe:_Context_set_ClientWriteIV_m3405909624
a5b:__ZN4Mesh10SetNormalsEPK8Vector3fj
mUi:_AesManaged_CreateDecryptor_m692040246
VCj:__ZNSt3__212basic_stringIDsNS_11char_traitsIDsEENS_9allocatorIDsEEE9__grow_byEjjjjjj
Wq:__ZN17AnimationCurveTplIfE8TransferI14SafeBinaryReadEEvRT_
qId:_Array_InternalArray__set_Item_TisInt16_t2552820387_m2544074754_gshared
z5c:_ArithmeticException__ctor_m3551809662
Gmf:__ZL51BitArray_t4087883509_CustomAttributesCacheGeneratorP21CustomAttributesCache
B2e:__ZN21InterfaceFuncInvoker0I19Vector4_t3319028937E6InvokeEjP11Il2CppClassP12Il2CppObject
yrb:__ZNSt3__26vectorIN15QualitySettings14QualitySettingENS_9allocatorIS2_EEE6assignIPS2_EENS_9enable_ifIXaasr21__is_forward_iteratorIT_EE5valuesr16is_constructibleIS2_NS_15iterator_traitsIS9_E9referenceEEE5valueEvE4typeES9_S9_
zbb:__ZNK5Unity9Component10GetEnabledEv
gVg:_ScrollRect_get_scrollSensitivity_m2832710591
A3e:_Stack_1_System_Collections_IEnumerable_GetEnumerator_m1678592850_gshared
yTe:_List_1_CheckCollection_m1671972112_gshared
Whj:_il2cpp_class_get_image
kGe:_CipherSuiteFactory_GetSsl3SupportedCiphers_m3757358569
Ltg:_UnicodeEncoding_GetPreamble_m3002287178
iQe:_Enumerator_MoveNext_m3738780384_gshared
VZf:__ZL56Toggle_t2735377061_CustomAttributesCacheGenerator_m_IsOnP21CustomAttributesCache
xbi:_AudioConfigurationChangeHandler_EndInvoke_m1720774368
qwb:__ZN9InputAxis8TransferI14SafeBinaryReadEEvRT_
t0:__ZNK21ExecutionOrderManager30GetCustomAwakeFromLoadQueueForEPKN5Unity4TypeE
SRf:__ZL107StackTraceUtility_t3465565809_CustomAttributesCacheGenerator_StackTraceUtility_SetProjectFolder_m3713926588P21CustomAttributesCache
aTc:__Z27RegisterModule_UnityConnectv
mie:_MemoryStream_Expand_m3554752073
lpj:__ZN6il2cpp2vm10Reflection27GetCustomAttributesCacheForEP25Il2CppReflectionParameter
Lyh:__Z101RuntimeInvoker_Il2CppObject_Byte_t1134296376_Il2CppObject_SByte_t1669577662_Il2CppObject_Il2CppObjectPK10MethodInfoPvPS2_
UCd:_Array_FindLastIndex_TisIl2CppObject_m1404930667_gshared
tlg:_ObjectRecord_get_IsInstanceReady_m2304516395
jnh:_InternalEnumerator_1_System_Collections_IEnumerator_get_Current_m1635397542_gshared
Sie:_Path__cctor_m3273994011
pnd:_DateTimeUtils_CountRepeat_m3396693018
r9h:_AnimationEvent_get_intParameter_m2847673300
eEg:_WeakReference_get_Target_m168713953
AK:__ZN10ObjectPoolIN4FMOD12ChannelGroupENS0_13ChannelGroupIEE7SetSizeEi
DEj:__ZN6il2cpp2os10ThreadImpl33UnregisterCurrentThreadForCleanupEv
PIf:__ZL81Time_t2420636075_CustomAttributesCacheGenerator_Time_get_unscaledTime_m1478911891P21CustomAttributesCache
qAd:_Enumerable_Any_TisIl2CppObject_m3067056456_gshared
x1e:_List_1_System_Collections_IList_get_Item_m1315368445_gshared
XUf:__ZL114PointerEventData_t3807901092_CustomAttributesCacheGenerator_PointerEventData_get_pointerCurrentRaycast_m2627585223P21CustomAttributesCache
Lvi:_Parser_ParseGroupingConstruct_m263270497
rPd:_UIBehaviour_OnDisable_m1784507360
k9g:_Quaternion_Dot_m3405174114
tea:__ZN9ShaderLab7Program14RemoveVariantsERK13dynamic_arrayI16ShaderKeywordSetLj4EE
vT:__Z22ValidateTlsfAllocationPvjiS_
nih:_InternalEnumerator_1_MoveNext_m3525157932_gshared
Wqj:__ZN14dense_hash_mapI10KeyWrapperINSt3__24pairIPK9EventInfoP11Il2CppClassEEEj17ReflectionMapHashIS8_ENS9_14EqualsComparerINS1_8equal_toIS8_EEEENS1_9allocatorINS2_IKS9_jEEEEE15set_deleted_keyERSH_
uy:__ZN27AnimationLayerMixerPlayable22PrepareAnimationEventsEfR13dynamic_arrayI22AnimationClipEventInfoLj4EE
kGb:__Z14resize_trimmedINSt3__26vectorI17AnimationCurveTplIfE13stl_allocatorIS3_L18MemLabelIdentifier1ELi16EEEEEvRT_j
ovh:__Z49RuntimeInvoker_Byte_t1134296376_Int32_t2950945753PK10MethodInfoPvPS2_
Zzh:__Z250RuntimeInvoker_Int32_t2950945753_Il2CppObject_Int32_t2950945753_Int32_t2950945753_Il2CppObject_Int32_t2950945753_UInt32U26_t3735378166_UInt32U26_t3735378166_Il2CppObject_DecoderFallbackBufferU26_t3866396827_ByteU5BU5DU26_t4057885439_SByte_t1669577662PK10MethodInfoPvPS2_
e1a:__ZN25CameraStackRenderingState19SetupLastEyeCamerasERK11CameraStack
Lfb:__Z12GUIDToStringRK9UnityGUID
qje:_StreamReader_Close_m4195491216
iLe:_RSASslSignatureDeformatter_SetKey_m2204705853
GG:__ZN11SoundHandleC2ERKS_
Y1d:_InputField_set_shouldHideMobileInput_m1650743574
ccj:__ZNK6il2cpp5utils11collections13ArrayValueMapIPK10Il2CppType17Il2CppInteropData26InteropDataToTypeConverterNS_8metadata14Il2CppTypeLessENS8_26Il2CppTypeEqualityComparerEE10find_firstERKS5_
Y6g:_Mesh_CheckCanAccessSubmesh_m2822452902
kth:__Z49RuntimeInvoker_Void_t1185182177_Int64_t3736567304PK10MethodInfoPvPS2_
T2e:_List_1_Reverse_m1445355384_gshared
Oge:_FileStream_get_CanSeek_m331583577
r7a:__Z29StdTemplateConversionFunctionItxEbPvR14SafeBinaryRead
skg:_WellKnownServiceTypeEntry_get_ObjectType_m3211195371
xnd:_Convert_ToString_m239190601
i0f:__ZL173U3CFadeAlphaU3Ec__Iterator0_t1449618045_CustomAttributesCacheGenerator_U3CFadeAlphaU3Ec__Iterator0_System_Collections_Generic_IEnumeratorU3CobjectU3E_get_Current_m3848452170P21CustomAttributesCache
Wzf:__ZL65MissingMethodException_t1274661534_CustomAttributesCacheGeneratorP21CustomAttributesCache
grg:_DSAParameters_t1885824122_marshal_pinvoke_back
aA:__ZN8Animator22OnGraphTopologyChangedEP8Playablei
Lse:_Kernel_MultiplyByDword_m1266935086
Cra:__ZNSt3__26__treeINS_12__value_typeI18VertexChannelsInfoP17VertexDeclarationEENS_19__map_value_compareIS2_S5_NS_4lessIS2_EELb1EEE13stl_allocatorIS5_L18MemLabelIdentifier14ELi16EEE12__find_equalIS2_EERPNS_16__tree_node_baseIPvEENS_21__tree_const_iteratorIS5_PNS_11__tree_nodeIS5_SG_EEiEESJ_RKT_
_x:__ZN17AnimationPlayable18DeallocateBindingsEv
v2c:_String_Trim_m3384720403
hmb:__ZN14RenderSettings18TransferDeprecatedI14SafeBinaryReadEEvRT_
hAf:__ZL56RankException_t3812021567_CustomAttributesCacheGeneratorP21CustomAttributesCache
Dzg:_Type_ToString_m3975981286
R5g:_Material_get_mainTexture_m4181654696
eW:__ZN12TLSAllocatorI14StackAllocatorE8AllocateEji
t1:__ZN16ScriptingManager18GetMonoScriptCacheEi
Paj:__ZN13dynamic_arrayIPK10Il2CppTypeLj4EEC2ERKS3_
Zvi:_ExpressionAssertion__ctor_m2554412824
xxi:_CapturingGroup_IsComplex_m4061114763
XEb:__Z18Transfer_BlittableI14SafeBinaryReadLb1EyEvRK29SerializationCommandArgumentsR31RuntimeSerializationCommandInfo
knc:__ZN8JSONRead8TransferIfEEvRT_PKc17TransferMetaFlagsb
Hvg:_SynchronizationLockException__ctor_m3407855920
c8h:_Comparison_1_EndInvoke_m3981968715_gshared
C8c:__ZN21InterfaceFuncInvoker2IP12Il2CppObjectP6Type_tS1_E6InvokeEjP11Il2CppClassS1_S3_S1_
kbf:_X509SubjectKeyIdentifierExtension_Decode_m1505409124
eja:__ZN6prcoreL17RemapGenericFloatI18TexFormatARGBFloat17TexFormatRGBAHalfEEvPKNS_9InnerInfoE
_1c:_String_System_IConvertible_ToUInt16_m2888090399
VEg:_Assembly_InternalGetType_m3065345470
lO:__ZN13Simd4iFactoryIN6detail9FourTupleEEC2Eiiii
ahh:_InternalEnumerator_1__ctor_m3390957028_gshared
gni:_ResourceSet__ctor_m3356376607
yBe:_PrimeGeneratorBase_get_PrimalityTest_m2487240563
pMa:__ZZ23InitPlayerLoopCallbacksvEN38PostLateUpdateShaderHandleErrorsstruct7ForwardEv
Arf:__ZL56_ParameterInfo_t489405856_CustomAttributesCacheGeneratorP21CustomAttributesCache
ypb:__ZN15SerializeTraitsI33EnlightenTerrainChunksInformationE8TransferI14SafeBinaryReadEEvRS0_RT_
X$b:__ZNK32RendererMaterialAnimationBinding9BindValueER6ObjectRKN11UnityEngine9Animation14GenericBindingERNS3_10BoundCurveE
xYf:__ZL109MaskableGraphic_t3839221559_CustomAttributesCacheGenerator_MaskableGraphic_ParentMaskStateChanged_m1092090553P21CustomAttributesCache
Xli:_Font_get_dynamic_m1886714215
s6f:_Transform_1_Invoke_m1731820209_gshared
Ivb:__Z13GetIAnimationv
Qna:__ZL18stbir__support_onef
u1c:_Single_CompareTo_m189772128
ipc:__Z26Transfer_UnityEngineObjectI9JSONWriteLb0EEvRK29SerializationCommandArgumentsR31RuntimeSerializationCommandInfo
mph:_DefaultComparer_Compare_m4042058291_gshared
U0d:_Image_set_overrideSprite_m3213596394
Ofa:__ZNSt3__26vectorIN4core12basic_stringIcNS1_20StringStorageDefaultIcEEEE13stl_allocatorIS5_L18MemLabelIdentifier1ELi16EEE6assignINS_11__wrap_iterIPS5_EEEENS_9enable_ifIXaasr21__is_forward_iteratorIT_EE5valuesr16is_constructibleIS5_NS_15iterator_traitsISF_E9referenceEEE5valueEvE4typeESF_SF_
cLc:__ZNSt3__27__sort5IRNS_6__lessIN2UI14DepthSortEntryES3_EEPS3_EEjT0_S7_S7_S7_S7_T_
yge:_FileLoadException_ToString_m2989457882
LKi:_JsonData_System_Collections_IList_Contains_m1075980415
mEb:__Z18Transfer_BlittableI14SafeBinaryReadLb0E8Vector2fEvRK29SerializationCommandArgumentsR31RuntimeSerializationCommandInfo
wci:_Camera_FireOnPreRender_m475210052
Ewc:_UNITY_FT_DivFix
qNd:_Array_InternalArray__get_Item_TisDecimal_t2948259380_m3511003792_gshared
Inj:__ZNSt3__218uninitialized_copyIPNS_4pairIK10KeyWrapperINS1_IPK11Il2CppImageP11Il2CppClassEEEjEESC_EET0_T_SE_SD_
H_c:_SecurityElement_IsValidAttributeValue_m948345692
Ca:invoke_vdd
ln:FUNCTION_TABLE_fiii
Zpf:__ZL102MethodInfo_t_CustomAttributesCacheGenerator_MethodInfo_MakeGenericMethod_m1996785325____typeArguments0P21CustomAttributesCache
_ke:_TextWriter_Write_m2252948084
oLf:__ZL154AnimatorControllerPlayable_t1397024487_CustomAttributesCacheGenerator_AnimatorControllerPlayable_INTERNAL_CALL_GetNextAnimatorClipInfoInternal_m3870142241P21CustomAttributesCache
on:FUNCTION_TABLE_fiif
Csi:_AsyncResult_get_CallMessage_m1679778649
qPi:_CachedInvokableCall_1__ctor_m3594541075_gshared
jwd:_CCFixed_FromDateTime_m3894190577
U8h:_Func_2_EndInvoke_m805099398_gshared
fog:_RuntimeMethodHandle__ctor_m2229201676_AdjustorThunk
Ylg:_MessageFormatter_ReadMethodCall_m2327590823
Z_b:__Z14RandomRotationP9Texture2DPhiiii
rFd:_Array_InternalArray__ICollection_Add_TisUInt16_t2177724958_m3981262878_gshared
Ird:_Decimal_GetBits_m453754410
A_i:_HashSet_1_Contains_m3173358704_gshared
BZg:_ToggleEvent__ctor_m834619998
yDe:_PKCS1_Encode_v15_m2077073129
OPf:__ZL85GUIStyle_t3956901511_CustomAttributesCacheGenerator_GUIStyle_set_wordWrap_m3423085392P21CustomAttributesCache
irg:_DSASignatureDeformatter__ctor_m2759753186
k_h:_Collection_1_set_Item_m4084225937_gshared
Dii:_AnimatorControllerPlayable__ctor_m2879004405
ILf:__ZL118AnimatorControllerPlayable_t1397024487_CustomAttributesCacheGenerator_AnimatorControllerPlayable_CrossFade_m1192072189P21CustomAttributesCache
Ncj:__ZN24dense_hashtable_iteratorINSt3__24pairIK10KeyWrapperIPKcEP11Il2CppClassEES5_N6il2cpp5utils11StringUtils12StringHasherIS4_EEN14dense_hash_mapIS5_S8_SE_NS5_14EqualsComparerINSC_21CaseSensitiveComparerEEENS0_9allocatorIS9_EEE9SelectKeyESI_SK_E30advance_past_empty_and_deletedEv
Exa:__ZN4gles14UseGLSLProgramER15DeviceStateGLESjbij
nS:__ZNK13EmscriptenWWW14GetPartialDataEv
i2j:_glDeleteProgram__wrapper
qac:__Z50Register_UnityEngine_Camera_INTERNAL_get_pixelRectv
wia:__ZN6prcoreL18BlitFloatToIntegerERK14ImageReferenceRS0_
Ali:_PlayableHandle_Equals_m4241652461_AdjustorThunk
Sqd:_DBNull_System_IConvertible_ToUInt32_m3784627971
oHe:_ClientSessionCache_Add_m964342678
sMf:__ZL139AnimatorControllerPlayable_t1397024487_CustomAttributesCacheGenerator_AnimatorControllerPlayable_INTERNAL_CALL_HasStateInternal_m1387313397P21CustomAttributesCache
qZb:__Z13GetIPhysics2Dv
XQ:__ZN11UnityEngine15CloudWebService14RestDownloader17OnCompleteContentEv
Skj:__ZN15dense_hashtableINSt3__24pairIK10KeyWrapperINS1_IPK14Il2CppAssemblyP11Il2CppClassEEEjEES9_17ReflectionMapHashIS8_EN14dense_hash_mapIS9_jSD_NS9_14EqualsComparerINS0_8equal_toIS8_EEEENS0_9allocatorISB_EEE9SelectKeyESI_SK_E15insert_noresizeERKSB_
Yrd:_DivideByZeroException__ctor_m3496959969
GKe:_TlsStream_get_EOF_m953226442
Pa:invoke_viffi
ms:__ZN11UnityEngine9Animation40SetFlattenedSkeletonTransformsMainThreadER9TransformRKNS0_21AvatarBindingConstantEb
yZ:__ZNSt3__26vectorI20ProcessCallbackGroupNS_9allocatorIS1_EEEC2ERKS4_
Sz:__ZN17AnimationPlayable28UpdateInternalStateRecursiveILi1ELb0EEEvPK35AnimationPlayableEvaluationConstant
Sa:invoke_vifff
QHf:__ZL95MonoBehaviour_t3962482529_CustomAttributesCacheGenerator_MonoBehaviour_CancelInvoke_m3387619935P21CustomAttributesCache
W0j:_glGetVertexAttribiv__wrapper
Ne:_emscripten_request_fullscreen
Rnf:__ZL67IsolatedStorageException_t3468072396_CustomAttributesCacheGeneratorP21CustomAttributesCache
kV:__ZN20LocalFileSystemWebGL6DeleteER13FileEntryDatab
Pe:_emscripten_glDisableVertexAttribArray
Wzd:_Array_InternalArray__ICollection_Remove_TisSingle_t1397266774_m3361324455_gshared
Km:FUNCTION_TABLE_iiiifiiii
VEd:_Array_InternalArray__ICollection_Add_TisSlot_t3975888750_m1793695076_gshared
K0g:_GUIStyleState_INTERNAL_set_textColor_m205515088
Ehh:_InternalEnumerator_1__ctor_m3456047704_gshared
Wei:_Component_SendMessage_m2383548706
jc:invoke_fifffi
_Yh:_Collection_1_System_Collections_IList_Add_m2969482770_gshared
oJ:__ZN4FMOD5Sound15getNumSubSoundsEPi
Eya:__ZN4gles23ClearCurrentFramebufferEP7ApiGLESbbbRK10ColorRGBAffi
Ly:__ZN7mecanim12statemachine20CreateStateWorkspaceEjjjRNS_6memory9AllocatorE
aOc:__Z64Register_UnityEngine_CanvasRenderer_SplitIndiciesStreamsInternalv
_e:_emscripten_glDeleteObjectARB
eQd:_EventSystem_RaycastComparer_m3685368675
Uf:_IMG_Load
Nja:__ZN6prcoreL27StretchGenericFloatBilinearI18TexFormatARGBFloatEEvPKNS_9InnerInfoE
wXe:_List_1_get_Count_m3887180287_gshared
OWf:__ZL87U3CDelayedDestroyDropdownListU3Ec__Iterator0_t3853912249_CustomAttributesCacheGeneratorP21CustomAttributesCache
hye:_PKCS12_RemoveCertificate_m1421555398
$Ae:_Kernel_MinusEq_m2152832554
Tgf:_Interval__ctor_m4022869013_AdjustorThunk
wjc:__ZNK8GUIStyle21DrawWithTextSelectionER8GUIStateRK5RectTIfER10GUIContentbbbbbiiRK10ColorRGBAfSA_
Kjc:__Z14GetBuiltinSkini
mhg:_MethodDictionary_get_Item_m1201458851
xmh:_InternalEnumerator_1_System_Collections_IEnumerator_get_Current_m1911422882_gshared
e1c:_Single_System_IConvertible_ToSingle_m1939829239_AdjustorThunk
Vk:_JS_SystemInfo_GetBrowserVersionString
Qfi:_DisallowMultipleComponent__ctor_m1904568243
fWb:__ZN2UI13RectTransform23VirtualRedirectTransferER14SafeBinaryRead
nli:_AnimatorControllerPlayable_Play_m3110085428
x7f:_Enumerator_MoveNext_m3045873697_gshared
dPe:_Enumerator_Dispose_m1095364494_AdjustorThunk
Nji:_AnimatorControllerPlayable_GetLayerIndexInternal_m1641850510
aN:__ZZL31InitializeAudioManagerCallbacksvEN33FixedUpdateAudioFixedUpdatestruct7ForwardEv
MSb:__ZNSt3__26vectorIN9ShaderLab20SerializedSubProgramENS_9allocatorIS2_EEE6assignIPS2_EENS_9enable_ifIXaasr21__is_forward_iteratorIT_EE5valuesr16is_constructibleIS2_NS_15iterator_traitsIS9_E9referenceEEE5valueEvE4typeES9_S9_
brc:__Z18Transfer_BlittableI8JSONReadLb0E8BitFieldEvRK29SerializationCommandArgumentsR31RuntimeSerializationCommandInfo
h_c:_SecurityPermission_set_Flags_m1503445204
u_i:_HashSet_1_CopyTo_m2849056227_gshared
t6a:__ZN17PersistentManagerC2Eii
sxj:__ZN15dense_hashtableINSt3__24pairIK10KeyWrapperIP14Il2CppIUnknownEjEES5_N6il2cpp5utils11PointerHashIS3_EEN14dense_hash_mapIS5_jSB_NS5_14EqualsComparerINS0_8equal_toIS4_EEEENS0_9allocatorIS7_EEE9SelectKeyESG_SI_E9copy_fromERKSL_j
PMb:__ZL17Transfer_GUIStyleI18StreamedBinaryReadILb1EELb0EEvRK29SerializationCommandArgumentsR31RuntimeSerializationCommandInfo
Ehi:_UnityEvent_GetDelegate_m3910545044
tse:_ModulusRing_Multiply_m343333088
NXb:__ZN11TypeManager20RegisterNonClassTypeEiP4RTTIPKcS3_
$Qb:__ZN9ShaderLab14SerializedPass8TransferI14SafeBinaryReadEEvRT_
Ckc:__Z71Register_UnityEngine_GUILayoutUtility_INTERNAL_CALL_Internal_MoveWindowv
VM:__ZN12AudioManager16SetListenerPauseEb
yAd:_SetPropertyUtility_SetStruct_TisSingle_t1397266774_m2805350785_gshared
Wsg:_StringBuilder_get_Length_m3238060835
cqg:_CryptoStream_get_Position_m1986268930
dvj:__ZN6il2cpp2vm9Exception25RaiseOutOfMemoryExceptionERKNS_5utils10StringViewIDsEE
xtf:__ZL64OnSerializedAttribute_t2595932830_CustomAttributesCacheGeneratorP21CustomAttributesCache
JDj:__GLOBAL__sub_I_Thread_cpp_43698
da:invoke_viiiiiiiiiii
qQj:___syscall_ret
kSd:_PointerEventData_set_worldNormal_m1888481930
xVd:_CanvasScaler_set_referencePixelsPerUnit_m1768965301
Jwi:_AnchorInfo__ctor_m46784903
pke:_StringWriter_Write_m2131908442
zaj:__ZN15dense_hashtableI10KeyWrapperIPK17Il2CppGenericInstES4_N6il2cpp8metadata21Il2CppGenericInstHashEN14dense_hash_setIS4_S7_NS4_14EqualsComparerINS6_24Il2CppGenericInstCompareEEENSt3__29allocatorIS4_EEE8IdentityESB_SE_E6insertERKS4_
JFe:_CipherSuiteCollection_get_Item_m4188309062
fMe:_SslHandshakeHash_HashFinal_m2573455475
Tri:_SynchronizationAttribute_ReleaseLock_m1030353464
zjj:__ZNSt3__212basic_stringIcNS_11char_traitsIcEENS_9allocatorIcEEE6assignINS_11__wrap_iterIPKcEEEENS_9enable_ifIXaasr21__is_forward_iteratorIT_EE5valuesr38__libcpp_string_gets_noexcept_iteratorISC_EE5valueERS5_E4typeESC_SC_
Isb:__ZN11ChannelInfo8TransferI19StreamedBinaryWriteILb0EEEEvRT_
YCj:__ZN4utf88internal13validate_nextIPKcEENS0_9utf_errorERT_S5_Rj
WZf:__ZL53ToggleGroup_t123837990_CustomAttributesCacheGeneratorP21CustomAttributesCache
LAb:__ZN23ArchiveStorageConverter24ReadHeaderFromMemoryFileEv
lQh:__Z79RuntimeInvoker_Void_t1185182177_Int32_t2950945753_ParameterModifier_t1461694466PK10MethodInfoPvPS2_
APh:__Z53RuntimeInvoker_Void_t1185182177_LabelFixup_t858502054PK10MethodInfoPvPS2_
XXc:_SHA1Internal_AddLength_m2737455899
NTa:__ZN14qsort_internal13Partition3WayIP17RODataReplacementi19ROSorterReplacementEENSt3__24pairIT_S6_EES6_S6_T0_T1_
_Nf:__ZL105CanvasRenderer_t2598313366_CustomAttributesCacheGenerator_CanvasRenderer_INTERNAL_CALL_GetColor_m21875977P21CustomAttributesCache
s4d:_InputField_CreateCursorVerts_m3585916868
JOe:_KeyValuePair_2_get_Value_m755756747_gshared
lcc:__Z34Register_UnityEngine_Gradient_Initv
K5d:_LayoutGroup_OnDidApplyAnimationProperties_m1333813659
_Jg:_GenericTypeParameterBuilder_IsArrayImpl_m67259334
iri:_Context_ToString_m1073616138
VCh:__Z84RuntimeInvoker_Il2CppObject_Il2CppObject_Int32_t2950945753_Il2CppObject_Il2CppObjectPK10MethodInfoPvPS2_
MGg:_DefaultMemberAttribute_get_MemberName_m3384235354
bEd:_Array_InternalArray__IndexOf_TisUInt64_t4134040092_m1206929132_gshared
i2i:__ZL24UnresolvedVirtualCall_57P12Il2CppObjectiPK10MethodInfo
qYd:_InputField_EnforceTextHOverflow_m3400115777
EXe:_List_1_System_Collections_IEnumerable_GetEnumerator_m1225415523_gshared
Xdh:_InternalEnumerator_1_System_Collections_IEnumerator_get_Current_m3121310385_gshared
Awb:__ZN9InputAxis8TransferI19StreamedBinaryWriteILb0EEEEvRT_
HZb:__ZN13ProduceHelperI9TransformLb0EE7ProduceE18MemLabelIdentifier18ObjectCreationMode
tmc:__Z45Register_UnityEngine_GUIStyle_GetFontInternalv
B2d:_InputField_get_caretColor_m2973283772
nTi:_ListPool_1_Release_m591299672_gshared
AVh:_Collection_1_System_Collections_IList_Remove_m1624289785_gshared
g3i:__ZL25UnresolvedVirtualCall_109P12Il2CppObjectS0_S0_iiPK10MethodInfo
jai:_AnimatorTransitionInfo_IsUserName_m2064408313_AdjustorThunk
yyf:__ZL79Convert_t2465617642_CustomAttributesCacheGenerator_Convert_ToUInt16_m3116648921P21CustomAttributesCache
vZh:_Collection_1_RemoveAt_m226266097_gshared
MRi:_UnityEvent_1_AddListener_m1590149461_gshared
qPf:__ZL63GUISkin_t1244372282_CustomAttributesCacheGenerator_m_ScrollViewP21CustomAttributesCache
Qtd:_Double_System_IConvertible_ToInt16_m3591921965_AdjustorThunk
e8h:_Comparison_1_Invoke_m2925518770_gshared
M3a:__ZN10GameObject23VirtualRedirectTransferER18StreamedBinaryReadILb0EE
KTi:_SymmetricTransform__ctor_m2693628991
uHa:__ZN16MeshVertexFormatC2EjRK18VertexChannelsInfob
See:_ObjectDisposedException__ctor_m1034312941
Tzh:__Z150RuntimeInvoker_Int32_t2950945753_Il2CppObject_Int32_t2950945753_Int32_t2950945753_Il2CppObject_Int32_t2950945753_CharU26_t1697032762_SByte_t1669577662PK10MethodInfoPvPS2_
og:_glFrontFace
Uhe:_FileSystemInfo_InternalRefresh_m1700260373
mZd:_Dropdown_OnSubmit_m1624226516
kAf:__ZL101RuntimeMethodHandle_t1133924984_CustomAttributesCacheGenerator_RuntimeMethodHandle_Equals_m3301340296P21CustomAttributesCache
AC:__ZN26AnimatorControllerPlayable14SetLayerWeightEif
JYb:__ZN13ProduceHelperI19LowerResBlitTextureLb0EE7ProduceE18MemLabelIdentifier18ObjectCreationMode
YRg:_MaskUtilities_IsDescendantOrSelf_m2247511982
YGf:__ZL84Input_t1431474628_CustomAttributesCacheGenerator_Input_get_touchSupported_m461932327P21CustomAttributesCache
bZa:__ZNSt3__26vectorI16ShadowCasterData13stl_allocatorIS1_L18MemLabelIdentifier2ELi16EEE21__push_back_slow_pathIKS1_EEvRT_
e8a:__Z29StdTemplateConversionFunctionIbhEbPvR14SafeBinaryRead
JWe:_List_1_System_Collections_IList_Contains_m3674793472_gshared
dgj:__ZN6il2cpp6icalls8mscorlib6SystemL16GetFieldFromTypeINS_5utils10functional6FilterINSt3__212basic_stringIcNS7_11char_traitsIcEENS7_9allocatorIcEEEENS4_11StringUtils23CaseInsensitiveComparerEEEEEP21Il2CppReflectionFieldP11Il2CppClassSK_iRKT_
CJc:__Z51Register_UnityEngine_TextGenerator_GetLinesInternalv
i3e:_Enumerator_MoveNext_m1874895189_gshared
tUi:_AesManaged_set_Key_m767972181
Vae:_Int16_System_IConvertible_ToBoolean_m1656400658_AdjustorThunk
Yii:_AnimatorControllerPlayable_GetBoolID_m3481497650
ead:_Byte_System_IConvertible_ToInt64_m285584218
Oia:__ZN6prcoreL17RemapGenericFloatI17TexFormatRGBFloat18TexFormatRGBAFloatEEvPKNS_9InnerInfoE
Vfd:_DictionaryEntry_t3123975638_marshal_pinvoke_cleanup
vte:_BitConverterLE_GetUIntBytes_m949779219
LEd:_Array_InternalArray__ICollection_Add_TisDictionaryEntry_t3123975638_m665385049_gshared
bRj:___towrite
lme:_MissingMemberException__ctor_m2707802176
EJa:__ZN12HandlerChain10ToAbsoluteEPKc
Lsd:_DelegateSerializationHolder_GetDelegateData_m2109044103
Cyj:__ZN15dense_hashtableI10KeyWrapperIP18Il2CppGenericClassES3_N6il2cpp8metadata22Il2CppGenericClassHashEN14dense_hash_setIS3_S6_NS3_14EqualsComparerINS5_25Il2CppGenericClassCompareEEENSt3__29allocatorIS3_EEE8IdentityESA_SD_E8min_sizeEjj
Bng:_SerializationInfo_GetValue_m42271953
xG:__ZN9AudioClip11CreateSoundEv
moa:__ZN29SerializeTraitsForStringTypesIN4core12basic_stringIcNS0_20StringStorageDefaultIcEEEEE8TransferI24GenerateTypeTreeTransferEEvRS4_RT_
irj:__ZN14dense_hash_mapI10KeyWrapperINSt3__24pairIPK9FieldInfoP11Il2CppClassEEEj17ReflectionMapHashIS8_ENS9_14EqualsComparerINS1_8equal_toIS8_EEEENS1_9allocatorINS2_IKS9_jEEEEEC2EjRKSB_RKSF_
IFh:__Z45RuntimeInvoker_IMECompositionMode_t2677948540PK10MethodInfoPvPS2_
S7g:_PlayerConnection__ctor_m2357477230
Kmj:__ZNK15dense_hashtableINSt3__24pairIK10KeyWrapperINS1_IPK10MethodInfoP11Il2CppClassEEEjEES9_17ReflectionMapHashIS8_EN14dense_hash_mapIS9_jSD_NS9_14EqualsComparerINS0_8equal_toIS8_EEEENS0_9allocatorISB_EEE9SelectKeyESI_SK_E13find_positionERSA_
vKb:__Z18Transfer_BlittableI19StreamedBinaryWriteILb0EELb0E8Vector2fEvRK29SerializationCommandArgumentsR31RuntimeSerializationCommandInfo
ySc:__ZN11UnityEngine7Connect16PersistentValues13RestoreValuesER8JSONRead
Iae:_Guid_BaseToString_m3600006650
kLa:__ZN20ArchiveStorageReader31TryToReadDirectoryFromBlockDataEyPKvj
APd:_PointerEventData_set_pointerEnter_m3256217464
Sxj:__ZN6il2cpp2vmL11GetIdentityEP14Il2CppIUnknown
XJj:_GC_push_gc_structures
sJe:_TlsServerCertificate_ProcessAsTls1_m819212276
L3h:_ReadOnlyCollection_1_System_Collections_Generic_ICollectionU3CTU3E_Clear_m2102011098_gshared
bhj:__ZN6il2cpp6icalls8mscorlib6SystemL8IsPublicEPK9EventInfo
Wgd:_Hashtable_GetObjectData_m2584507417
JBe:_PrimalityTests_RabinMillerTest_m2544317101
fFa:__Z22GetShaderCachePathGLESv
UAe:_Kernel_DwordDivMod_m1540317819
cDf:__ZL49g_LitJson_Assembly_CustomAttributesCacheGeneratorP21CustomAttributesCache
Fde:_Int64_Equals_m858582563_AdjustorThunk
BJi:_ExporterFunc_EndInvoke_m2774891957
bee:_Int64_ToString_m2085073918_AdjustorThunk
UEa:__ZNSt3__26vectorIPN19ConstantBuffersGLES11ConstBufferENS_9allocatorIS3_EEE21__push_back_slow_pathIKS3_EEvRT_
CLf:__ZL147AnimatorControllerPlayable_t1397024487_CustomAttributesCacheGenerator_AnimatorControllerPlayable_CrossFadeInFixedTimeInternal_m3343163254____layer3P21CustomAttributesCache
QMg:_FieldInfo_GetFieldOffset_m1356898082
VIi:_WWW_GetTextEncoder_m938065735
sFf:__ZL98DebugLogHandler_t826086171_CustomAttributesCacheGenerator_DebugLogHandler_Internal_Log_m1402568625P21CustomAttributesCache
VDd:_Array_InternalArray__IndexOf_TisTypeTag_t3541821701_m2988972362_gshared
X_:__ZN8keywords6CreateEPKc
W0i:__ZL7log2_32j
TJb:__ZN24GenerateTypeTreeTransfer8TransferINSt3__26vectorI17AnimationCurveTplIfE13stl_allocatorIS4_L18MemLabelIdentifier1ELi16EEEEEEvRT_PKc17TransferMetaFlags
S:Math_imul
qPh:__Z58RuntimeInvoker_Void_t1185182177_KeyValuePair_2_t3016395677PK10MethodInfoPvPS2_
l2g:_GUIStyle_set_active_m1243127135
UJe:_TlsServerKeyExchange_Update_m453798279
Mrb:__ZN11PlayerPrefs6GetIntERKN4core12basic_stringIcNS0_20StringStorageDefaultIcEEEEi
QFe:_CipherSuiteCollection_System_Collections_IList_IndexOf_m1361500977
fZg:_Text_set_fontStyle_m648756124
kJc:__Z45TextGenerator_CUSTOM_INTERNAL_get_rectExtentsP12Il2CppObjectP5RectTIfE
Bod:_DateTime__ctor_m2135476686_AdjustorThunk
ldi:_CanvasRenderer_SetColor_m3481008010
Eig:_SoapFieldAttribute_IsInteropXmlElement_m2819415462
a1h:_ReadOnlyCollection_1_System_Collections_Generic_IListU3CTU3E_set_Item_m1300028287_gshared
yed:_SynchronizedArrayListWrapper_GetEnumerator_m1579424644
IWi:_EqualityComparer_1__ctor_m3717935020_gshared
u4i:__ZL25UnresolvedVirtualCall_177P12Il2CppObject19Vector4_t3319028937S1_PK10MethodInfo
w8h:_Comparison_1_EndInvoke_m2734814639_gshared
KY:__ZN18ScriptingArguments9AddObjectE18ScriptingObjectPtr
kNc:__Z39CanvasGroup_Get_Custom_PropInteractableP12Il2CppObject
IO:__ZN11UnityEngine15CloudWebService16SessionContainerD2Ev
j_j:_emscripten_glStencilOpSeparate__wrapper
YFc:_cf2_getLanguageGroup
Rya:__ZN17GenericDynamicVBOC2ER9GfxDevice13GfxBufferModejj
Hzh:__Z68RuntimeInvoker_Boolean_t97287965_Int16_t2552820387_Int32_t2950945753PK10MethodInfoPvPS2_
faf:_ServicePointManager_get_SecurityProtocol_m966397919
gcj:__ZN15dense_hashtableINSt3__24pairIK10KeyWrapperIPKcEP11Il2CppClassEES5_N6il2cpp5utils11StringUtils12StringHasherIS4_EEN14dense_hash_mapIS5_S8_SE_NS5_14EqualsComparerINSC_21CaseSensitiveComparerEEENS0_9allocatorIS9_EEE9SelectKeyESI_SK_E6insertERKS9_
uwd:_CCGregorianCalendar_day_from_fixed_m1674702403
$P:__ZN11UnityEngine15CloudWebService17SessionEventQueue10PurgeItemsEj
t2a:__ZN6Camera16StandaloneRenderENS_10RenderFlagEP6ShaderRKN4core12basic_stringIcNS3_20StringStorageDefaultIcEEEE
Qcf:_X509Chain_PrepareForNextCertificate_m3691934993
Bnb:__ZNK12CubemapArray13GetIsReadableEv
O8h:_Func_2_Invoke_m937783852_gshared
oMb:__Z18Transfer_BlittableI18StreamedBinaryReadILb1EELb1EtEvRK29SerializationCommandArgumentsR31RuntimeSerializationCommandInfo
Itf:__ZL57X509Certificate_t713131622_CustomAttributesCacheGeneratorP21CustomAttributesCache
Nta:__ZN9GfxDevice20DeallocRenderSurfaceEP17RenderSurfaceBase
vkd:_DateTime_FromTicks_m4059645178
ABa:__ZN20GpuProgramParameters36UpdatePrepareValuesMaximumBufferSizeEv
q2h:_ReadOnlyCollection_1_System_Collections_IList_RemoveAt_m2129436005_gshared
iqe:_SimpleCollator_GetContraction_m2205549079
YYi:_EqualityComparer_1_get_Default_m168544645_gshared
u2h:_ReadOnlyCollection_1_System_Collections_IList_get_IsReadOnly_m3888539454_gshared
jdc:__Z53Register_UnityEngine_Quaternion_INTERNAL_CALL_Inversev
rCe:_ARC4Managed_GenerateKey_m1607343060
cGd:_Array_InternalArray__ICollection_CopyTo_TisDecimal_t2948259380_m2749946216_gshared
YKe:_ReceiveRecordAsyncResult_get_ResultingBuffer_m1839161335
hhb:__ZN12BaseRenderer23RendererBecameInvisibleEv
pJg:_EnumBuilder_IsPointerImpl_m2644353933
asi:_EnvoyInfo__ctor_m276600651
ovc:__ZN20TextRenderingPrivate8FontImpl13CharacterInfo8TransferI18StreamedBinaryReadILb0EEEEvRT_
iKb:__Z29Transfer_Blittable_ArrayFieldI24GenerateTypeTreeTransferfEvRT_R9ArrayInfoRK23StaticTransferFieldInfo
Avf:__ZL113SecurityException_t975544473_CustomAttributesCacheGenerator_SecurityException_t975544473____Demanded_PropertyInfoP21CustomAttributesCache
Apj:__ZN14dense_hash_mapI10KeyWrapperIPK14Il2CppAssemblyEPK16MonoAssemblyNameN6il2cpp5utils11PointerHashIS2_EENS4_14EqualsComparerINSt3__28equal_toIS3_EEEENSD_9allocatorINSD_4pairIKS4_S7_EEEEEC2EjRKSB_RKSG_
p5a:__ZN19CustomRenderTexture9AddParentE4PPtrIS_E
Eqb:__ZN8Gradient8TransferI14SafeBinaryReadEEvRT_
m1c:_Single_System_IConvertible_ToUInt64_m3299129161_AdjustorThunk
Nfa:__ZNSt3__26vectorIN4core12basic_stringIcNS1_20StringStorageDefaultIcEEEE13stl_allocatorIS5_L18MemLabelIdentifier1ELi16EEE7reserveEj
D8f:_ValueCollection_System_Collections_Generic_ICollectionU3CTValueU3E_Contains_m3110959791_gshared
M9e:_IPv6Address_AsIPv4Int_m844941024
lpa:__ZN18IDCollectorFunctorD0Ev
sKe:_RecordProtocol__cctor_m1280873827
Lsg:_StringBuilder__ctor_m3504405255
qoi:_Marshal__cctor_m4007734770
RIj:_GC_new_free_list_inner
Pwe:_SymmetricTransform_Random_m2004892672
WNh:__Z52RuntimeInvoker_Boolean_t97287965_Vector4_t3319028937PK10MethodInfoPvPS2_
HDe:_EncryptedPrivateKeyInfo_get_IterationCount_m2912222740
wIj:_GC_err_printf
oof:__ZL63PathTooLongException_t2919094560_CustomAttributesCacheGeneratorP21CustomAttributesCache
_De:_RSAManaged_DecryptValue_m1804388365
Beh:_InternalEnumerator_1_System_Collections_IEnumerator_get_Current_m2980550840_AdjustorThunk
Nrc:__ZN8JSONRead8TransferI10RectOffsetEEvRT_PKc17TransferMetaFlagsb
SAj:__ZNK15dense_hashtableINSt3__24pairIK10KeyWrapperINS1_IPKcS4_EEEiEES6_24NamespaceAndNamePairHashN14dense_hash_mapIS6_iS9_NS6_14EqualsComparerI26NamespaceAndNamePairEqualsEENS0_9allocatorIS8_EEE9SelectKeyESD_SF_E12test_deletedERK24dense_hashtable_iteratorIS8_S6_S9_SH_SD_SF_E
JP:__ZN9JSONWrite8TransferIN11UnityEngine15CloudWebService14DataErrorEvent15FileErrorDetailEEEvRT_PKc17TransferMetaFlags
vWh:_Collection_1_ClearItems_m2728738230_gshared
Oce:_Int32_Parse_m2087562008
Yoa:__Z21ClearFenceWithoutSyncR8JobFence
klh:_InternalEnumerator_1_Dispose_m630370856_AdjustorThunk
KPg:_MonoProperty_GetAccessors_m412928203
USi:_TweenRunner_1_Start_m3757154622_gshared
tJ:__ZN12SoundManager20RegisterModifiedClipEP10SampleClip
Ljg:_RemotingServices_GetClientChannelSinkChain_m1499550585
Evd:_Environment_ReadXdgUserDir_m2654856189
eVg:_ScrollRect_get_decelerationRate_m74583805
vYc:_SHA384Managed_processBlock_m1272529332
Bvg:_Interlocked_CompareExchange_m3023855514
ccd:_Char_ToString_m278452217_AdjustorThunk
Wx:__ZN22AnimationMixerPlayable11DerivesFromE17ScriptingClassPtr
v9g:_RangeInt__ctor_m3370658309
L9i:__ZN15dense_hashtableI10KeyWrapperIPK17Il2CppGenericInstES4_N6il2cpp8metadata21Il2CppGenericInstHashEN14dense_hash_setIS4_S7_NS4_14EqualsComparerINS6_24Il2CppGenericInstCompareEEENSt3__29allocatorIS4_EEE8IdentityESB_SE_E13set_empty_keyERKS4_
rMh:__Z37RuntimeInvoker_Enumerator_t3350232909PK10MethodInfoPvPS2_
Jld:_Convert_ToDouble_m2924063577
FNe:_BasicConstraintsExtension__ctor_m3191645544
Ozg:_Type_get_IsNested_m3546087448
B1g:_GUISkin_set_verticalScrollbarThumb_m2540554596
eoh:_InternalEnumerator_1_System_Collections_IEnumerator_Reset_m1601477281_AdjustorThunk
Ati:_MethodCall_Init_m86192062
Unb:__ZN7Cubemap23VirtualRedirectTransferER18StreamedBinaryReadILb0EE
R8i:__ZNK10KeyWrapperIPKcE14EqualsComparerIN6il2cpp5utils11StringUtils21CaseSensitiveComparerEEclERKS2_SA_
vSh:__Z90RuntimeInvoker_Int32_t2950945753_AnimatorClipInfo_t3156717155_AnimatorClipInfo_t3156717155PK10MethodInfoPvPS2_
ANa:_UNITY_png_write_row
Knh:_InternalEnumerator_1__ctor_m1739091604_gshared
gdc:__ZNSt3__27__sort4IRNS_6__lessI11KeyframeTplIfES3_EEPS3_EEjT0_S7_S7_S7_T_
uPe:_Enumerator_System_Collections_IEnumerator_Reset_m959124362_gshared
Vei:_Component_SendMessage_m2000862420
kqe:_SimpleCollator_GetTailContraction_m2107754083
h4e:_Collection_1_System_Collections_IList_set_Item_m309429164_gshared
iJb:__ZL26Transfer_SimpleNativeClassI24GenerateTypeTreeTransfer17AnimationCurveTplIfELb0EEvRK29SerializationCommandArgumentsR31RuntimeSerializationCommandInfo
Pad:_Byte_ToString_m4063101981_AdjustorThunk
o6d:_DateTimeFormatInfo__ctor_m3106345035
Dgg:_EqualityComparer_1_System_Collections_IEqualityComparer_GetHashCode_m4137147946_gshared
hbj:__ZN15dense_hashtableINSt3__24pairIK10KeyWrapperI13dynamic_arrayIPK10Il2CppTypeLj4EEEPFvvEEES8_N6il2cpp8metadata19Il2CppSignatureHashEN14dense_hash_mapIS8_SB_SF_NS8_14EqualsComparerINSE_22Il2CppSignatureCompareEEENS0_9allocatorISC_EEE9SelectKeyESJ_SL_E4swapERSO_
W5:__ZN16LightmapSettings20DidChangeActiveSceneEP10UnitySceneS1_
P$f:__ZL59g_AssemblyU2DCSharp_Assembly_CustomAttributesCacheGeneratorP21CustomAttributesCache
Pjb:__ZNK17InstancedPropInfo15RenderInstancesERK15RenderNodeQueuePK17BatchInstanceDataj17ShaderChannelMask
O1g:_Object_get_name_m1414505214
MK:__ZN10AudioMixer11SetupGroupsEv
okc:__Z35Register_UnityEngine_Event_get_typev
pvj:__ZN6il2cpp2vm9Exception23GetInvalidCastExceptionERKNS_5utils10StringViewIDsEE
KNa:_UNITY_png_free
KYf:__ZL64Scrollbar_t1494447233_CustomAttributesCacheGenerator_m_DirectionP21CustomAttributesCache
Rz:__ZN8Animator28BuildControllerPlayableCacheEv
lsf:__ZL48Header_t549724581_CustomAttributesCacheGeneratorP21CustomAttributesCache
i0:__Z63ThreadAndSerializationSafeCheckGetMonoBehaviourBeingTransferredv
ntd:_StackTrace__ctor_m206492268
BWe:_List_1_set_Item_m4224739467_gshared
I_i:_Button_Back_Back_SetMyInfo_m388772249
tHg:_ConstructorBuilder_get_Name_m2426555260
Pcc:__Z37Register_UnityEngine_Input_GetAxisRawv
CEd:_Array_ForEach_TisIl2CppObject_m599801986_gshared
$5g:_Material_GetTexture_m2584124112
_Af:__ZL80ModulusRing_t596511505_CustomAttributesCacheGenerator_ModulusRing_Pow_m729002192P21CustomAttributesCache
Abh:_RectTransform_set_offsetMax_m2352202302
Kvi:_Parser_ParseCharacterClass_m4285351396
Rmd:_Convert_ToSByte_m2653418303
yhd:_SyncHashtable__ctor_m2449935938
ktj:__ZN24dense_hashtable_iteratorINSt3__24pairIK10KeyWrapperINS1_IP11Il2CppClassjEEES4_EES6_N6il2cpp8metadata14ArrayClassHashEN14dense_hash_mapIS6_S4_SB_NS6_14EqualsComparerINSA_17ArrayClassCompareEEENS0_9allocatorIS8_EEE9SelectKeyESF_SH_E30advance_past_empty_and_deletedEv
IXc:_RSAPKCS1SignatureFormatter_SetKey_m2935054088
b4i:__ZL25UnresolvedVirtualCall_158P12Il2CppObject39CustomAttributeNamedArgument_t287865710PK10MethodInfo
f6h:_ReadOnlyCollection_1_System_Collections_IList_Clear_m687220435_gshared
knd:_Convert_ToString_m1553911740
Wsb:__ZN14Texture2DArray23VirtualRedirectTransferER18StreamedBinaryReadILb0EE
qbg:_Dictionary_2_Init_m1506224451_gshared
uug:_UTF7Encoding_GetByteCount_m209415911
YVb:__ZN2UI13RectTransform13AwakeFromLoadE17AwakeFromLoadMode
syi:_RegularExpression_Compile_m2385682508
Ewd:_CompareInfo__cctor_m1837489679
s2f:_Enumerator_MoveNext_m974898587_gshared
yYa:__ZN14qsort_internal30FindAndMovePivotToLastPositionIP20ShadowCasterSortDatai26ShadowCasterSortDataSorterEEvT_S4_T0_T1_
paj:__ZNK15dense_hashtableI10KeyWrapperIPK19Il2CppGenericMethodES4_N6il2cpp8metadata23Il2CppGenericMethodHashEN14dense_hash_setIS4_S7_NS4_14EqualsComparerINS6_26Il2CppGenericMethodCompareEEENSt3__29allocatorIS4_EEE8IdentityESB_SE_E3endEv
dEb:__Z18Transfer_BlittableI14SafeBinaryReadLb1EiEvRK29SerializationCommandArgumentsR31RuntimeSerializationCommandInfo
Wcf:_X509ExtensionEnumerator_get_Current_m256207749
ePi:_Predicate_1__ctor_m3829092036_gshared
Kpa:__ZN17PersistentManager13GetAllFileIDsERKN4core12basic_stringIcNS0_20StringStorageDefaultIcEEEER13dynamic_arrayIxLj8EE
p7c:_Array_Sort_m182264525
w5d:_LayoutGroup_set_padding_m282562135
sgh:_InternalEnumerator_1_get_Current_m3781046_gshared
OGf:__ZL76Input_t1431474628_CustomAttributesCacheGenerator_Input_GetAxisRaw_m423811834P21CustomAttributesCache
R4e:_Collection_1_System_Collections_IList_get_IsReadOnly_m773226719_gshared
XFg:_Default_IsArrayAssignable_m953489228
eij:_il2cpp_field_get_offset
RAg:_UInt16_ToString_m355311020_AdjustorThunk
Hbj:__ZN15dense_hashtableINSt3__24pairIK10KeyWrapperI13dynamic_arrayIPK10Il2CppTypeLj4EEEPFvvEEES8_N6il2cpp8metadata19Il2CppSignatureHashEN14dense_hash_mapIS8_SB_SF_NS8_14EqualsComparerINSE_22Il2CppSignatureCompareEEENS0_9allocatorISC_EEE9SelectKeyESJ_SL_EC2EjRKSF_RKSJ_RKSN_
qLd:_Array_swap_TisUICharInfo_t75501106_TisUICharInfo_t75501106_m585514134_gshared
Wri:_SynchronizedClientContextSink__ctor_m4129963630
rk:_glGetStringi
B4c:_DecoderExceptionFallback_CreateFallbackBuffer_m1133375601
Jyj:__ZNK15dense_hashtableI10KeyWrapperIP18Il2CppGenericClassES3_N6il2cpp8metadata22Il2CppGenericClassHashEN14dense_hash_setIS3_S6_NS3_14EqualsComparerINS5_25Il2CppGenericClassCompareEEENSt3__29allocatorIS3_EEE8IdentityESA_SD_E10test_emptyERK30dense_hashtable_const_iteratorIS3_S3_S6_SF_SA_SD_E
Kmi:_ResourceReader_Dispose_m3597121875
I3f:_Enumerator_get_CurrentKey_m889650866_gshared
$ga:__ZNSt3__26__treeINS_12__value_typeIN9ShaderLab16FastPropertyNameEN18UnityPropertySheet11UnityTexEnvEEENS_19__map_value_compareIS3_S6_NS_4lessIS3_EELb1EEENS_9allocatorIS6_EEE12__find_equalIS3_EERPNS_16__tree_node_baseIPvEENS_21__tree_const_iteratorIS6_PNS_11__tree_nodeIS6_SG_EEiEESJ_RKT_
qtb:__ZN18StreamedBinaryReadILb0EE21TransferSTLStyleArrayI13dynamic_arrayI8Vector4fLj4EEEEvRT_17TransferMetaFlags
q1f:_Comparer_1_get_Default_m1513846993_gshared
r1e:_List_1_System_Collections_IList_Remove_m997133631_gshared
Raj:__ZN13dynamic_arrayIPK10Il2CppTypeLj4EE9push_backEv
O4i:__ZL25UnresolvedVirtualCall_197P12Il2CppObject19TimeSpan_t881159249S1_PK10MethodInfo
ung:_SerializationEntry__ctor_m1411687997_AdjustorThunk
tSa:__ZN9Coroutine16SetCurrentMethodE18ScriptingMethodPtr
a3f:_Enumerator_VerifyCurrent_m829026141_gshared
es:__ZN8Animator9WriteStepEv
Orb:__ZNSt3__23mapIN4core12basic_stringIcNS1_20StringStorageDefaultIcEEEE9PrefValueNS_4lessIS5_EENS_9allocatorINS_4pairIKS5_S6_EEEEEixERSB_
zqe:_SortKeyBuffer_AppendLevel5_m3963841125
Uhc:__ZN15DirectorManager22ConstructPlayableGraphEv
JYf:__ZL65Scrollbar_t1494447233_CustomAttributesCacheGenerator_m_HandleRectP21CustomAttributesCache
pU:__ZN13ScreenManager16SetScreenTimeoutEi
_Hb:__Z18Transfer_BlittableI17RemapPPtrTransferLb0EdEvRK29SerializationCommandArgumentsR31RuntimeSerializationCommandInfo
W5e:_Collection_1_ConvertItem_m1743542180_gshared
rJc:__Z38Register_UnityEngine_Font_HasCharacterv
w0a:__Z35IntersectSpherePlaneBoundsOptimizedRKN4math7_float4EPS1_i
TWc:_RNGCryptoServiceProvider__cctor_m3587754670
Ejh:_InternalEnumerator_1_MoveNext_m1728532725_AdjustorThunk
ICi:_X509Crl_get_IssuerName_m1792797338
CVe:_List_1_get_Count_m241572196_gshared
p6g:_Mathf_Approximately_m367990089
qii:_AnimationOffsetPlayable_get_position_m128393130
V6g:_Mesh_SetTrianglesImpl_m1411542981
OUg:_U3CClickRepeatU3Ec__Iterator0_System_Collections_Generic_IEnumeratorU3CobjectU3E_get_Current_m1221525672
z5:__Z22CleanupLODGroupManagerPv
kkc:__Z21Event_CUSTOM_PopEventP12Il2CppObject
$k:_glUniform3fv
xyb:__ZNSt3__218__insertion_sort_3IRN15ResourceManager10Dependency6SorterEPS2_EEvT0_S6_T_
QIc:_UNITY_FT_Init_Class_tt_service_gx_multi_masters
pdf:_X509ChainElement_Set_m655180762
z0f:__ZL76Panel_MainScene_t1057628098_CustomAttributesCacheGenerator_MainScenePanelObjP21CustomAttributesCache
eXa:__ZNK16LightmapSettings31GetRealtimeLightmapDecodeValuesEv
hL:__ZN5audio5mixer12SetSuspendedERNS0_16AudioMixerMemoryEb
rla:__ZN17PersistentManager21UnloadNonDirtyStreamsEv
Ktg:_UnicodeDecoder__ctor_m3606046165
Uvj:__ZN6il2cpp2vm13LivenessStateC2EP11Il2CppClassjPFvPP12Il2CppObjectiPvES7_PFvvESB_
Nwg:_Scheduler__ctor_m3313141270
kFi:_TextGenerator_get_lines_m2154533872
wQa:__ZN12ImageFilters4BlitER17ShaderPassContextP7TextureP13RenderTextureiPK18SharedMaterialDataPKcP6ShaderiNS_9BlitFlagsE11CubemapFaceRK8Vector2fSH_
X2c:_String_LastIndexOf_m3451222878
g_f:__ZL69CanvasScaler_t2767979955_CustomAttributesCacheGenerator_m_ScaleFactorP21CustomAttributesCache
cqi:_ConfigHandler_CheckPath_m3079311646
LNi:_U3CCreateWhereIteratorU3Ec__Iterator1D_1__ctor_m1723214851_gshared
wl:_emscripten_glDepthMask
Nkg:_RemotingServices_CreateClientProxy_m3886727610
Wza:__ZN4crnd25static_huffman_data_model22prepare_decoder_tablesEv
jbi:_PCMSetPositionCallback_Invoke_m3905727039
Qob:__ZN9Texture2D23VirtualRedirectTransferER17RemapPPtrTransfer
Lai:_AssetBundleRequest_t699759206_marshal_pinvoke
O5i:__ZL25UnresolvedVirtualCall_251P12Il2CppObjectiPK10MethodInfo
xKe:_RecordProtocol_GetMessage_m2086135164
rX:__ZL22CleanupUnityWebStreamsPv
uOb:__Z18Transfer_BlittableI18StreamedBinaryReadILb0EELb0E10ColorRGBAfEvRK29SerializationCommandArgumentsR31RuntimeSerializationCommandInfo
$5:__Znaj
I2j:_emscripten_glEnableClientState__wrapper
lEj:__ZN6il2cpp2os10ThreadImpl2IdEv
EX:__ZN17MessageIdentifierC2EPKcNS_7OptionsEPKN5Unity4TypeES1_
eE:__Z76AnimatorControllerPlayable_CUSTOM_INTERNAL_CALL_CrossFadeInFixedTimeInternalR9HPlayableifif
_Fi:_TrackedReference_t1199777556_marshal_pinvoke
b1c:_Single_System_IConvertible_ToSByte_m1208276900
_Id:_Array_InternalArray__set_Item_TisVector4_t3319028937_m757305038_gshared
bhb:__ZN11GameManager15ThreadedCleanupEv
N7f:_ValueCollection_System_Collections_Generic_ICollectionU3CTValueU3E_Add_m3298059628_gshared
Zbb:__ZN14SafeBinaryRead8TransferI14ConstantStringEEvRT_PKc17TransferMetaFlags
jYe:_List_1_Remove_m142247148_gshared
jVf:__ZL106PointerEventData_t3807901092_CustomAttributesCacheGenerator_PointerEventData_get_worldPosition_m1195452383P21CustomAttributesCache
zDh:__Z106RuntimeInvoker_Void_t1185182177_Il2CppObject_Il2CppObject_SByte_t1669577662_Int32_t2950945753_Il2CppObjectPK10MethodInfoPvPS2_
aLe:_SendRecordAsyncResult_SetComplete_m153213906
z$b:__ZN12LightManager15InitializeClassEv
_wg:_WaitHandle__cctor_m4242752477
Uda:__ZN9ShaderLab11shaderprops16GetComputeBufferEPK19ShaderPropertySheetS3_NS_16FastPropertyNameE
Q1:__ZN23ManagedAttributeManager35CallManagedGetDefaultExecutionOrderE17ScriptingClassPtr
X7b:__ZN18ScriptingArgumentsC2Ev
ZOh:__Z52RuntimeInvoker_Int32_t2950945753_Color32_t2600501292PK10MethodInfoPvPS2_
uQi:_UnityAction_1_Invoke_m286788042_gshared
h_j:_emscripten_glBlendFuncSeparate__wrapper
TOf:__ZL68GUISettings_t1774757634_CustomAttributesCacheGenerator_m_CursorColorP21CustomAttributesCache
$fe:_FileSystemInfo__ctor_m3769019897
WNd:_Array_InternalArray__get_Item_TisContentType_t1787303396_m421427711_gshared
aSa:__ZNK25CameraStackRenderingState27GetStereoImageEffectTextureEb
KUc:_HMACSHA384__ctor_m1677515580
PWc:_RIPEMD160Managed_J_m1336489154
zp:__ZN8Vector3f8TransferI14SafeBinaryReadEEvRT_
ko:FUNCTION_TABLE_ii
vR:__ZNSt3__26__treeINS_12__value_typeIN4core12basic_stringIcNS2_20StringStorageDefaultIcEEEES6_EENS_19__map_value_compareIS6_S7_NS_4lessIS6_EELb1EEENS_9allocatorIS7_EEE16__construct_nodeERKNS_4pairIKS6_S6_EE
aXh:_Collection_1_System_Collections_IList_get_IsReadOnly_m2202364665_gshared
oth:__Z74RuntimeInvoker_Decimal_t2948259380_Decimal_t2948259380_Decimal_t2948259380PK10MethodInfoPvPS2_
Ooc:__Z18Transfer_BlittableI9JSONWriteLb0E8BitFieldEvRK29SerializationCommandArgumentsR31RuntimeSerializationCommandInfo
cie:_MemoryStream_set_Capacity_m1773624579
Wrj:__ZNK15dense_hashtableINSt3__24pairIK10KeyWrapperINS1_IP11Il2CppClassjEEES4_EES6_N6il2cpp8metadata14ArrayClassHashEN14dense_hash_mapIS6_S4_SB_NS6_14EqualsComparerINSA_17ArrayClassCompareEEENS0_9allocatorIS8_EEE9SelectKeyESF_SH_E10test_emptyEj
cjd:_GC_SuppressFinalize_m1177400158
tb:invoke_diiii
SYj:b47
gvh:__Z121RuntimeInvoker_Void_t1185182177_SByte_t1669577662_SByte_t1669577662_Int32_t2950945753_Int32_t2950945753_Int32_t2950945753PK10MethodInfoPvPS2_
Lyc:_UNITY_FT_Destroy_Class_sfnt_services
p8a:__Z24CreateDirectoryRecursiveRKN4core12basic_stringIcNS_20StringStorageDefaultIcEEEE
Suh:__Z38RuntimeInvoker_MemberTypes_t3790569052PK10MethodInfoPvPS2_
HTb:__ZN9ShaderLab20SerializedSubProgram8TransferI18StreamedBinaryReadILb0EEEEvRT_
VLe:_SslClientStream_get_HaveRemoteValidation2Callback_m2858953511
DYj:b40
zic:__Z22MonoGUIContentToNative18ScriptingObjectPtrR10GUIContent
f$a:__Z9EndJobSetR8JobFence11JobPriority
cRf:__ZL54ContextMenu_t1295656858_CustomAttributesCacheGeneratorP21CustomAttributesCache
VJc:__ZN2UI13CanvasManager9AddCanvasEPNS_6CanvasE
uoa:__ZN9Texture3D8TransferI19StreamedBinaryWriteILb0EEEEvRT_
oTa:__ZNK6Camera22CalculateRenderingPathEv
Amd:_Convert_ToInt64_m3758262873
kgd:_Hashtable_TestPrime_m3839319309
Rt:__ZN11UnityEngine9Animation37SetGenericRootTransformPropertyValuesERKNS0_30AnimatorGenericBindingConstantERKN7mecanim10ValueArrayER9Transformbb
Fpb:__ZN28EnlightenRendererInformation8TransferI14SafeBinaryReadEEvRT_
Xxe:_PKCS12_get_IterationCount_m626423090
cIb:__ZL12InvokeMethodI17RemapPPtrTransferEvRK29SerializationCommandArgumentsR31RuntimeSerializationCommandInfo
O8e:_RemoteCertificateValidationCallback_Invoke_m3086073466
_3c:_StringComparer_Compare_m991165676
hBc:_tt_sbit_decoder_load_image
Ggh:_InternalEnumerator_1_MoveNext_m3299696349_AdjustorThunk
w0e:_List_1_System_Collections_ICollection_get_IsSynchronized_m1552759297_gshared
D0h:_ReadOnlyCollection_1_System_Collections_IList_Clear_m868794620_gshared
Csj:__ZN15dense_hashtableINSt3__24pairIK10KeyWrapperIP11Il2CppClassES4_EES5_N6il2cpp8metadata16SZArrayClassHashEN14dense_hash_mapIS5_S4_SA_NS5_14EqualsComparerINS9_19SZArrayClassCompareEEENS0_9allocatorIS7_EEE9SelectKeyESE_SG_EC2EjRKSA_RKSE_RKSI_
oii:_AnimationMixerPlayable__ctor_m1412535250
GSi:_U3CStartU3Ec__Iterator0_Dispose_m261027331_gshared
N0e:_List_1_Find_m3485944732_gshared
kCh:__Z81RuntimeInvoker_Il2CppObject_SByte_t1669577662_SByte_t1669577662_SByte_t1669577662PK10MethodInfoPvPS2_
Ric:__ZNSt3__24listIN10GUIManager12SortedScriptE11memory_poolIS2_EE6__sortI13OldSortScriptEENS_15__list_iteratorIS2_PvEESA_SA_jRT_
Hag:_Dictionary_2_Add_m2957141573_gshared
dYi:_EqualityComparer_1_System_Collections_IEqualityComparer_GetHashCode_m2588073987_gshared
TCh:__Z104RuntimeInvoker_Boolean_t97287965_Int32_t2950945753_Int64U5BU5DU26_t194432655_StringU5BU5DU26_t2154486980PK10MethodInfoPvPS2_
Tcj:__ZN24dense_hashtable_iteratorINSt3__24pairIK10KeyWrapperIPK11Il2CppClassEPKcEES6_N6il2cpp5utils11PointerHashIS3_EEN14dense_hash_mapIS6_S9_SE_NS6_14EqualsComparerINS0_8equal_toIS5_EEEENS0_9allocatorISA_EEE9SelectKeyESJ_SL_E30advance_past_empty_and_deletedEv
ebh:_RectTransform_INTERNAL_get_anchorMax_m2950850437
Dbb:__ZNK9Behaviour26GetTypeInfoVirtualInternalEv
nVi:_U3CU3Ec__DisplayClass27__ctor_m2155466961
LDe:_PrivateKeyInfo_get_PrivateKey_m3647771102
PFh:__Z73RuntimeInvoker_Single_t1397266774_Vector3_t3722313464_Vector3_t3722313464PK10MethodInfoPvPS2_
wag:_Dictionary_2_System_Collections_IDictionary_GetEnumerator_m4278373129_gshared
LHb:__Z18Transfer_BlittableI17RemapPPtrTransferLb1E8BitFieldEvRK29SerializationCommandArgumentsR31RuntimeSerializationCommandInfo
ouj:__ZN6il2cpp6icalls8mscorlib6System9ThreadingL11ThreadStartEPv
LZ:__ZN15DirectorManager12OnSampleTimeEv
CLg:_TypeBuilder_check_not_created_m3652863637
DTd:_StandaloneInputModule_UpdateModule_m450861257
Qz:__ZN8Animator13ClearBindingsEv
M6h:_ReadOnlyCollection_1_System_Collections_IList_Insert_m2928873627_gshared
ppd:_DateTime_get_UtcNow_m1393945741
vXi:_EqualityComparer_1__cctor_m314889309_gshared
qca:__ZN12CachedReader10Align4ReadEv
kfg:_DefaultComparer_GetHashCode_m556015105_gshared
sBi:_X501__cctor_m2428304915
Jvj:__ZN6il2cpp2vm9Exception28GetMarshalDirectiveExceptionEPKc
$Tf:__ZL77ExecuteEvents_t3484638744_CustomAttributesCacheGenerator_U3CU3Ef__mgU24cache1P21CustomAttributesCache
ATf:__ZL66U3CU3Ec__DisplayClass2e_t1853425651_CustomAttributesCacheGeneratorP21CustomAttributesCache
twd:_CCGregorianCalendar_month_from_fixed_m4268992710
yCd:_Array_compare_TisUICharInfo_t75501106_m1310495481_gshared
jZb:__ZNK28MonoBehaviourPropertyBinding12SetPPtrValueERKN11UnityEngine9Animation10BoundCurveEi
DUa:__Z21GetScriptingArraySize17ScriptingArrayPtr
Huc:__ZN20TextRenderingPrivate8FontImpl8TransferI14SafeBinaryReadEEvRT_
uga:__Z35UnityPropertySheet_MakeSortedColorsRKNSt3__23mapIN9ShaderLab16FastPropertyNameE10ColorRGBAfNS_4lessIS2_EENS_9allocatorINS_4pairIKS2_S3_EEEEEER10vector_mapIS2_S3_S5_NS6_INS7_IS2_S3_EEEEE
aTf:__ZL81MessageTypeSubscribers_t1684935770_CustomAttributesCacheGenerator_m_messageTypeIdP21CustomAttributesCache
$4h:_ReadOnlyCollection_1_System_Collections_IList_Clear_m4022532825_gshared
Rrg:_Encoding_get_ASCII_m3595602635
Fua:__ZN9GfxDevice17ImmediateTexCoordEifff
NCc:_ft_black_new
hgi:_DrivenRectTransformTracker_Add_m4180584832
rIg:_DerivedType_GetCustomAttributes_m3536779709
x2i:__ZL24UnresolvedVirtualCall_72P12Il2CppObjectPK10MethodInfo
eMg:_MethodBase_get_IsAbstract_m428833029
G7c:_AssemblyLoadEventHandler__ctor_m896828968
Seb:__ZN17FileSystemHandler4CopyER13FileEntryDataS1_
fYj:_emscripten_glUniform4f__wrapper
Lbd:_Char_IsDigit_m3646673943
vRe:_Enumerator_MoveNext_m2595190390_AdjustorThunk
IA:__ZN8Animator8TransferI19StreamedBinaryWriteILb0EEEEvRT_
ZVa:__ZNK6Camera16GetProjectionFarEv
B2a:__Z24InverseTransformRotationRK23TransformAccessReadOnlyRKN4math7_float4E
uCi:_X509Chain_Build_m2469702749
Z_c:_Evidence_get_IsSynchronized_m3446368195
nof:__ZL64Path_t1605229823_CustomAttributesCacheGenerator_InvalidPathCharsP21CustomAttributesCache
Aoa:__ZN7Texture34CreateFileTextureUploadInstructionE18TextureUploadFlagsj
tua:__ZN9GfxDevice21ResetDynamicResourcesEv
Dte:_BitConverterLE_ULongFromBytes_m1677445591
z3:__ZNSt3__27__sort4IRNS_6__lessI14ObjectLoadDataS2_EEPS2_EEjT0_S6_S6_S6_T_
$Gf:__ZL88Input_t1431474628_CustomAttributesCacheGenerator_Input_get_compositionString_m2388820371P21CustomAttributesCache
Thf:__ZL64SerializableAttribute_t1992588303_CustomAttributesCacheGeneratorP21CustomAttributesCache
$Of:__ZL59GUISkin_t1244372282_CustomAttributesCacheGenerator_m_toggleP21CustomAttributesCache
OYb:__ZN19LowerResBlitTexture13ApplySettingsEv
fXe:_List_1_GetIndex_m1083466_gshared
Pqj:__ZN15dense_hashtableINSt3__24pairIK10KeyWrapperINS1_IPK11Il2CppImageP11Il2CppClassEEEjEES9_17ReflectionMapHashIS8_EN14dense_hash_mapIS9_jSD_NS9_14EqualsComparerINS0_8equal_toIS8_EEEENS0_9allocatorISB_EEE9SelectKeyESI_SK_E15set_deleted_keyERKSB_
zA:__ZN8Animator8TransferI14SafeBinaryReadEEvRT_
msj:__ZN15dense_hashtableINSt3__24pairIK10KeyWrapperIP11Il2CppClassES4_EES5_N6il2cpp8metadata16SZArrayClassHashEN14dense_hash_mapIS5_S4_SA_NS5_14EqualsComparerINS9_19SZArrayClassCompareEEENS0_9allocatorIS7_EEE9SelectKeyESE_SG_E4swapERSJ_
ogb:__ZN17GlobalGameManager23VirtualRedirectTransferER18StreamedBinaryReadILb0EE
Vbj:__ZN14dense_hash_setI10KeyWrapperIPK19Il2CppGenericMethodEN6il2cpp8metadata23Il2CppGenericMethodHashENS4_14EqualsComparerINS6_26Il2CppGenericMethodCompareEEENSt3__29allocatorIS4_EEE6insertERKS4_
x3:__Z23AsyncReadForceCloseFileRKN4core12basic_stringIcNS_20StringStorageDefaultIcEEEE
Ow:__ZN17AnimationPlayable34CollectAnimatorControllerPlayablesER13dynamic_arrayIP26AnimatorControllerPlayableLj4EE
BN:__ZN16BaseVideoTexture19UpdateVideoTexturesEv
IOg:_MonoField_GetValue_m3124733531
Sjb:__Z28BuildSingleStreamChannelInfo17ShaderChannelMaskRK20VertexChannelsLayoutS_S2_P11ChannelInfo
Zvg:_Thread_GetCachedCurrentCulture_m3435630977
hHe:_Context_set_HandshakeState_m1329976135
CPi:_InvokableCall_1_Invoke_m2288947156_gshared
Wrb:__ZN6Sprite23VirtualRedirectTransferER19StreamedBinaryWriteILb0EE
uQd:_EventTrigger_Execute_m2453060771
U7h:_Comparison_1_Invoke_m517083441_gshared
kKh:__Z41RuntimeInvoker_ColorTweenMode_t1000778859PK10MethodInfoPvPS2_
kD:__Z51AnimationClipPlayable_CUSTOM_INTERNAL_CALL_GetSpeedR9HPlayable
Nlj:__ZNK15dense_hashtableINSt3__24pairIK10KeyWrapperINS1_IPK9FieldInfoP11Il2CppClassEEEjEES9_17ReflectionMapHashIS8_EN14dense_hash_mapIS9_jSD_NS9_14EqualsComparerINS0_8equal_toIS8_EEEENS0_9allocatorISB_EEE9SelectKeyESI_SK_E5beginEv
kea:__ZNK9ShaderLab7Program19HasMatchingVariantsERK13dynamic_arrayI16ShaderKeywordSetLj4EE
Ys:__ZN15SerializeTraitsIN4math4trsXEE8TransferI8BlobSizeEEvRS1_RT_
Vxa:__ZN14DataBufferGLES11CopySubDataEPKS_jjj
fe:_emscripten_glVertexPointer
lHa:__ZNSt3__26__treeI20DeviceDepthStateGLES11memcmp_lessIS1_S1_ENS_9allocatorIS1_EEE7destroyEPNS_11__tree_nodeIS1_PvEE
JLc:__ZN2UI13PrepareOutputERNS_7BatchesEjjNS_30AdditionalCanvasShaderChannelsE
Afj:__ZN6il2cpp2vm7Runtime47RaiseExecutionEngineExceptionIfMethodIsNotFoundEPK10MethodInfo
mui:_PatternCompiler_GetMachineFactory_m3758869886
fZa:__Z17GetFrustumPortionPK8Vector3fffPS_
g8f:_ValueCollection_System_Collections_Generic_ICollectionU3CTValueU3E_get_IsReadOnly_m3601671076_gshared
oxj:__ZN15dense_hashtableINSt3__24pairIK10KeyWrapperIP14Il2CppIUnknownEjEES5_N6il2cpp5utils11PointerHashIS3_EEN14dense_hash_mapIS5_jSB_NS5_14EqualsComparerINS0_8equal_toIS4_EEEENS0_9allocatorIS7_EEE9SelectKeyESG_SI_E14squash_deletedEv
LQd:_EventTrigger_OnCancel_m585099428
rvf:__ZL107CodeAccessPermission_t2681295399_CustomAttributesCacheGenerator_CodeAccessPermission_GetHashCode_m880096813P21CustomAttributesCache
Jkf:__ZL65Il2CppArray_CustomAttributesCacheGenerator_Array_Sort_m3145621264P21CustomAttributesCache
WE:__Z96Register_UnityEngine_Experimental_Director_AnimatorControllerPlayable_INTERNAL_CALL_PlayInternalv
wog:_RuntimeTypeHandle_Equals_m2857439487_AdjustorThunk
_Wh:_Collection_1_System_Collections_ICollection_get_SyncRoot_m1659213062_gshared
g2h:_ReadOnlyCollection_1_System_Collections_Generic_IListU3CTU3E_set_Item_m88350439_gshared
o0f:__ZL71MainCamera_t2930831577_CustomAttributesCacheGenerator_MainScenePanelObjP21CustomAttributesCache
$Df:__ZL109AsyncOperation_t1445031843_CustomAttributesCacheGenerator_AsyncOperation_set_allowSceneActivation_m1319035743P21CustomAttributesCache
EQa:__ZN14GraphicsHelper8DrawQuadER9GfxDevice17ShaderChannelMaskbRK5RectTIfE
Zwi:_Reference_Compile_m4195878675
u4h:_ReadOnlyCollection_1_System_Collections_ICollection_CopyTo_m2672196987_gshared
Q1c:_String_System_IConvertible_ToChar_m863771412
zIi:_Vector4_ToString_m592115335_AdjustorThunk
pcd:_ArrayList__ctor_m3828927650
oEa:__ZN10Matrix3x3f15InvertTransposeEv
EJf:__ZL73WWW_t3688466362_CustomAttributesCacheGenerator_WWW_get_isDone_m3171063254P21CustomAttributesCache
f0c:_SecurityException_get_Demanded_m2500043391
uff:_CaptureCollection_GetEnumerator_m732412500
ebi:_DefaultExecutionOrder_get_order_m2144583152
kji:_AnimatorControllerPlayable_INTERNAL_CALL_SetIntegerString_m941765352
Czb:__ZN24GenerateTypeTreeTransfer8TransferINSt3__26vectorIN4core12basic_stringIcNS3_20StringStorageDefaultIcEEEE13stl_allocatorIS7_L18MemLabelIdentifier12ELi16EEEEEEvRT_PKc17TransferMetaFlags
WGb:__Z29Transfer_Blittable_ArrayFieldI14SafeBinaryRead8Vector3fEvRT_R9ArrayInfoRK23StaticTransferFieldInfo
pbg:_Dictionary_2_set_Item_m3605506666_gshared
wdf:_X509Chain_GetAuthorityKeyIdentifier_m2237883181
qtf:__ZL62IFormatterConverter_t2171992254_CustomAttributesCacheGeneratorP21CustomAttributesCache
oyf:__ZL78Convert_t2465617642_CustomAttributesCacheGenerator_Convert_ToSByte_m4075629912P21CustomAttributesCache
Yig:_SoapTypeAttribute_get_XmlTypeNamespace_m4211398148
Bvc:__ZN20TextRenderingPrivate8FontImpl18ResetCachedTextureEv
pcc:__Z27Screen_Get_Custom_PropWidthv
VHi:_Vector3_Min_m4041074433
bda:__ZN11NamedObject15ThreadedCleanupEv
V9b:__Z53Register_UnityEngine_Behaviour_get_isActiveAndEnabledv
RBb:__ZNK13MonoBehaviour26GetTypeInfoVirtualInternalEv
x7c:_SimpleEnumerator_get_Current_m72361444
dq:__ZNSt3__26vectorIN4core12basic_stringIcNS1_20StringStorageDefaultIcEEEENS_9allocatorIS5_EEE8__appendEj
hij:_il2cpp_gc_collect
Wxb:__ZN26PlayerSettingsSplashScreen8TransferI17RemapPPtrTransferEEvRT_
lvc:__ZN20TextRenderingPrivate8FontImpl8TransferI17RemapPPtrTransferEEvRT_
lgj:__ZN6il2cpp6icalls8mscorlib6SystemL17CollectTypeFieldsINS_5utils10functional10TrueFilterEEEvP11Il2CppClassPKS7_iRNSt3__26vectorIP9FieldInfoNSB_9allocatorISE_EEEERKT_
tXb:__Z13GetTagManagerv
dgd:_Hashtable__ctor_m1815022027
hQi:_InvokableCall_2_Invoke_m4103345430_gshared
Rug:_UTF8Encoding_GetChars_m1433288684
W2f:_Enumerator_Reset_m3756080284_AdjustorThunk
mAh:__Z49RuntimeInvoker_Byte_t1134296376_SByte_t1669577662PK10MethodInfoPvPS2_
PSf:__ZL82Logger_t274032455_CustomAttributesCacheGenerator_Logger_get_logEnabled_m1127371265P21CustomAttributesCache
Qt:__ZN11UnityEngine9Animation37HasGenericRootTransformPropertyValuesERKNS0_30AnimatorGenericBindingConstantEb
sO:__ZN11UnityEngine15CloudWebService17CloudJobSchedulerD0Ev
Ala:__ZN18LoadSceneOperation7PerformEv
vyg:_TimeZone_ToUniversalTime_m2789507578
fDd:_Array_IndexOf_TisUICharInfo_t75501106_m3198896198_gshared
vIe:_Context_get_Current_m2853615040
Jxd:_CultureInfo_construct_internal_locale_from_lcid_m2668301444
bwi:_Assertion__ctor_m2128950829
BE:__Z113Register_UnityEngine_Experimental_Director_AnimatorControllerPlayable_INTERNAL_CALL_GetAnimatorControllerInternalv
Rse:_PrimeGeneratorBase__ctor_m2973488305
h3g:_GUIUtility_Internal_GetKeyboardControl_m389300845
jjc:__Z21CleanupGlobalGUIStatev
yzg:_Type_IsContextfulImpl_m3693603908
wJi:_ArrayMetadata_t894288939_marshal_pinvoke_back
pgh:_InternalEnumerator_1__ctor_m3117895283_AdjustorThunk
UQe:_Enumerator_VerifyState_m2873941769_gshared
lMi:_JsonWriter_Write_m2044706063
KFa:__ZN22VertexDeclarationCache5ClearEv
pqg:_CspParameters__ctor_m3852972821
Lze:_AppDomainInitializer_EndInvoke_m2095010821
aSe:_List_1_System_Collections_IList_Insert_m562138403_gshared
n6a:__ZN17PersistentManager12SetPathRemapERKN4core12basic_stringIcNS0_20StringStorageDefaultIcEEEES6_
Dyh:__Z47RuntimeInvoker_TimeSpan_t881159249_Il2CppObjectPK10MethodInfoPvPS2_
L_a:__ZN6Camera24PrepareCullingParametersERK23CameraCullingParameters13RenderingPathR11CullResults
Mla:__ZN19RuntimeSceneManager22EndIntegrateMainThreadEP10UnitySceneNS_11LoadingModeE
_7g:__ZN21InterfaceFuncInvoker0IP34MessageTypeSubscribers_t1684935770E6InvokeEjP11Il2CppClassP12Il2CppObject
K2h:_ReadOnlyCollection_1_System_Collections_Generic_IListU3CTU3E_set_Item_m157706389_gshared
u5g:_Keyframe_set_outTangent_m987237702_AdjustorThunk
eIb:__Z26Transfer_UnityEngineObjectI17RemapPPtrTransferLb0EEvRK29SerializationCommandArgumentsR31RuntimeSerializationCommandInfo
SWb:__ZN17WeakPtrSharedDataD0Ev
jvi:_QuickSearch_GetShiftDistance_m2542665852
yNd:_Array_InternalArray__get_Item_TisCustomAttributeTypedArgument_t2723150157_m2639399822_gshared
Bre:_BigInteger_GenerateRandom_m3141592944
bKb:__Z29Transfer_Blittable_ArrayFieldI24GenerateTypeTreeTransfer4AABBEvRT_R9ArrayInfoRK23StaticTransferFieldInfo
S3i:__ZL25UnresolvedVirtualCall_147P12Il2CppObjectaaPK10MethodInfo
dhf:_Interval_Contains_m1454846757
O_d:_Graphic_CacheCanvas_m1120385152
Noh:_InternalEnumerator_1_MoveNext_m1262906009_gshared
Xbh:_UpdatedEventHandler__ctor_m1354828285
JZd:_U3CDelayedDestroyDropdownListU3Ec__Iterator0_Dispose_m100123149
nMi:_U3CU3Ec__CompilerGenerated1_U3CRegisterBaseImportersU3Ec__16_m489636787
vMa:__ZZ23InitPlayerLoopCallbacksvEN36UpdateScriptRunBehaviourUpdatestruct7ForwardEv
TSe:_List_1_System_Collections_Generic_IEnumerableU3CTU3E_GetEnumerator_m944444416_gshared
Da:invoke_fiiifii
JRj:_modff
SYa:__ZN20SphericalHarmonicsL219AddDirectionalLightERKN4math7_float3ERKNS0_7_float4E
yef:_X509ChainElementCollection_get_IsSynchronized_m3980338507
AZ:__Z26ScheduleJobForEachInternalR8JobFencePFvPvjES1_iPFvS1_E11JobPriority
u6b:__ZN9Scripting18RaiseMonoExceptionEPKcz
Job:__ZN9Texture2D8TransferI19StreamedBinaryWriteILb0EEEEvRT_
P_c:_StrongNamePublicKeyBlob_Equals_m3655422942
YAb:__ZN24RingBufferMemoryFileData6UnlockEPv
S$c:_SecurityContext__ctor_m1730177197
Y$b:__ZN9ShaderLab16FastPropertyName15InitBy28BitHashEj
r7i:__ZN6il2cpp2vm5Class7GetNameEP11Il2CppClass
WSe:_List_1_System_Collections_IList_Add_m2937161398_gshared
Q0h:_ReadOnlyCollection_1_CopyTo_m3722791265_gshared
WHh:__Z443RuntimeInvoker_Boolean_t97287965_Il2CppObject_Il2CppObject_Il2CppObject_ColorU26_t491168876_Int32_t2950945753_Single_t1397266774_Single_t1397266774_Int32_t2950945753_SByte_t1669577662_SByte_t1669577662_Int32_t2950945753_Int32_t2950945753_Int32_t2950945753_Int32_t2950945753_SByte_t1669577662_Int32_t2950945753_Single_t1397266774_Single_t1397266774_Single_t1397266774_Single_t1397266774_SByte_t1669577662_SByte_t1669577662_UInt32U26_t3735378166PK10MethodInfoPvPS2_
rZb:__ZN13ProduceHelperIN2UI13RectTransformELb0EE7ProduceE18MemLabelIdentifier18ObjectCreationMode
P1f:_Enumerator_System_Collections_IDictionaryEnumerator_get_Key_m195047678_AdjustorThunk
Fgi:_Event_Equals_m1159919013
Q7d:_DateTimeFormatInfo_get_RawAbbreviatedMonthNames_m2395953416
Utb:__ZN17PackedFloatVector12UnpackFloatsEPfiiii
qMg:_TypeBuilder_ToString_m3497908325
ov:__ZN17AnimationPlayable28UpdateInternalStateRecursiveILi3ELb0EEEvPK35AnimationPlayableEvaluationConstant
yva:__ZN13GfxDeviceGLES21DestroyComputeProgramER12ObjectHandleI18ComputeProgram_TagPvE
Iui:_PatternCompiler_EmitIfDefined_m2075050865
wsh:__Z63RuntimeInvoker_Il2CppObject_Int32_t2950945753_Int32_t2950945753PK10MethodInfoPvPS2_
xrd:_Decimal_System_IConvertible_ToInt64_m1446427516_AdjustorThunk
C5:__ZN17UniqueIDGenerator16DestroyPureIndexEj
roe:_NotImplementedException__ctor_m3095902440
a2:__ZL21AppendNestedClassName17ScriptingClassPtrRN4core17string_with_labelILi1EEE
BRb:__ZN14SafeBinaryRead21TransferSTLStyleArrayINSt3__26vectorIN9ShaderLab20SerializedSubProgram12UAVParameterENS1_9allocatorIS5_EEEEEEvRT_17TransferMetaFlags
SWi:_EqualityComparer_1__ctor_m3365041213_gshared
k0f:__ZL118U3CFadeAlphaU3Ec__Iterator0_t1449618045_CustomAttributesCacheGenerator_U3CFadeAlphaU3Ec__Iterator0_Dispose_m1365263180P21CustomAttributesCache
gT:__ZNK13BaseAllocator10IsAssignedEv
BP:__ZN24TextDOMTransferWriteBaseI9JSONWriteE12PushMetaFlagEi
yDd:_Array_InternalArray__IndexOf_TisKeyValuePair_2_t3177551628_m1014539105_gshared
FGf:__ZL98TouchScreenKeyboard_t731888065_CustomAttributesCacheGenerator_TouchScreenKeyboard_Open_m3740618662P21CustomAttributesCache
Rja:__ZN6prcoreL26RemapGenericIntegerToFloatI17TexFormatARGB888815TexFormatRFloatEEvPKNS_9InnerInfoE
YS:__ZN5Mutex6UnlockEv
afj:__ZN6il2cpp2vm10ThreadPool10InitializeEv
hxi:__ZN23InterfaceActionInvoker4IiibP19LinkRef_t2971865410E6InvokeEjP11Il2CppClassP12Il2CppObjectiibS1_
Ojj:__ZN6il2cpp2vm17TypeNameParseInfoD2Ev
h_i:_PrimeHelper_ToPrime_m3704362632_gshared
frd:_Decimal_System_IConvertible_ToType_m2919262279
Igi:_Event_get_commandName_m3342234398
rqb:__ZNK8Renderer8GetLayerEv
_ie:_Stream_Close_m771352034
tph:__ZN21InterfaceFuncInvoker1Ii19TimeSpan_t881159249E6InvokeEjP11Il2CppClassP12Il2CppObjectS0_
Qib:__ZN12FlareManager11DeleteFlareEi
Jz:__ZN7mecanim9animation22DestroyBlendTreeOutputEPNS0_15BlendTreeOutputERNS_6memory9AllocatorE
XEh:__Z85RuntimeInvoker_Char_t3634460470_Il2CppObject_Int32U26_t1369213839_CharU26_t1697032762PK10MethodInfoPvPS2_
kVa:__ZNK6Camera20GetReplacementShaderEv
u0e:_List_1_System_Collections_IList_Remove_m4226673807_gshared
VJa:__ZN12HandlerChain11MoveToTrashER13FileEntryData
HNj:__ZNSt3__26__treeINS_12__value_typeINS_12basic_stringIcNS_11char_traitsIcEENS_9allocatorIcEEEEPFvvEEENS_19__map_value_compareIS7_SA_NS_4lessIS7_EELb1EEENS5_ISA_EEE4findIS7_EENS_15__tree_iteratorISA_PNS_11__tree_nodeISA_PvEEiEERKT_
JRb:__ZNSt3__26vectorIN9ShaderLab20SerializedSubProgram14ConstantBufferENS_9allocatorIS3_EEE7reserveEj
Gna:__ZL23stbir__calculate_memoryP11stbir__info
G2h:_ReadOnlyCollection_1_System_Collections_Generic_IListU3CTU3E_Insert_m1503398693_gshared
Z1g:_GUIStyle__ctor_m2204791900
ngf:_Interpreter_Close_m126356671
dVh:_Collection_1_InsertItem_m168969280_gshared
kKc:__ZNSt3__227__insertion_sort_incompleteIRPFbPN2UI6CanvasES3_EPS3_EEbT0_S8_T_
gtc:__ZNK9rapidjson12GenericValueINS_4UTF8IcEE13JSONAllocatorE6AcceptINS_12PrettyWriterI16TempBufferWriterS2_S2_S3_EEEEbRT_
M8g:_Object_Instantiate_m3242828326
Fsg:_Latin1Encoding_GetMaxCharCount_m1720752733
Bvi:_Parser_HandleExplicitNumericGroups_m1412234891
vGg:_CustomAttributeNamedArgument_Equals_m1414002036
zE:__Z82AnimatorControllerPlayable_CUSTOM_INTERNAL_CALL_IsParameterControlledByCurveStringR9HPlayableP12Il2CppString
krc:__ZL26Transfer_SimpleNativeClassI8JSONRead10RectOffsetLb1EEvRK29SerializationCommandArgumentsR31RuntimeSerializationCommandInfo
sNc:__Z44CanvasRenderer_CUSTOM_INTERNAL_CALL_SetColorP12Il2CppObjectRK10ColorRGBAf
GJg:_FieldBuilder_GetFieldOffset_m725157755
TCd:_Array_FindLastIndex_TisIl2CppObject_m884132436_gshared
wPe:_Enumerator_System_Collections_IEnumerator_Reset_m959124362_AdjustorThunk
Bsh:__Z99RuntimeInvoker_Int32_t2950945753_Int32_t2950945753_Int32_t2950945753_Int32_t2950945753_Il2CppObjectPK10MethodInfoPvPS2_
gvd:_Enum_ToObject_m121831801
UDf:__ZL57AsyncOperation_t1445031843_CustomAttributesCacheGeneratorP21CustomAttributesCache
m1d:_Image_get_hasBorder_m3423344180
Boc:__Z18Transfer_BlittableI9JSONWriteLb1EsEvRK29SerializationCommandArgumentsR31RuntimeSerializationCommandInfo
dda:__ZN6ObjectD2Ev
N8b:__ZN9Transform16SetLocalRotationERK11Quaternionf
OLf:__ZL137AnimatorControllerPlayable_t1397024487_CustomAttributesCacheGenerator_AnimatorControllerPlayable_CrossFade_m4196440651____normalizedTime3P21CustomAttributesCache
ePa:__ZN13RenderManager37RenderCamerasWithScriptableRenderLoopEi
eog:_RuntimeMethodHandle__ctor_m2229201676
xXc:_RSAPKCS1KeyExchangeFormatter_SetRSAKey_m1477802943
VW:__GLOBAL__sub_I_runtime_graphics5_lump_cpp
Lsh:__Z86RuntimeInvoker_Int32_t2950945753_Int16_t2552820387_Int32_t2950945753_Int32_t2950945753PK10MethodInfoPvPS2_
Q6:__ZN23InstancedPropInfoStaticL16RegisterCallbackEPv
lif:__ZL49UInt16_t2177724958_CustomAttributesCacheGeneratorP21CustomAttributesCache
gt:__ZN7mecanim8skeleton25SkeletonPoseComputeLocalQEPKNS0_8SkeletonEPKNS0_13SkeletonPoseTIN4math4trsXEEEPS7_ii
ozj:__ZN6il2cpp2os19ReleaseSocketHandleEj
c0i:_Panel_MainScene_U3CButtonClick_SignOutU3Em__0_m3958323204
rGj:__ZN15dense_hashtableINSt3__24pairIK10KeyWrapperIPK19Il2CppGenericMethodEP10MethodInfoEES6_N6il2cpp8metadata23Il2CppGenericMethodHashEN14dense_hash_mapIS6_S9_SD_NS6_14EqualsComparerINSC_26Il2CppGenericMethodCompareEEENS0_9allocatorISA_EEE9SelectKeyESH_SJ_E5clearEv
xKi:_JsonData_System_Collections_IEnumerable_GetEnumerator_m3857574006
YId:_Array_InternalArray__set_Item_TisVector2_t2156229523_m2671087464_gshared
q1d:_Image_OnBeforeSerialize_m3415525254
r2d:_InputField_get_characterValidation_m4196664041
X5g:_Material_EnableKeyword_m2512384881
G0j:b83
Dyg:_Type_get_Attributes_m58528356
EVa:__ZN6Camera28DefaultPerformRenderFunctionD0Ev
xCa:__ZNK13TranslateGLES23VertexArraySizeBitfieldEi
BCj:__ZN6il2cpp2os5posix15PosixWaitObjectC2ENS2_4TypeE
yAb:__Z23AppendPathNameExtensionRKN4core12basic_stringIcNS_20StringStorageDefaultIcEEEES5_
NYc:_SHA512Managed_HashFinal_m2173184560
rWc:_RIPEMD160__ctor_m860963627
Lqa:__ZN23ShaderVariantCollection13WarmupShadersEv
NLe:_SslStreamBase_Finalize_m3260913635
J1:__Z25GetCommonScriptingClassesv
ama:__Z27scripting_gc_collect_unsafei
lDe:_MD5SHA1_HashFinal_m4115488658
kN:__ZN11AudioModule20SuspendVideoTexturesEv
NEd:_Array_InternalArray__ICollection_Add_TisKeyValuePair_2_t71524366_m3468275433_gshared
u$b:__ZN12CubemapArrayC2E18MemLabelIdentifier18ObjectCreationMode
mli:_AnimatorControllerPlayable_Play_m1888045656
C_g:_GUIContent__ctor_m2071985933
AJb:__Z26Transfer_UnityEngineObjectI24GenerateTypeTreeTransferLb0EEvRK29SerializationCommandArgumentsR31RuntimeSerializationCommandInfo
bGc:_UNITY_FT_GlyphLoader_CheckPoints
Ykf:__ZL73Il2CppArray_CustomAttributesCacheGenerator_Array_BinarySearch_m1820506567P21CustomAttributesCache
a4d:_InputField_LineDownCharacterPosition_m2798128425
f_i:_PrimeHelper_TestPrime_m2318568626_gshared
xmf:__ZL63KeyNotFoundException_t2292407383_CustomAttributesCacheGeneratorP21CustomAttributesCache
tjc:__ZN8GUIState8EndOnGUIEv
Mib:__ZN15SharedLightData7PrecalcEv
Lma:__ZN10Matrix4x4fmLERKS_
Bp:__ZN4PPtrI9TransformE8TransferI18StreamedBinaryReadILb0EEEEvRT_
_Bh:__Z74RuntimeInvoker_Il2CppObject_DateTime_t3738529785_Il2CppObject_Il2CppObjectPK10MethodInfoPvPS2_
xcb:__ZN19StreamedBinaryWriteILb0EE19TransferSTLStyleMapINSt3__28multimapIN4core12basic_stringIcNS4_20StringStorageDefaultIcEEEEN11AssetBundle9AssetInfoENS2_4lessIS8_EENS2_9allocatorINS2_4pairIKS8_SA_EEEEEEEEvRT_17TransferMetaFlags
dBh:__Z58RuntimeInvoker_Il2CppObject_Double_t594665363_Il2CppObjectPK10MethodInfoPvPS2_
aWi:_Cmn_Func_InitTimer_m445803533
Dvd:_Environment_InternalGetFolderPath_m468390978
YKa:__ZN15ArchiveReadFileD0Ev
QFf:__ZL89GameObject_t1113636619_CustomAttributesCacheGenerator_GameObject_get_transform_m393750976P21CustomAttributesCache
HYe:_List_1_System_Collections_Generic_ICollectionU3CTU3E_get_IsReadOnly_m2562366358_gshared
oDe:_RSASslSignatureFormatter__ctor_m1299283008
jQc:__ZN11UnityEngine15PlatformWrapper18GetOperatingSystemEv
RAa:__ZNSt3__26vectorIP14DataBufferGLESNS_9allocatorIS2_EEE21__push_back_slow_pathIKS2_EEvRT_
C0c:_SecurityFrame_ToString_m339310712
FAf:__ZL54ThreadStart_t1006689297_CustomAttributesCacheGeneratorP21CustomAttributesCache
XBh:__Z81RuntimeInvoker_Int32_t2950945753_Il2CppObject_Int32_t2950945753_Int16_t2552820387PK10MethodInfoPvPS2_
Elf:__ZL62ParamArrayAttribute_t3664765590_CustomAttributesCacheGeneratorP21CustomAttributesCache
Krc:__ZN8GUIStyle8TransferI8JSONReadEEvRT_
c4g:_GUIStyleState_t1397964415_marshal_pinvoke
aKd:_Array_Resize_TisVector4_t3319028937_m1507893064_gshared
Awf:__ZL94Interlocked_t2273387594_CustomAttributesCacheGenerator_Interlocked_CompareExchange_m3023855514P21CustomAttributesCache
aYc:_SHA1Managed_HashFinal_m2365675383
eUd:_TouchInputModule_ProcessTouchPress_m3504077560
aXg:_Selectable_IsInteractable_m2611421038
ZFc:_FT_MSB
GMf:__ZL135AnimatorControllerPlayable_t1397024487_CustomAttributesCacheGenerator_AnimatorControllerPlayable_INTERNAL_CALL_SetTriggerID_m1584901584P21CustomAttributesCache
n0j:_emscripten_glReadPixels__wrapper
y_i:_HashSet_1_Add_m1971460364_gshared
r5i:__ZL25UnresolvedVirtualCall_228P12Il2CppObjecti28AnimatorClipInfo_t3156717155PK10MethodInfo
j1b:__ZZL23RegisterLightPropertiesR22GenericPropertyBindingEN29Wrapper_LightShadowNormalBias13GetFloatValueEPv
iOj:__ZN6il2cpp6icalls8mscorlib4Mono8Security12Cryptography18KeyPairPersistence10_CanSecureEP12Il2CppString
TCe:_MD4__ctor_m919379109
Kyd:_Array_InternalArray__ICollection_Contains_TisParameterModifier_t1461694466_m1000453323_gshared
tOf:__ZL98Event_t2956885303_CustomAttributesCacheGenerator_Event_Internal_MakeMasterEventCurrent_m1629006028P21CustomAttributesCache
Rcg:_Dictionary_2_System_Collections_ICollection_CopyTo_m4047192178_gshared
xPi:_CachedInvokableCall_1_Invoke_m1752113133_gshared
Lhf:__ZL77Il2CppObject_CustomAttributesCacheGenerator_Object_ReferenceEquals_m610702577P21CustomAttributesCache
QDf:__ZL131AssetBundleCreateRequest_t3119663542_CustomAttributesCacheGenerator_AssetBundleCreateRequest_DisableCompatibilityChecks_m1783260612P21CustomAttributesCache
tWc:_RIPEMD160Managed_Initialize_m2173168986
nsf:__ZL54IMessageCtrl_t317049502_CustomAttributesCacheGeneratorP21CustomAttributesCache
lsa:__ZN13GfxDeviceGLES14SetRasterStateEPK17DeviceRasterState
cxa:__ZNK13TranslateGLES11BlendFactorE9BlendMode
$Eg:_Assembly_ToString_m2053237013
bFb:__Z30TransferField_LinearCollectionI14SafeBinaryReadEvRK29SerializationCommandArgumentsR31RuntimeSerializationCommandInfo
y5c:_Exception_set_HResult_m3489164646
vQg:_ParameterModifier_t1461694466_marshal_pinvoke_back
s8g:_Object_Destroy_m2752645118
Jba:__ZN14SafeBinaryRead11EndTransferEv
BHh:__Z80RuntimeInvoker_Int32_t2950945753_PlayableHandleU26_t4060785685_Int32_t2950945753PK10MethodInfoPvPS2_
IS:__ZNK3WWW12GetAudioClipEv
qFb:__ZN14SafeBinaryRead8TransferI8MonoPPtrEEvRT_PKc17TransferMetaFlags
JCf:__ZL70Uri_t100236324_CustomAttributesCacheGenerator_Uri_Unescape_m3373094076P21CustomAttributesCache
uLa:__ZN24dense_hashtable_iteratorINSt3__24pairIKN4core12basic_stringIcNS2_20StringStorageDefaultIcEEEEP20ArchiveStorageReaderEES6_20StringHash32FunctionIS6_EN14dense_hash_mapIS6_S9_SC_NS0_8equal_toIS6_EE13stl_allocatorISA_L18MemLabelIdentifier54ELi16EEE9SelectKeyESF_SI_EppEv
kWg:_ScrollRect_set_verticalNormalizedPosition_m1452826170
Yud:_Enum_System_IConvertible_ToUInt16_m4216751959
YDa:__ZN21UniformBufferTFMethod13MapBoneBufferEj
lHd:_Array_InternalArray__Insert_TisInt32_t2950945753_m4073217122_gshared
WWc:_RNGCryptoServiceProvider_RngClose_m3915778345
nid:_SortedList_Remove_m2784369438
Occ:__Z40Register_UnityEngine_Input_GetKeyDownIntv
spd:_DateTime_get_Kind_m2154871796_AdjustorThunk
YLa:__ZZ23InitPlayerLoopCallbacksvEN27FixedUpdateClearLinesstruct7ForwardEv
BBb:__ZN9TextAsset15ThreadedCleanupEv
$ti:_MatchCollection_get_SyncRoot_m1957585059
o2:__ZN14SerializedFileD2Ev
gwc:__ZNSt3__26vectorIN20TextRenderingPrivate8FontImpl7IntRectE13stl_allocatorIS3_L18MemLabelIdentifier34ELi16EEE21__push_back_slow_pathIKS3_EEvRT_
BZ:__Z21CompleteFenceInternalR8JobFence
ekc:__Z30Event_Get_Custom_PropModifiersP12Il2CppObject
Qlj:__ZN30dense_hashtable_const_iteratorINSt3__24pairIK10KeyWrapperINS1_IPK9FieldInfoP11Il2CppClassEEEjEES9_17ReflectionMapHashIS8_EN14dense_hash_mapIS9_jSD_NS9_14EqualsComparerINS0_8equal_toIS8_EEEENS0_9allocatorISB_EEE9SelectKeyESI_SK_E30advance_past_empty_and_deletedEv
JJi:_JsonData__ctor_m3866765393
ax:__ZN7mecanim9animation16CreateClipOutputEPKNS0_4ClipERNS_6memory9AllocatorE
pRe:_Enumerator_System_Collections_IEnumerator_Reset_m688431936_AdjustorThunk
Zt:__ZN7mecanim9animation23ClearAnimationNodeStateEPNS0_18AnimationNodeStateEb
SSg:_RawImage_get_mainTexture_m2396337033
uPb:__ZN18StreamedBinaryReadILb0EE21TransferSTLStyleArrayI13dynamic_arrayIyLj8EEEEvRT_17TransferMetaFlags
Kkj:__ZN6il2cpp2vm10Reflection17GetAssemblyObjectEPK14Il2CppAssembly
O4c:_DecoderFallbackBuffer_Reset_m3069554060
_za:__ZN18AsyncUploadManager17DoScaledPaddedJobEP28FileTextureUploadInstruction
pqa:__ZNSt3__218__stable_sort_moveIRN10vector_mapI17ScriptingClassPtrPKN5Unity4TypeENS_4lessIS2_EENS_9allocatorINS_4pairIS2_S6_EEEEE13value_compareENS_11__wrap_iterIPSB_EEEEvT0_SJ_T_NS_15iterator_traitsISJ_E15difference_typeEPNSM_10value_typeE
vQb:__ZN6Shader21AwakeFromLoadThreadedEv
Sia:__ZN6prcoreL17RemapGenericFloatI17TexFormatRGBFloat17TexFormatRGBAHalfEEvPKNS_9InnerInfoE
wre:_BigInteger__ctor_m3991350270
Tsc:__ZN8JSONRead21TransferSTLStyleArrayI13dynamic_arrayI8Vector2fLj4EEEEvRT_18MemLabelIdentifier17TransferMetaFlags
rTc:__ZN13RuntimeStaticINSt3__26vectorIjNS0_9allocatorIjEEEELb0EE16StaticInitializeEPv
abg:_Dictionary_2_System_Collections_IDictionary_Add_m3552921273_gshared
mPj:__ZN6il2cpp2os9SemaphoreC2Eii
sFb:__ZNSt3__26vectorI8MonoPPtr13stl_allocatorIS1_L18MemLabelIdentifier1ELi16EEE8__appendEj
Uhi:_AnimationClipPlayable_get_clip_m3223536140
PTa:__ZN14qsort_internal30FindAndMovePivotToLastPositionIP17RODataReplacementi19ROSorterReplacementEEvT_S4_T0_T1_
hEa:__ZN15UniformTFMethod20IsBoneCountSupportedEi
$Gh:__Z81RuntimeInvoker_Single_t1397266774_PlayableHandleU26_t4060785685_Int32_t2950945753PK10MethodInfoPvPS2_
c2f:_Enumerator__ctor_m2029766759_AdjustorThunk
hDg:_UnauthorizedAccessException__ctor_m246605039
qKg:_MethodBuilder_get_DeclaringType_m2226312865
zWj:dynCall_viidi
f9h:_AnimationCurve_Cleanup_m3505736496
eZ:__ZN24ScriptingMethodFiltering17FilterOnSignatureENS_18MethodSearchFilterE
xTi:_ListPool_1_U3Cs_ListPoolU3Em__0_m2283646495_gshared
CM:__ZN13ProduceHelperI9AudioClipLb0EE7ProduceE18MemLabelIdentifier18ObjectCreationMode
lU:__ZN18ScreenManagerWebGL13SetLockCursorE14CursorLockMode
rFe:_CipherSuite_DecryptRecord_m1495386860
QBi:_X509Certificate_VerifySignature_m3538124832
CDh:__Z40RuntimeInvoker_RSAParameters_t1728406613PK10MethodInfoPvPS2_
w$g:_RectOffset_Init_m3786816665
cje:_StreamAsyncResult_SetComplete_m1102187093
cZb:__ZN13MonoBehaviour19HandleNotificationsEPviR11MessageData
PPj:__ZN6il2cpp2os9EventImpl5ResetEv
e$e:_List_1_Sort_m933660666_gshared
oOh:__Z101RuntimeInvoker_Int32_t2950945753_Il2CppObject_Color32_t2600501292_Int32_t2950945753_Int32_t2950945753PK10MethodInfoPvPS2_
wEe:_Alert__ctor_m3135936936
mde:_Int64_System_IConvertible_ToInt32_m772105781
nGe:_TlsClientSettings__ctor_m3220697265
gda:__ZNK11NamedObject26GetTypeInfoVirtualInternalEv
lxi:_CaptureAssertion_set_CapturingGroup_m2003123956
lZj:b58
mZj:b59
jcg:_Dictionary_2_make_pair_m2250450206_gshared
vsg:_ForwardingDecoder_GetChars_m4228908854
Igf:_InterpreterFactory_get_GroupCount_m2226373271
gZj:b53
VYj:b50
WYj:b51
jZj:b56
kZj:b57
hZj:b54
iZj:b55
$Te:_List_1_System_Collections_IList_get_IsReadOnly_m3531293387_gshared
YJi:_JsonData_LitJson_IJsonWrapper_get_IsLong_m402604060
qqe:_SimpleCollator_IsSafe_m310268646
Daf:_WebProxy_System_Runtime_Serialization_ISerializable_GetObjectData_m430220241
O9c:_Byte_System_IConvertible_ToByte_m162267264_AdjustorThunk
vye:_X509Certificate_get_RawData_m2387471414
E7c:_ArrayTypeMismatchException__ctor_m3375008173
j5f:_Transform_1_BeginInvoke_m1757796657_gshared
jkj:__ZNSt3__214__split_bufferINS_12basic_stringIcNS_11char_traitsIcEENS_9allocatorIcEEEERNS4_IS6_EEEC2EjjS8_
XXb:__ZN10GameObject12CleanupClassEv
klb:__ZN15SerializeTraitsI13dynamic_arrayI11TetrahedronLj4EEE19ResizeSTLStyleArrayERS2_i18MemLabelIdentifier
Qsa:__ZN9GfxDevice25SetShaderPropertiesSharedERK19ShaderPropertySheet
Wuh:__Z57RuntimeInvoker_Il2CppObject_RuntimeTypeHandle_t3027515415PK10MethodInfoPvPS2_
_Ud:_BaseMeshEffect_get_graphic_m1852367505
jfd:_CaseInsensitiveHashCodeProvider_GetHashCode_m2168170016
hBb:__ZN10MonoScript17MainThreadCleanupEv
O3c:_String_CreateString_m3400201881
Qnh:_InternalEnumerator_1_Dispose_m28687982_AdjustorThunk
G0b:__ZL25InitializeDefaultMaterialv
ofb:__ZN21ArchiveStorageCreatorD2Ev
Gge:_Stream__ctor_m3881936881
zQg:_PropertyInfo_get_MemberType_m2794839864
yIa:__ZN19FileAccessorHandlerD2Ev
DRe:_Enumerator_Dispose_m2367589020_AdjustorThunk
kqh:_Comparer_1_System_Collections_IComparer_Compare_m4179495191_gshared
Hpa:__ZN17PersistentManager12UnloadStreamERKN4core12basic_stringIcNS0_20StringStorageDefaultIcEEEEb
Wpf:__ZL95MethodBase_t609368412_CustomAttributesCacheGenerator_MethodBase_GetGenericArguments_m1292856952P21CustomAttributesCache
YIa:__ZN10MemoryFile4ReadEyyPvPy
PHd:_Array_InternalArray__Insert_TisUICharInfo_t75501106_m2924156520_gshared
HXi:_EqualityComparer_1_System_Collections_IEqualityComparer_Equals_m3139704160_gshared
SDj:__ZN6il2cpp2os6Thread16GetCurrentThreadEv
cU:__ZN13ScreenManager17RequestResolutionEiibi
tSf:__ZL85UnityEvent_2_t477504786_CustomAttributesCacheGenerator_UnityEvent_2__ctor_m1623726449P21CustomAttributesCache
G4i:__ZL25UnresolvedVirtualCall_189P12Il2CppObject19Vector3_t3722313464S1_PK10MethodInfo
yig:_SoapAttribute__ctor_m1857608874
Xnh:_InternalEnumerator_1_System_Collections_IEnumerator_get_Current_m2649471526_gshared
LWi:_EqualityComparer_1_System_Collections_IEqualityComparer_Equals_m3218482536_gshared
Oqb:__ZN8Renderer8TransferI17RemapPPtrTransferEEvRT_
kNe:_InternalAsyncResult_get_AsyncState_m1436290550
Weh:_InternalEnumerator_1_Dispose_m2018798800_AdjustorThunk
fZj:_glBlitFramebuffer__wrapper
L1f:_Enumerator_System_Collections_IDictionaryEnumerator_get_Entry_m522483686_gshared
awe:_PrivateKeyInfo_RemoveLeadingZero_m3921889925
Qva:__ZN13GfxDeviceGLES19SetSinglePassStereoE16SinglePassStereo
w2i:__ZL24UnresolvedVirtualCall_71P12Il2CppObjectS0_S0_iS0_S0_S0_PK10MethodInfo
h2a:__Z24LookRotationToQuaternionRK8Vector3fS1_P11Quaternionf
f2a:__ZN16ReflectionProbes9GetCameraEv
lji:_AnimatorControllerPlayable_SetIntegerString_m1198538778
KUb:__ZL18IsGpuProgramUsable20ShaderGpuProgramTypePK6Shader
tMc:__ZN2UI6Canvas17SetSortingLayerIDEi
gVd:_Button_get_onClick_m2332132945
yCj:__ZN6il2cpp2vm11MethodStack23CleanupForCurrentThreadEv
L$h:_Collection_1_ConvertItem_m618594517_gshared
BXf:__ZL61Image_t2670269651_CustomAttributesCacheGenerator_m_FillMethodP21CustomAttributesCache
eod:_Convert_ToUInt64_m388601487
tjb:__ZN20TierGraphicsSettings8TransferI24GenerateTypeTreeTransferEEvRT_
KQi:_UnityAction_1_Invoke_m3689685399_gshared
OGb:__ZN14SafeBinaryRead21TransferSTLStyleArrayI13dynamic_arrayI4AABBLj4EEEEvRT_17TransferMetaFlags
pga:__ZN18UnityPropertySheet8TransferI19StreamedBinaryWriteILb0EEEEvRT_
UQg:_LayoutUtility_GetMinSize_m2572843166
C7:__ZNSt3__26__treeINS_12__value_typeIiN11TypeManager18TypeCallbackStructEEENS_19__map_value_compareIiS4_NS_4lessIiEELb1EEENS_9allocatorIS4_EEE7destroyEPNS_11__tree_nodeIS4_PvEE
EZf:__ZL60Slider_t3903728902_CustomAttributesCacheGenerator_m_FillRectP21CustomAttributesCache
jWf:__ZL75U3COnFinishSubmitU3Ec__Iterator0_t3413438900_CustomAttributesCacheGeneratorP21CustomAttributesCache
eBb:__ZN39AssetBundleLoadFromStreamAsyncOperationC2ERKN4core12basic_stringIcNS0_20StringStorageDefaultIcEEEE
z3b:__ZNK14PlayableOutput23GetSourcePlayableUnsafeEv
Vca:__ZL19GetCameraTargetRectRK6Camerabb
Fsf:__ZL60SoapTypeAttribute_t1750930817_CustomAttributesCacheGeneratorP21CustomAttributesCache
b3a:__ZN13dynamic_arrayIN10GameObject13ComponentPairELj4EE6insertEPS1_RKS1_
MFg:_Binder_ConvertArgs_m2124461494
Dab:__ZN21UnityDefaultAllocatorI17LowLevelAllocatorE10DeallocateEPv
LW:__GLOBAL__sub_I_runtime_camera2_lump_cpp
Upf:__ZL52MethodBase_t609368412_CustomAttributesCacheGeneratorP21CustomAttributesCache
Hkb:__ZN15SharedLightData22UpdateCookieTextureRefEv
ar:__ZN15PackedIntVector8TransferI14SafeBinaryReadEEvRT_
nhh:_InternalEnumerator_1_System_Collections_IEnumerator_get_Current_m1514266661_gshared
zAa:__ZN17SharedTextureDataD0Ev
kDe:_MD5SHA1_Initialize_m675470944
yFd:_Array_InternalArray__ICollection_Add_TisKeyframe_t4206410242_m442111799_gshared
XZe:_List_1_CheckMatch_m3263549496_gshared
Cwf:__ZL58ManualResetEvent_t451242010_CustomAttributesCacheGeneratorP21CustomAttributesCache
BBi:_X509Certificate_set_KeyAlgorithmParameters_m2010117999
vH:__ZN13AudioListener8DoUpdateEv
Zce:_Int32_GetTypeCode_m1648562395_AdjustorThunk
Gjd:__Z13bankers_roundd
Nxb:__ZN14SafeBinaryRead8TransferI5RectTIfEEEvRT_PKc17TransferMetaFlags
ki:_emscripten_glGenFramebuffers
x7:__ZN17BaseObjectManager16StaticInitializeEPv
Y9g:_RaycastHit2D_get_fraction_m2738084453
Qyb:__ZN18StreamedBinaryReadILb0EE19TransferSTLStyleMapINSt3__28multimapIN4core12basic_stringIcNS4_20StringStorageDefaultIcEEEE4PPtrI6ObjectENS2_4lessIS8_EE13stl_allocatorINS2_4pairIKS8_SB_EEL18MemLabelIdentifier51ELi16EEEEEEvRT_17TransferMetaFlags
hRh:__Z59RuntimeInvoker_KeyValuePair_2_t3016395677_Int32_t2950945753PK10MethodInfoPvPS2_
zxf:__ZL80Convert_t2465617642_CustomAttributesCacheGenerator_Convert_ToBoolean_m3613483153P21CustomAttributesCache
lEg:_OperatingSystem_GetObjectData_m1571196722
rVe:_List_1_CheckCollection_m2602703205_gshared
Gbb:__ZN9Behaviour23VirtualRedirectTransferER17RemapPPtrTransfer
apc:__Z18Transfer_BlittableI9JSONWriteLb0EyEvRK29SerializationCommandArgumentsR31RuntimeSerializationCommandInfo
$ca:__ZN13RenderTexture15ThreadedCleanupEv
$bf:_X509BasicConstraintsExtension__ctor_m3721156175
unb:__ZN12CubemapArray23VirtualRedirectTransferER14SafeBinaryRead
STf:__ZL70EventSystem_t1003666588_CustomAttributesCacheGenerator_m_DragThresholdP21CustomAttributesCache
Afe:_Path_GetFileName_m1354558116
Hte:_BitConverterLE_ToDouble_m1601000678
rwi:_Regex_IsMatch_m4067478295
SMh:__Z74RuntimeInvoker_Boolean_t97287965_LineTypeU26_t2430394419_Int32_t2950945753PK10MethodInfoPvPS2_
ima:__ZN18ProceduralMaterial9ReloadAllEbb
Qec:__Z43RectTransform_CUSTOM_INTERNAL_set_sizeDeltaP12Il2CppObjectRK13Vector2fIcall
mme:_MissingMemberException_GetObjectData_m2957220379
vde:_Int64_System_IConvertible_ToType_m3223988955_AdjustorThunk
NAj:__ZN15dense_hashtableINSt3__24pairIK10KeyWrapperINS1_IPKcS4_EEEiEES6_24NamespaceAndNamePairHashN14dense_hash_mapIS6_iS9_NS6_14EqualsComparerI26NamespaceAndNamePairEqualsEENS0_9allocatorIS8_EEE9SelectKeyESD_SF_E6insertERKS8_
dca:__ZN24GenerateTypeTreeTransfer18BeginArrayTransferEPKcS1_Ri17TransferMetaFlags
tza:__Z16DecompressCrunchPKhRjR13TextureFormatiiii18MemLabelIdentifier
am:___syscall51
Fic:__Z26BeforeDomainReloadCallbackv
Xti:_MatchCollection_get_FullList_m1829231879
em:___syscall54
m6c:_Array_GetValue_m2528415604
osf:__ZL55IMessageSink_t2514424906_CustomAttributesCacheGeneratorP21CustomAttributesCache
dVc:_SymmetricAlgorithm_Clear_m3302238152
Lhi:_UnityEventBase_UnityEngine_ISerializationCallbackReceiver_OnBeforeSerialize_m772227487
Gae:_Guid_AppendShort_m791023083
k0h:_ReadOnlyCollection_1_System_Collections_IList_set_Item_m1197072532_gshared
$Uf:__ZL109PointerEventData_t3807901092_CustomAttributesCacheGenerator_PointerEventData_get_eligibleForClick_m3788762543P21CustomAttributesCache
lKh:__Z37RuntimeInvoker_ColorBlock_t2139031574PK10MethodInfoPvPS2_
pxh:__Z68RuntimeInvoker_Boolean_t97287965_IntPtr_t_MonoIOErrorU26_t1548853198PK10MethodInfoPvPS2_
bug:_UTF32Encoding_GetBytes_m2832872594
cLb:__Z18Transfer_BlittableI19StreamedBinaryWriteILb0EELb1EjEvRK29SerializationCommandArgumentsR31RuntimeSerializationCommandInfo
Or:__ZNK8Animator20IsAnyRendererVisibleEv
cGc:_cff_builder_add_point1
SBj:__ZN6il2cpp2vm5Image21GetCachedResourceDataEPK11Il2CppImageRKNSt3__212basic_stringIcNS5_11char_traitsIcEENS5_9allocatorIcEEEE
cIf:__ZL88PlayerPrefs_t3518992213_CustomAttributesCacheGenerator_PlayerPrefs_GetString_m2853733233P21CustomAttributesCache
qEb:__Z18Transfer_BlittableI14SafeBinaryReadLb0E10ColorRGBAfEvRK29SerializationCommandArgumentsR31RuntimeSerializationCommandInfo
Aa:invoke_iiiiiiiiii
E5g:_Logger_get_logEnabled_m1127371265
KGd:_Array_InternalArray__ICollection_CopyTo_TisUILineInfo_t4195266810_m104406798_gshared
fM:__ZNK7Texture10GetVRUsageEv
Xbd:_Char_ToLowerInvariant_m1926695830
Heg:_DefaultComparer__ctor_m41012692_gshared
Bla:__ZN18LoadSceneOperation19IntegrateTimeSlicedEi
F3d:_InputField_ActivateInputFieldInternal_m3360893886
O2e:_List_1_Insert_m1781696722_gshared
kG:__ZN4FMOD7SystemI11createSoundEPKcjP22FMOD_CREATESOUNDEXINFOPPNS_5SoundE
m8a:__ZN10FileSystem19SetCurrentDirectoryERKN4core12basic_stringIcNS0_20StringStorageDefaultIcEEEE
Xle:_Math_Log_m2526073084
M9b:__Z47Register_UnityEngine_Coroutine_ReleaseCoroutinev
uEd:_Mesh_SafeLength_TisInt32_t2950945753_m1029685278_gshared
hI:__ZN15AudioReverbZone13SetFMODValuesEv
m$:__ZL19StaticDestroyShaderPv
ae:_glRenderbufferStorageMultisample
PUf:__ZL105PointerEventData_t3807901092_CustomAttributesCacheGenerator_PointerEventData_get_pointerEnter_m3901270554P21CustomAttributesCache
Nz:__ZN23AnimationPlayableOutput17SetTargetAnimatorEP8Animator
dqf:__ZL62ParameterAttributes_t1826424051_CustomAttributesCacheGeneratorP21CustomAttributesCache
$Gb:__Z35Transfer_Blittable_SingleValueFieldI14SafeBinaryReadfEvRT_R17GeneralMonoObjectRK23StaticTransferFieldInfo
$he:_MemoryStream_get_CanRead_m1639425566
Qei:_Component_CompareTag_m4001538407
Zab:__ZN9Behaviour10SetEnabledEb
H1d:_Image_get_minWidth_m755066479
HEd:_Array_InternalArray__ICollection_Add_TisClientCertificateType_t1004704908_m2622721177_gshared
jr:__ZN17PackedFloatVector8TransferI18StreamedBinaryReadILb0EEEEvRT_
Vnb:__ZN7Cubemap23VirtualRedirectTransferER17RemapPPtrTransfer
mah:_Rect_get_min_m3948069389_AdjustorThunk
c3h:_ReadOnlyCollection_1_IndexOf_m3445346810_gshared
$Na:_longest_match_fast
oKh:__Z60RuntimeInvoker_Il2CppObject_Il2CppObject_Vector2_t2156229523PK10MethodInfoPvPS2_
ozi:_Uri_get_Authority_m3816772302
D4b:__ZN22BlockMemoryCacheWriter11GetPathNameEv
YPf:__ZL87GUIStyle_t3956901511_CustomAttributesCacheGenerator_GUIStyle_set_fixedHeight_m397558239P21CustomAttributesCache
ubf:_X509BasicConstraintsExtension__ctor_m1244152959
NPg:_ParameterInfo__ctor_m3269320476
aff:_X509SubjectKeyIdentifierExtension_FromHexChars_m3244835916
n1c:_Single_CompareTo_m2785801815
FO:__ZN19CloudServiceHandlerD2Ev
OVh:_Collection_1_IndexOf_m2392950794_gshared
E4a:__ZN13dynamic_arrayIN23ReflectionProbesContext23ReflectionProbeCubeInfoELj4EE18resize_initializedEjRKS1_12ResizePolicy
uAi:_PKCS12_MAC_m3355614022
rsf:__ZL63IMethodReturnMessage_t3705538073_CustomAttributesCacheGeneratorP21CustomAttributesCache
IE:__Z116Register_UnityEngine_Experimental_Director_AnimatorControllerPlayable_INTERNAL_CALL_GetNextAnimatorStateInfoInternalv
Po:stackAlloc
eac:__Z44Camera_CUSTOM_INTERNAL_CALL_ScreenPointToRayP12Il2CppObjectRK8Vector3fR3Ray
hJa:__ZN25SingleBlockMemoryFileData4LockEPPv
bKa:__ZN12HandlerChain5TouchER13FileEntryData
o1j:_glProgramParameteri__wrapper
DDf:__ZL99JsonReader_t836887441_CustomAttributesCacheGenerator_JsonReader_TableAddCol_m3551170424____symbols2P21CustomAttributesCache
$8h:_AnimationCurve_t3046754366_marshal_pinvoke
Pah:_Rect_Equals_m866904981
pbc:__Z32RectOffset_Get_Custom_PropBottomP12Il2CppObject
TYh:_Collection_1_CheckWritable_m3225530705_gshared
N1j:_emscripten_glGetObjectParameterivARB__wrapper
J_f:__ZL74LayoutElement_t1785403678_CustomAttributesCacheGenerator_m_PreferredHeightP21CustomAttributesCache
VRj:_stat
Ki:_JS_Eval_ClearTimeout
R_e:_List_1_Contains_m353222571_gshared
a1j:_glUniform2fv__wrapper
tTg:_Raycast2DCallback_Invoke_m1500574149
IFe:_CipherSuiteCollection_System_Collections_IList_get_Item_m2175128671
$qa:__ZNSt3__218__insertion_sort_3IRNS_4lessIN22BuiltinResourceManager8ResourceEEEPS3_EEvT0_S7_T_
la:invoke_iiiiiiiiiiii
h1a:__ZN25CameraStackRenderingStateC2Ev
_od:_DateTime_System_IConvertible_ToType_m1242864300_AdjustorThunk
N8f:_ValueCollection_get_Count_m994935123_gshared
z5e:_Collection_1_System_Collections_IList_get_IsFixedSize_m4038894826_gshared
Fgb:__ZN10TagManager13RegisterLayerEjRKN4core12basic_stringIcNS0_20StringStorageDefaultIcEEEE
gcc:__Z43Register_UnityEngine_GameObject_SendMessagev
Y4:__ZNSt3__26__treeINS_12__value_typeIN4core12basic_stringIcNS2_20StringStorageDefaultIcEEEES6_EENS_19__map_value_compareIS6_S7_NS_4lessIS6_EELb1EEE13stl_allocatorIS7_L18MemLabelIdentifier12ELi16EEE7destroyEPNS_11__tree_nodeIS7_PvEE
bYe:_List_1_CheckMatch_m625721216_gshared
c6d:_LayoutRebuilder_PerformLayoutControl_m4241054021
R6i:__ZN6il2cpp2vm17SetupFieldsLockedEP11Il2CppClassRKNS_2os12FastAutoLockE
R5d:_U3CDelayedSetDirtyU3Ec__Iterator0_System_Collections_IEnumerator_get_Current_m3096581881
h5f:_Transform_1__ctor_m2638607165_gshared
qSh:__Z86RuntimeInvoker_Int32_t2950945753_KeyValuePair_2_t2530217319_KeyValuePair_2_t2530217319PK10MethodInfoPvPS2_
O8a:__ZN16MemoryFileSystem4NameEv
oHi:_Vector2_op_Subtraction_m1387382396
yL:__ZN11AudioSource16UpdateParametersE12SoundChannel
KSe:_List_1_TrimExcess_m3008059782_gshared
TSd:_ButtonState__ctor_m1506593332
Hjc:__ZNK8GUIStyle8CalcSizeER10GUIContent
ZIh:__Z99RuntimeInvoker_Void_t1185182177_Il2CppObject_Internal_DrawWithTextSelectionArgumentsU26_t1031296843PK10MethodInfoPvPS2_
MKe:_TlsException__ctor_m818940807
sJi:_TypeInferenceRuleAttribute_ToString_m915908059
Fye:_X509CertificateEnumerator_System_Collections_IEnumerator_get_Current_m418791713
$wc:_UNITY_FT_New_Size
n7b:__Z42ScriptingGetComponentsOfTypeFromGameObjectRK26ScriptingGetComponentsArgs
eLd:_Array_swap_TisIl2CppObject_m3281757310_gshared
ZRf:__ZL73ArgumentCache_t2187958399_CustomAttributesCacheGenerator_m_ObjectArgumentP21CustomAttributesCache
TKf:__ZL65AnimatorTransitionInfo_t2534804151_CustomAttributesCacheGeneratorP21CustomAttributesCache
nLd:_Array_swap_TisRaycastResult_t3360306849_TisRaycastResult_t3360306849_m3400922624_gshared
oqg:_CspParameters__ctor_m2741097571
yIg:_EnumBuilder_get_DeclaringType_m4266754303
Sga:__ZNSt3__27__sort4IRPFbRKNS_4pairIN9ShaderLab16FastPropertyNameEN18UnityPropertySheet11UnityTexEnvEEES8_EPS6_EEjT0_SD_SD_SD_T_
Nvi:_Assertion_get_TrueExpression_m2743006331
Mki:_AnimatorControllerPlayable_CrossFadeInFixedTimeInternal_m200978429
rFc:_cf2_hintmap_build
bWh:_Collection_1_IsFixedSize_m3976162163_gshared
Huj:__ZN6il2cpp6icalls8mscorlib6System10Reflection8Assembly18GetModulesInternalEP24Il2CppReflectionAssembly
fDc:_Line_Up
Myg:_Type_get_IsContextful_m1494289047
he:_emscripten_glBufferSubData
kEh:__Z116RuntimeInvoker_Void_t1185182177_Int16_t2552820387_Il2CppObject_SByte_t1669577662_SByte_t1669577662_SByte_t1669577662PK10MethodInfoPvPS2_
g3c:_String_ReplaceUnchecked_m1381393810
Gwe:_SymmetricTransform_CBC_m435753239
ZHb:__Z18Transfer_BlittableI17RemapPPtrTransferLb1EyEvRK29SerializationCommandArgumentsR31RuntimeSerializationCommandInfo
p_f:__ZL76ContentSizeFitter_t3850442145_CustomAttributesCacheGenerator_m_HorizontalFitP21CustomAttributesCache
Yha:__ZN6prcoreL12RemapGenericI15TexFormatRGB88817TexFormatARGB8888EEvPKNS_9InnerInfoE
bD:__Z17CalculateGlobalRS23TransformAccessReadOnly
dnj:__ZN24dense_hashtable_iteratorINSt3__24pairIK10KeyWrapperINS1_IPK10MethodInfoP11Il2CppClassEEEjEES9_17ReflectionMapHashIS8_EN14dense_hash_mapIS9_jSD_NS9_14EqualsComparerINS0_8equal_toIS8_EEEENS0_9allocatorISB_EEE9SelectKeyESI_SK_E30advance_past_empty_and_deletedEv
KMj:__ZNSt3__210__list_impIPN6il2cpp5utils10MemoryPool6RegionENS_9allocatorIS5_EEE5clearEv
HKi:_JsonData_LitJson_IJsonWrapper_SetString_m947456696
Nsh:__Z63RuntimeInvoker_Il2CppObject_Int16_t2552820387_Int16_t2552820387PK10MethodInfoPvPS2_
CSc:__ZN23UnityPurchasingSettings10InitializeER6Object
iOa:_unity_z_deflateReset
lDf:__ZL142U3CU3Ec__CompilerGenerated0_t1117396667_CustomAttributesCacheGenerator_U3CU3Ec__CompilerGenerated0_U3CRegisterBaseExportersU3Ec__13_m638800305P21CustomAttributesCache
$ya:__ZN17GenericDynamicVBO17DrawChunkInternalERK21DynamicVBOChunkHandle17ShaderChannelMaskS3_P17VertexDeclarationP16DrawBuffersRangeij
pTc:__ZN13RuntimeStaticINSt3__26vectorIN5physx25PxVehicleWheelQueryResultENS0_9allocatorIS3_EEEELb0EE16StaticInitializeEPv
iQb:__ZN22MemoryCacherReadBlocks14LockCacheBlockEjPPhS1_
dje:_StreamAsyncResult_get_NBytes_m548041729
xjj:__ZN6il2cpp2vm14TypeNameParser17ParseAssemblyNameEv
XGf:__ZL80Input_t1431474628_CustomAttributesCacheGenerator_Input_get_touchCount_m844052757P21CustomAttributesCache
bDj:__ZN4utf88internal15increase_safelyIPKcEENS0_9utf_errorERT_S5_
V$c:_SecurityContext_get_CompressedStack_m3401528670
Zvc:__ZN20TextRenderingPrivate8FontImpl16CacheFontForTextEPtiifjPK13dynamic_arrayINS_16TextFormatChangeELj4EE
gcd:_CharEnumerator_get_Current_m525608209
okh:_InternalEnumerator_1_Dispose_m887344916_AdjustorThunk
zVc:__Z21ArrayElementTypeCheckP11Il2CppArrayPv
x0j:_emscripten_glTexSubImage2D__wrapper
jnf:__ZL69DebuggerBrowsableAttribute_t1026244177_CustomAttributesCacheGeneratorP21CustomAttributesCache
Obf:_PublicKey_DecodeRSA_m1824703659
LTj:__ZNSt3__212basic_stringIcNS_11char_traitsIcEENS_9allocatorIcEEE6appendEjc
wMf:__ZL133AnimatorControllerPlayable_t1397024487_CustomAttributesCacheGenerator_AnimatorControllerPlayable_INTERNAL_CALL_GetFloatID_m2745506152P21CustomAttributesCache
VOc:__Z42Register_UnityEngine_Canvas_get_rootCanvasv
xxf:__ZL78Convert_t2465617642_CustomAttributesCacheGenerator_Convert_ToBoolean_m40300963P21CustomAttributesCache
edd:_ArrayListWrapper_set_Item_m3849584877
bfb:__ZN39AssetBundleLoadFromStreamAsyncOperation11GetProgressEv
Qe:_TTF_RenderText_Solid
gDb:__ZN13MonoBehaviour25TransferEngineAndInstanceI24GenerateTypeTreeTransferEEvRT_
xHi:_Vector2_get_up_m2097679404
NTe:_List_1__ctor_m3947764094_gshared
j$g:_GUIStyle_get_stretchWidth_m333378588
GIh:__Z82RuntimeInvoker_Vector2_t2156229523_Rect_t2360479859_Il2CppObject_Int32_t2950945753PK10MethodInfoPvPS2_
eyi:_Parser_IsIgnorePatternWhitespace_m2107132682
Q8e:_HttpRequestCreator_Create_m400548686
SSc:__ZN11UnityEngine7Connect16PersistentValuesC2Ev
i6h:_ReadOnlyCollection_1_System_Collections_IList_Insert_m134149130_gshared
Are:_BigInteger_get_Rng_m4216817480
Dzd:_Array_InternalArray__ICollection_Remove_TisDateTime_t3738529785_m2250893026_gshared
VOh:__Z59RuntimeInvoker_Int32_t2950945753_X509ChainStatus_t133602714PK10MethodInfoPvPS2_
lAb:__ZN13EmscriptenWWW10OnProgressEPvjj
vph:_DefaultComparer_Compare_m1658087432_gshared
jIb:__Z19TransferField_ArrayI17RemapPPtrTransfer27Converter_UnityEngineObjectEvRK23StaticTransferFieldInfoR31RuntimeSerializationCommandInfoRT0_
leg:_DefaultComparer_Equals_m224134782_gshared
agd:_KeyNotFoundException__ctor_m541499307
NAd:_SetPropertyUtility_SetStruct_TisSpriteState_t1362986479_m665096788_gshared
zzf:__ZL62FieldAccessException_t238379456_CustomAttributesCacheGeneratorP21CustomAttributesCache
kmb:__ZN14RenderSettings8TransferI18StreamedBinaryReadILb0EEEEvRT_
Kkd:_DateTime__ctor_m1095105629
_J:__ZN4FMOD6System9createDSPEP20FMOD_DSP_DESCRIPTIONPPNS_3DSPE
Rwf:__ZL87Thread_t2300836069_CustomAttributesCacheGenerator_Thread_GetCompressedStack_m2923422412P21CustomAttributesCache
KIf:__ZL105Texture2D_t3840446185_CustomAttributesCacheGenerator_Texture2D_INTERNAL_CALL_GetPixelBilinear_m3709190890P21CustomAttributesCache
DLe:_SslClientStream_get_ClientCertificates_m998716871
Ez:__ZN7mecanim9animation26DestroyControllerWorkspaceEPNS0_19ControllerWorkspaceERNS_6memory9AllocatorE
gG:__ZN4FMOD8ChannelI11EndCallbackEv
tDg:_UnitySerializationHolder_GetDBNullData_m714211970
vjc:__ZN8GUIStyle14SetDefaultFontEPN13TextRendering4FontE
yVe:_List_1_ToArray_m2860284581_gshared
srb:__ZN15QualitySettings23VirtualRedirectTransferER24GenerateTypeTreeTransfer
tmg:_ObjectReader_ReadValue_m3145979203
PVd:_CanvasScaler_OnDisable_m3424669401
x6f:_Transform_1_BeginInvoke_m500585065_gshared
kec:__Z59Register_UnityEngine_MonoBehaviour_Internal_CancelInvokeAllv
NYf:__ZL68Scrollbar_t1494447233_CustomAttributesCacheGenerator_m_NumberOfStepsP21CustomAttributesCache
VUg:_ScrollRect_set_content_m321343743
B9i:__ZN30dense_hashtable_const_iteratorINSt3__24pairIK10KeyWrapperIPK19Il2CppGenericMethodEPK26Il2CppGenericMethodIndicesEES6_N6il2cpp8metadata23Il2CppGenericMethodHashEN14dense_hash_mapIS6_SA_SE_NS6_14EqualsComparerINSD_26Il2CppGenericMethodCompareEEENS0_9allocatorISB_EEE9SelectKeyESI_SK_EppEv
Dwc:_UNITY_FT_Request_Metrics
nca:__ZN7Texture8TransferI18StreamedBinaryReadILb0EEEEvRT_
exj:__ZN6il2cpp6icalls8mscorlib6System10Reflection10MonoMethod29get_IsGenericMethodDefinitionEP22Il2CppReflectionMethod
Mtj:__ZN6il2cpp2vm6Thread21AllocThreadStaticDataEi
xFi:_Texture2D_GetPixelBilinear_m1491830209
$8d:_NumberFormatInfo_get_PercentNegativePattern_m1304634118
RFg:_Default_SelectMethod_m469311730
En:FUNCTION_TABLE_difi
xGj:__ZN30dense_hashtable_const_iteratorINSt3__24pairIK10KeyWrapperIPK19Il2CppGenericMethodEP10MethodInfoEES6_N6il2cpp8metadata23Il2CppGenericMethodHashEN14dense_hash_mapIS6_S9_SD_NS6_14EqualsComparerINSC_26Il2CppGenericMethodCompareEEENS0_9allocatorISA_EEE9SelectKeyESH_SJ_EppEv
PBg:_UInt32_ToString_m2066897296_AdjustorThunk
LM:__Z13RegisterClassI13AudioListenerEvv
dD:__ZN23AnimationOffsetPlayable11GetPositionEv
b5b:__ZN4Mesh11SetTangentsEPK8Vector4fj
qoc:__Z18Transfer_BlittableI9JSONWriteLb0E8Vector3fEvRK29SerializationCommandArgumentsR31RuntimeSerializationCommandInfo
B8g:_Object_FindSceneObjectsOfType_m1091134095
w5:__ZN13RuntimeStaticI17UniqueIDGeneratorLb0EE13StaticDestroyEPv
Of:_emscripten_glUniform4i
Qmi:_ResourceReader_Close_m3765232219
$e:_emscripten_glUniform4f
mj:___unlock
lNe:_TlsCipherSuite_ComputeServerRecordMAC_m3941098609
bCh:__Z72RuntimeInvoker_Void_t1185182177_Il2CppObject_MonoEnumInfoU26_t1823507588PK10MethodInfoPvPS2_
d_c:_X509Certificate_Equals_m3784196370
f2e:_List_1__ctor_m3376067838_gshared
y3e:_Stack_1_System_Collections_ICollection_CopyTo_m1439787341_gshared
KL:__ZN20SoundChannelInstance19setReverbPropertiesEP29FMOD_REVERB_CHANNELPROPERTIES
_Qe:_Enumerator_MoveNext_m1446151600_gshared
WXc:_SHA1Internal_ProcessFinalBlock_m1403775421
wbh:_ReapplyDrivenProperties_Invoke_m3357881462
Rzf:__ZL69Math_t1671470975_CustomAttributesCacheGenerator_Math_Sqrt_m1297338011P21CustomAttributesCache
FC:__ZNK26AnimatorControllerPlayable14IsInTransitionEi
Xgc:__Z40Register_UnityEngine_Transform_IsChildOfv
Kjg:_RemotingServices_GetOrCreateClientIdentity_m648299611
Zoh:_InternalEnumerator_1_get_Current_m2356858238_AdjustorThunk
qJh:__Z52RuntimeInvoker_Boolean_t97287965_HitInfo_t3229609740PK10MethodInfoPvPS2_
ebc:__Z45Register_UnityEngine_Display_GetSystemExtImplv
qwe:_RSAManaged_ImportParameters_m1844641996
wpf:__ZL67AssemblyProductAttribute_t1000945320_CustomAttributesCacheGeneratorP21CustomAttributesCache
cHa:__ZN9GfxDevice31DrawIndexedNullGeometryIndirectE16GfxPrimitiveTypeP9GfxBuffer15ComputeBufferIDj
S1f:_Enumerator_System_Collections_IDictionaryEnumerator_get_Value_m3325938730_AdjustorThunk
Blc:__Z46GUIStyle_CUSTOM_Internal_DrawWithTextSelectionP12Il2CppObjectR43MonoInternal_DrawWithTextSelectionArguments
K8f:_ValueCollection_System_Collections_ICollection_get_SyncRoot_m1114275063_gshared
T0i:__ZL17log2withScale_128yyi
G8g:_Object_GetHashCode_m305416696
wae:_Guid_Equals_m1866984197
dLc:__ZNSt3__218__insertion_sort_3IRNS_6__lessIN2UI14DepthSortEntryES3_EEPS3_EEvT0_S7_T_
xEg:_PlatformNotSupportedException__ctor_m1787918017
GX:__ZN13RuntimeStaticI15DirectorManagerLb0EE16StaticInitializeEPv
o3h:_ReadOnlyCollection_1_System_Collections_ICollection_CopyTo_m2643246984_gshared
o0i:_Panel_MainScene_U3CButtonClick_getMyInfoU3Em__C_m3070049500
Nwb:__ZN11TimeManager6UpdateEv
MRe:_Enumerator_System_Collections_IEnumerator_get_Current_m209407522_gshared
Wng:_StreamingContext_GetHashCode_m2281950854_AdjustorThunk
H1g:_GUISkin_set_scrollView_m1195652016
Kse:_BigInteger_op_Multiply_m3854773313
s9g:_Random_Range_m110872341
IVd:_CanvasScaler_get_fallbackScreenDPI_m2811935689
UEf:__ZL98Component_t1923634451_CustomAttributesCacheGenerator_Component_GetComponentsInChildren_m2110248505P21CustomAttributesCache
x6d:_DateTimeFormatInfo_ReadOnly_m890935083
g5h:_ReadOnlyCollection_1_System_Collections_ICollection_get_SyncRoot_m1280260618_gshared
aSj:_fflush
Ima:__ZN17LightProbeContext4InitERK16LightmapSettingsRK14RenderSettings
FZa:__ZN18DeferredRenderLoop14RenderLightingER21ActiveLightingContextP13RenderTexture9TextureIDPS3_iRK8Vector4fRK14LightingLayersR10MinMaxAABBb12ObjectHandleI17RenderSurface_TagP17RenderSurfaceBaseE
TBi:_X509Certificate_GetIssuerName_m1142198382
Nxi:_ExpressionAssertion_set_Negate_m1236561973
Ptd:_Double_System_IConvertible_ToInt16_m3591921965
ana:__ZN9Texture3DD2Ev
$Ei:_TextGenerator_PopulateWithError_m1581928191
_0d:_Image_get_fillMethod_m1027254375
vga:__ZN10ColorRGBAf8TransferI19StreamedBinaryWriteILb0EEEEvRT_
q9g:_Quaternion_ToString_m127166294
nHi:_Vector2_op_Addition_m2157034339
uwf:__ZL97CompressedStack_t1202932761_CustomAttributesCacheGenerator_CompressedStack_CreateCopy_m2591279216P21CustomAttributesCache
$jd:_Convert_ToChar_m2796006345
w3i:__ZL25UnresolvedVirtualCall_125P12Il2CppObjectiS0_S0_S0_PK10MethodInfo
Nma:__Z38CalculateLightProbeSamplingCoordinatesRK17LightProbeContextRK8Vector3fiR29LightProbeSamplingCoordinates
tCj:__ZNSt3__26vectorI20Il2CppStackFrameInfoNS_9allocatorIS1_EEE7reserveEj
vdb:__ZN5CacheD2Ev
zdd:_ArrayListWrapper_GetEnumerator_m2336495952
Oid:_Stack_GetEnumerator_m2673437525
Bvh:__Z68RuntimeInvoker_Int32_t2950945753_SByte_t1669577662_SByte_t1669577662PK10MethodInfoPvPS2_
rQc:__ZN11UnityEngine7Connect15AppInstallEventC2Ev
kia:__ZN6prcoreL12RemapGenericI17TexFormatARGB888817TexFormatBGRA8888EEvPKNS_9InnerInfoE
pVd:_U3COnFinishSubmitU3Ec__Iterator0_System_Collections_Generic_IEnumeratorU3CobjectU3E_get_Current_m2586882303
zLh:__Z67RuntimeInvoker_Rect_t2360479859_Il2CppObject_BooleanU26_t4125257963PK10MethodInfoPvPS2_
mX:__GLOBAL__sub_I_half_cpp
Dcc:__Z39Input_CUSTOM_INTERNAL_get_mousePositionP8Vector3f
h6c:_SimpleEnumerator__ctor_m353509656
gCc:_tt_cmap13_char_next
WTf:__ZL117EventSystem_t1003666588_CustomAttributesCacheGenerator_EventSystem_t1003666588____lastSelectedGameObject_PropertyInfoP21CustomAttributesCache
NMa:__ZN9ShaderLab4Pass16SetupPassOptionsEv
M1e:_List_1_GetIndex_m1042356532_gshared
_g:_JS_Sound_ReleaseInstance
cta:__ZN13GfxDeviceGLES19DrawBuffersIndirectEP9GfxBufferPK18VertexStreamSourceiP17VertexDeclaration17ShaderChannelMask16GfxPrimitiveType15ComputeBufferIDj
_9d:_Guid_CheckArray_m921056615
Ruh:__Z40RuntimeInvoker_TypeAttributes_t113483779PK10MethodInfoPvPS2_
d4f:_Enumerator_System_Collections_IDictionaryEnumerator_get_Entry_m3417028588_AdjustorThunk
Lmj:__ZNK15dense_hashtableINSt3__24pairIK10KeyWrapperINS1_IPK10MethodInfoP11Il2CppClassEEEjEES9_17ReflectionMapHashIS8_EN14dense_hash_mapIS9_jSD_NS9_14EqualsComparerINS0_8equal_toIS8_EEEENS0_9allocatorISB_EEE9SelectKeyESI_SK_E12test_deletedEj
FBh:__Z172RuntimeInvoker_Boolean_t97287965_Il2CppObject_Il2CppObject_Int32_t2950945753_DateTimeU26_t882461807_DateTimeOffsetU26_t3960159525_SByte_t1669577662_ExceptionU26_t3600731591PK10MethodInfoPvPS2_
cAg:_UInt16_System_IConvertible_ToByte_m3185614807_AdjustorThunk
nLe:_SecurityParameters_set_ServerWriteMAC_m3003817350
wPb:__Z29Transfer_Blittable_ArrayFieldI18StreamedBinaryReadILb0EEaEvRT_R9ArrayInfoRK23StaticTransferFieldInfo
cfc:__Z21Resources_CUSTOM_LoadP12Il2CppStringP12Il2CppObject
rm:FUNCTION_TABLE_diddi
Xtj:__ZN6il2cpp6icalls8mscorlib6System5Array8FastCopyEP11Il2CppArrayiS5_ii
hfc:__Z26Material_CUSTOM_SetIntImplP12Il2CppObjectii
Egj:__ZNSt3__26vectorIPK10MethodInfoNS_9allocatorIS3_EEE21__push_back_slow_pathIRKS3_EEvOT_
E1b:__ZN8GUILayerD2Ev
P2:__ZNK16TypeTreeIterator4NextEv
Cbc:__Z42Register_UnityEngine_RectOffset_get_bottomv
Snf:__ZL55BinaryReader_t2428077293_CustomAttributesCacheGeneratorP21CustomAttributesCache
DRj:_newlocale
hpe:_ObjectDisposedException_get_Message_m1666887471
C_j:_emscripten_glUniform1f__wrapper
EVj:dynCall_di
wye:_X509Certificate_get_SubjectName_m3160893681
Jxc:__ZN20TextRenderingPrivate19NativeTextGeneratorC2ERK11UTF16StringPNS_8FontImplE11ColorRGBA32ifRK8Vector2fbifiibffbbbP13dynamic_arrayIN2UI8UIVertexELj4EE
aoc:__Z28RegisterModule_JSONSerializev
LE:__Z111Register_UnityEngine_Experimental_Director_AnimatorControllerPlayable_INTERNAL_CALL_GetAnimatorClipInfoInternalv
Fij:_il2cpp_monitor_enter
mWb:__ZN2UI13RectTransform8TransferI14SafeBinaryReadEEvRT_
Y5b:__Z20IsHumanControllingUsv
IPa:__ZNK19RenderEventsContext21ExecuteCommandBuffersEijR17ShaderPassContextR15RenderNodeQueueP19ProfilerInformationi
I7f:_Enumerator_MoveNext_m181298207_gshared
fT:__ZNK20DynamicHeapAllocatorI17LowLevelAllocatorE10GetPtrSizeEPKv
prh:__Z130RuntimeInvoker_Boolean_t97287965_Int32U26_t1369213839_Il2CppObject_Int32U26_t1369213839_SByte_t1669577662_ExceptionU26_t3600731591PK10MethodInfoPvPS2_
t2e:_List_1_System_Collections_IList_get_IsReadOnly_m3278465421_gshared
Mnf:__ZL51TextInfo_t3810425522_CustomAttributesCacheGeneratorP21CustomAttributesCache
udb:__ZN10systeminfo21GetPersistentDataPathEv
nvh:__Z171RuntimeInvoker_Void_t1185182177_Il2CppObject_CodePointIndexerU26_t4059079874_ByteU2AU26_t57153304_ByteU2AU26_t57153304_CodePointIndexerU26_t4059079874_ByteU2AU26_t57153304PK10MethodInfoPvPS2_
ZTi:_SymmetricTransform_get_KeepLastBlock_m2492071306
Vsa:__ZN13GfxDeviceGLES17DestroyGpuProgramEPK10GpuProgram
PId:_Array_InternalArray__set_Item_TisRaycastResult_t3360306849_m730888808_gshared
XDb:__Z44InitializeTransferFunctionScriptingTraitsForI18StreamedBinaryReadILb0EEEvR31TransferFunctionScriptingTraits
j7f:_Enumerator_System_Collections_IEnumerator_Reset_m53411943_gshared
UXa:__ZNSt3__218__insertion_sort_3IR23CompareReflectionProbesP31RuntimeReflectionProbeBlendInfoEEvT0_S5_T_
tIb:__ZN12NativeBufferI27Converter_SimpleNativeClassI8GradientEE15SetupForWritingER9ArrayInfo
hse:_Kernel_RightShift_m2207393597
K$f:__ZL48Shadow_t773074319_CustomAttributesCacheGeneratorP21CustomAttributesCache
q8:__ZN12_GLOBAL__N_113StaticDestroyEPv
KEh:__Z92RuntimeInvoker_Boolean_t97287965_Int32U26_t1369213839_Int32U26_t1369213839_Int32_t2950945753PK10MethodInfoPvPS2_
cic:__ZNK8GUIStyle4DrawER8GUIStateRK5RectTIfER10GUIContentbbbb
h3j:_glUnmapBuffer__wrapper
f6f:_Transform_1__ctor_m3369371265_gshared
dEi:_StackTraceUtility_IsSystemStacktraceType_m1310175426
wdc:__Z32Mesh_CUSTOM_ExtractArrayFromListP12Il2CppObject
U3i:__ZL25UnresolvedVirtualCall_149P12Il2CppObjectiiPK10MethodInfo
fsc:__ZN8JSONRead21TransferSTLStyleArrayINSt3__26vectorI8Gradient13stl_allocatorIS3_L18MemLabelIdentifier1ELi16EEEEEEvRT_17TransferMetaFlags
jxb:__ZNSt3__218__insertion_sort_3IRNS_6__lessINS_4pairIPKN5Unity4TypeE7Hash128EES8_EEPS8_EEvT0_SC_T_
M2d:_InputField_set_onValueChanged_m3658917578
LJb:__ZN10RectOffset8TransferI24GenerateTypeTreeTransferEEvRT_
YIe:_TlsClientSettings_get_ClientCertificate_m3139459118
Mee:_BinaryReader__ctor_m2266204403
F6b:__Z18GetResourceManagerv
Nte:__ZN21InterfaceFuncInvoker5IiP22ByteU5BU5D_t4116647657iiS1_iE6InvokeEjP11Il2CppClassP12Il2CppObjectS1_iiS1_i
Gai:_AssemblyIsEditorAssembly__ctor_m1417313067
anj:__ZNK15dense_hashtableINSt3__24pairIK10KeyWrapperINS1_IPK10MethodInfoP11Il2CppClassEEEjEES9_17ReflectionMapHashIS8_EN14dense_hash_mapIS9_jSD_NS9_14EqualsComparerINS0_8equal_toIS8_EEEENS0_9allocatorISB_EEE9SelectKeyESI_SK_E10test_emptyERK30dense_hashtable_const_iteratorISB_S9_SD_SM_SI_SK_E
dui:_Enumerator_System_Collections_IEnumerator_Reset_m24787251
RKc:__ZN2UI13CanvasManager19RemoveDirtyRendererEPNS_6CanvasEPNS_14CanvasRendererE
EQj:_isspace
gM:__ZN7Texture34UpdateFileTextureUploadInstructionEP28FileTextureUploadInstructionj
g9:__Z15GetIApplicationv
s5g:_Keyframe_set_inTangent_m2788159242_AdjustorThunk
FIf:__ZL88Texture_t3661962703_CustomAttributesCacheGenerator_Texture_Internal_GetWidth_m2495281491P21CustomAttributesCache
XPc:__ZN11UnityEngine15PlatformWrapper25GetGraphicsRendererStringEv
Yhi:_AnimationClipPlayable_INTERNAL_CALL_GetSpeed_m2906631008
kug:_UTF7Encoding_InternalGetBytes_m797138468
_aj:__ZNK15dense_hashtableINSt3__24pairIK10KeyWrapperI13dynamic_arrayIPK10Il2CppTypeLj4EEEPFvvEEES8_N6il2cpp8metadata19Il2CppSignatureHashEN14dense_hash_mapIS8_SB_SF_NS8_14EqualsComparerINSE_22Il2CppSignatureCompareEEENS0_9allocatorISC_EEE9SelectKeyESJ_SL_E13find_positionERS9_
Iai:_AsyncOperation__ctor_m2683541089
Qb:invoke_vi
$ue:_SmallXmlParser_HandleWhitespaces_m549588711
_Ha:__ZN15dense_hashtableINSt3__24pairIKN4core12basic_stringIcNS2_20StringStorageDefaultIcEEEEP20ArchiveStorageReaderEES6_20StringHash32FunctionIS6_EN14dense_hash_mapIS6_S9_SC_NS0_8equal_toIS6_EE13stl_allocatorISA_L18MemLabelIdentifier54ELi16EEE9SelectKeyESF_SI_ED2Ev
Ob:invoke_vd
pb:invoke_vf
Tti:_Regex_get_RightToLeft_m2317867572
G3:__ZNK10GameObject8IsActiveEv
Bac:__Z34Component_Get_Custom_PropTransformP12Il2CppObject
IBi:_X509Certificate_get_SignatureAlgorithm_m122054440
UBa:__ZN18GfxFramebufferGLES23SetupDefaultFramebufferEPP17RenderSurfaceBaseS2_N2gl6HandleILNS3_10ObjectTypeE9EEE
iSj:_mbsinit
aKf:__ZL98Transform_t3600365921_CustomAttributesCacheGenerator_Transform_INTERNAL_set_localScale_m3696752495P21CustomAttributesCache
Kgg:_EqualityComparer_1_get_Default_m4273817149_gshared
C2h:_ReadOnlyCollection_1_get_Item_m3437922467_gshared
rYd:_DefaultControls_CreateDropdown_m3286664171
BU:__ZN13ScreenManager18RequestOrientationE17ScreenOrientation
o7i:__ZN6il2cpp2vm5Class12SetupMethodsEP11Il2CppClass
Mkf:__ZL65Il2CppArray_CustomAttributesCacheGenerator_Array_Sort_m2934663614P21CustomAttributesCache
X8b:__Z39DeleteLastPathNameComponentWithAnySlashRKN4core12basic_stringIcNS_20StringStorageDefaultIcEEEE
CS:__ZN13EmscriptenWWW14BlockUntilDoneEv
Y_f:__ZL78LayoutRebuilder_t541313304_CustomAttributesCacheGenerator_U3CU3Ef__amU24cache1P21CustomAttributesCache
ihj:__ZNSt3__26vectorIP11Il2CppClassNS_9allocatorIS2_EEE26__swap_out_circular_bufferERNS_14__split_bufferIS2_RS4_EE
EAg:_UInt16_Equals_m642257745
$ta:__ZN13GfxDeviceGLES17UploadTextureCubeE9TextureIDPKhiii13TextureFormati18TextureUploadFlags17TextureColorSpace
d7g:_Mesh_get_vertices_m1585974779
N5c:_Array_System_Collections_IList_IndexOf_m3301661616
nFg:_AssemblyFileVersionAttribute__ctor_m3720707642
wni:_RuntimeResourceSet_CloneDisposableObjectIfPossible_m2725520898
LUc:_HMACSHA384_set_ProduceLegacyHmacValues_m76936446
Rlc:__Z37Register_UnityEngine_GUIStyle_Cleanupv
Ma:invoke_iiifii
F3j:b113
xXg:_SliderEvent__ctor_m3149452941
oye:_DeriveBytes__cctor_m1212925033
jUd:_UIBehaviour_OnDestroy_m1613239498
H1b:__ZN8GUILayer12AddToManagerEv
__d:_Graphic_OnDisable_m1097930217
Xgj:__ZN6il2cpp6icalls8mscorlib6System8MonoType13IsPointerImplEP20Il2CppReflectionType
_Vi:_U3CU3Ec__DisplayClasse_U3CSignUpU3Eb__c_m3093559987
dtb:__ZN14Texture2DArray34UpdateFileTextureUploadInstructionEP28FileTextureUploadInstructionj
Gi:_emscripten_glFramebufferRenderbuffer
Api:__ZN21InterfaceFuncInvoker3IP12Il2CppObjectP8String_tS1_PS3_E6InvokeEjP11Il2CppClassS1_S3_S1_S4_
gxh:__Z90RuntimeInvoker_Int32_t2950945753_IntPtr_t_Il2CppObject_Int32_t2950945753_Int32_t2950945753PK10MethodInfoPvPS2_
Zpi:_ClientIdentity_set_ClientProxy_m3470388302
DDh:__Z78RuntimeInvoker_Void_t1185182177_Il2CppObject_Byte_t1134296376_Byte_t1134296376PK10MethodInfoPvPS2_
c3a:__ZN9Transform30EnsureTransformHierarchyExistsEv
Ayg:_Type_FilterName_impl_m2651733559
C6c:_Array_GetValue_m116098292
Ncg:_Dictionary_2_System_Collections_Generic_ICollectionU3CSystem_Collections_Generic_KeyValuePairU3CTKeyU2CTValueU3EU3E_Add_m1448015620_gshared
h9b:__Z46Register_UnityEngine_Application_get_isPlayingv
gji:_AnimatorControllerPlayable_GetInteger_m2395046432
v$h:_Collection_1_ClearItems_m2182923889_gshared
aec:__ZN13MonoBehaviour13StopCoroutineEPKc
f6a:__ZNSt3__26vectorINS_4pairIN4core12basic_stringIcNS2_20StringStorageDefaultIcEEEEPK17MessageIdentifierEENS_9allocatorISA_EEE12__move_rangeEPSA_SE_SE_
QTa:__ZN14qsort_internal17MedianOfThreeSwapIP17RODataReplacement19ROSorterReplacementEEvT_S4_S4_T0_
j2c:_String_Split_m3646115398
f6i:__ZNK15dense_hashtableINSt3__24pairIK10KeyWrapperIPK22Il2CppGenericParameterEP11Il2CppClassEES6_N6il2cpp5utils11PointerHashIS4_EEN14dense_hash_mapIS6_S9_SE_NS6_14EqualsComparerINS0_8equal_toIS5_EEEENS0_9allocatorISA_EEE9SelectKeyESJ_SL_E3endEv
T8b:__ZN17TransformInternal36OnScaleChangedCalculateTransformTypeE15TransformAccess
ZHa:__ZN15dense_hashtableINSt3__24pairIKN4core12basic_stringIcNS2_20StringStorageDefaultIcEEEEP20ArchiveStorageReaderEES6_20StringHash32FunctionIS6_EN14dense_hash_mapIS6_S9_SC_NS0_8equal_toIS6_EE13stl_allocatorISA_L18MemLabelIdentifier54ELi16EEE9SelectKeyESF_SI_E4swapERSL_
tKa:__ZN17ArchiveFileSystem10ToAbsoluteEPKc
WIi:_WWW_get_DefaultEncoding_m2757171102
GLd:_Dictionary_2_Do_ICollectionCopyTo_TisKeyValuePair_2_t71524366_m795489160_gshared
jti:_LogicalCallContext_GetObjectData_m841612502
WDd:_Array_InternalArray__IndexOf_TisSByte_t1669577662_m4156538463_gshared
cw:__ZN7mecanim6CRCKeyENS_7eStringE
fDg:_UIntPtr_op_Explicit_m1872118686
aXb:__ZL12SetPrefValueRKN4core12basic_stringIcNS_20StringStorageDefaultIcEEEERK9PrefValue
mRb:__ZL30ReconstructParamNamesFromTableIN9ShaderLab20SerializedSubProgram15MatrixParameterEEvRK14dense_hash_mapIiN4core17string_with_labelILi1EEE18SInt32HashFunctionNSt3__28equal_toIiEE13stl_allocatorINS8_4pairIKiS6_EEL18MemLabelIdentifier1ELi16EEERNS8_6vectorIT_NS8_9allocatorISL_EEEE
m_:__ZN19ShaderPropertySheet20ReservePropertyCountEj
JCj:__ZN6il2cpp5utils11StringUtils6PrintfEPKcz
BPh:__Z55RuntimeInvoker_Void_t1185182177_ILTokenInfo_t2325775114PK10MethodInfoPvPS2_
dha:__ZN15NameToObjectMapI6ShaderNSt3__23mapI4PPtrIS0_EN4core12basic_stringIcNS5_20StringStorageDefaultIcEEEENS1_4lessIS4_EENS1_9allocatorINS1_4pairIKS4_S9_EEEEEENS1_8multimapIS9_S4_NSA_IS9_EENSC_INSD_IKS9_S4_EEEEEEE4FindERSK_
loa:__ZN24GenerateTypeTreeTransfer21TransferResourceImageE19ActiveResourceImagePKcR13StreamingInfoPvjiPKN5Unity4TypeE
XKd:_Array_Sort_TisVector3_t3722313464_m1030213405_gshared
wVh:_Collection_1_System_Collections_IList_Contains_m4166034225_gshared
GJh:__Z54RuntimeInvoker_Vector3_t3722313464_Vector2_t2156229523PK10MethodInfoPvPS2_
RNa:_UNITY_png_zstream_error
aOj:__ZN6il2cpp6icalls8mscorlib6System9Threading5Mutex20CreateMutex_internalEbP12Il2CppStringPb
E2j:_emscripten_glLinkProgram__wrapper
y0g:_GUISettings_Internal_GetCursorFlashSpeed_m3465667052
Tlb:__ZNSt3__212__deque_baseI18ReflectionProbeJobNS_9allocatorIS1_EEED2Ev
qv:__ZN11UnityEngine9Animation27DestroyAnimationSetBindingsEPNS0_20AnimationSetBindingsERN7mecanim6memory9AllocatorE
sRb:__ZN15dense_hashtableINSt3__24pairIKiN4core17string_with_labelILi1EEEEEi18SInt32HashFunctionN14dense_hash_mapIiS5_S7_NS0_8equal_toIiEE13stl_allocatorIS6_L18MemLabelIdentifier1ELi16EEE9SelectKeyESA_SD_E13set_empty_keyERKS6_
JZi:_GenericEqualityComparer_1_Equals_m1705889345_gshared
zB:__ZN8Animator12CleanupClassEv
dsc:__Z13TransferFieldI8JSONReadLb0E27Converter_SimpleNativeClassI10RectOffsetEEvRK23StaticTransferFieldInfoR31RuntimeSerializationCommandInfoRT1_
Wph:_Comparer_1_System_Collections_IComparer_Compare_m2537217645_gshared
ocd:__ZN21InterfaceFuncInvoker0IiE6InvokeEjP11Il2CppClassP12Il2CppObject
Ybb:__ZN11AssetBundle9AssetInfo8TransferI14SafeBinaryReadEEvRT_
M8e:_FtpWebRequest__cctor_m699542155
pyj:__GLOBAL__sub_I_GenericMetadata_cpp
EKj:_setup_header
I7e:_NameObjectCollectionBase_GetEnumerator_m3677320185
bic:__ZNK8GUIStyle4DrawER8GUIStateRK5RectTIfER10GUIContentib
jgj:__ZN6il2cpp6icalls8mscorlib6System8MonoType18GetFields_internalEP20Il2CppReflectionTypeiS5_
v$a:__Z24CalculateSpotLightBoundsffRK10Matrix4x4fR15SpotLightBounds
uTi:_ListPool_1_Get_m3176656818_gshared
qba:__ZNK13RenderTexture21GetShadowSamplingModeEv
AO:__ZN23CloudWebServicesManager23VirtualRedirectTransferER14SafeBinaryRead
mye:_PKCS12_AddCertificate_m3857004455
qFf:__ZL97CullingGroup_t2096318768_CustomAttributesCacheGenerator_CullingGroup_FinalizerFailure_m1971354910P21CustomAttributesCache
ECb:__Z19ShouldTransferFieldR32SerializationCommandQueueBuilder17ScriptingClassPtriR18TransferField_InfoRK20CoreScriptingClasses
Cuf:__ZL67RSACryptoServiceProvider_t2683512874_CustomAttributesCacheGeneratorP21CustomAttributesCache
K6i:__ZN6il2cpp2vm5Class11SetupEventsEP11Il2CppClass
z$c:_SecurityElement_IsValidText_m1346599242
tPg:_MonoMethod_get_ContainsGenericParameters_m3860345224
BJf:__ZL70WWW_t3688466362_CustomAttributesCacheGenerator_WWW_InitWWW_m2012169222P21CustomAttributesCache
yCe:_ARC4Managed_TransformBlock_m1687647868
uuc:__ZL21InitializeCachedStripPv
Xbg:_Dictionary_2_System_Collections_Generic_ICollectionU3CSystem_Collections_Generic_KeyValuePairU3CTKeyU2CTValueU3EU3E_Add_m3652125112_gshared
Qwf:__ZL80Thread_t2300836069_CustomAttributesCacheGenerator_Thread_GetHashCode_m3479107071P21CustomAttributesCache
bli:_AnimatorControllerPlayable_PlayInFixedTime_m3916236473
ruj:__ZN6il2cpp6icalls8mscorlib6System9Threading6Thread23GetCachedCurrentCultureEP12Il2CppThread
RTa:__ZNK6Camera22GetWorldToCameraMatrixEv
eLh:__Z98RuntimeInvoker_Void_t1185182177_SByte_t1669577662_SByte_t1669577662_Int32_t2950945753_Il2CppObjectPK10MethodInfoPvPS2_
enc:__ZN8JSONRead32GetValueForKeyWithNameConversionEPKN9rapidjson12GenericValueINS0_4UTF8IcEE13JSONAllocatorEEPKc
oCj:__ZN6il2cpp2vm12GenericClass11IsValueTypeEP18Il2CppGenericClass
TBb:__ZN13MonoBehaviour7SetNameEPKc
lhg:_MethodDictionary_IsOverridenKey_m946843558
dhe:_FileStream_BeginRead_m2419864669
JSi:_U3CStartU3Ec__Iterator0_MoveNext_m4270440387_gshared
n0h:_ReadOnlyCollection_1_GetEnumerator_m2634200936_gshared
p2h:_ReadOnlyCollection_1_System_Collections_IList_Remove_m4129318771_gshared
Qla:__ZN18AwakeFromLoadQueue5ClearEv
JFa:__Z24ReleaseBufferManagerGLESv
g_a:__ZNSt3__27__sort5IR15ReflProbeSorterPP15ReflectionProbeEEjT0_S6_S6_S6_S6_T_
sY:__ZN8Playable10DisconnectEPS_i
hk:_glGenTransformFeedbacks
dqa:__ZN13LoadOperationD2Ev
bTe:_List_1_System_Collections_ICollection_get_SyncRoot_m1990178029_gshared
obe:_Int16_System_IConvertible_ToType_m3672347013
nSg:_Navigation_set_mode_m3709908198_AdjustorThunk
hmf:__ZL86MSCompatUnicodeTable_t1453885583_CustomAttributesCacheGenerator_U3CU3Ef__switchU24map4P21CustomAttributesCache
aze:_AttrListImpl_GetValue_m3657391095
cka:__Z21PlayerStartFirstSceneb
N2e:_List_1_CheckIndex_m3933537097_gshared
Tga:__ZNSt3__27__sort5IRPFbRKNS_4pairIN9ShaderLab16FastPropertyNameEN18UnityPropertySheet11UnityTexEnvEEES8_EPS6_EEjT0_SD_SD_SD_SD_T_
Oag:_Dictionary_2_Remove_m1532606488_gshared
xxa:__ZNK7ApiGLES18GetExtensionStringEv
m2e:_List_1_System_Collections_IList_IndexOf_m2444653486_gshared
jAh:__Z45RuntimeInvoker_Il2CppObject_Double_t594665363PK10MethodInfoPvPS2_
D_j:_emscripten_glVertexAttrib1f__wrapper
YEf:__ZL116Component_t1923634451_CustomAttributesCacheGenerator_Component_GetComponentsInParent_m2629981626____includeInactive1P21CustomAttributesCache
q6g:_Mathf_SmoothDamp_m1005916951
Fyg:_Type_get_HasElementType_m710151977
CJa:__ZNK12HandlerChain4SizeERK13FileEntryData
No:FUNCTION_TABLE_iiiiiiiii
V3f:_Enumerator_Dispose_m1360775770_AdjustorThunk
G5e:_Collection_1_ClearItems_m1096166028_gshared
N3h:_ReadOnlyCollection_1_System_Collections_Generic_ICollectionU3CTU3E_Remove_m4177779688_gshared
ggi:_DisplaysUpdatedDelegate_EndInvoke_m1178788972
k4:__Z24GetComponentOrScriptNameRN5Unity9ComponentE
rKd:_Array_Sort_TisIl2CppObject_m2698056810_gshared
Bbg:__ZN21InterfaceFuncInvoker2Ib26ObjectMetadata_t3566284522S0_E6InvokeEjP11Il2CppClassP12Il2CppObjectS0_S0_
Mbd:_Char_IsLetter_m3996985877
Ajf:__ZL51Delegate_t1188392813_CustomAttributesCacheGeneratorP21CustomAttributesCache
AAf:__ZL56WeakReference_t1334886716_CustomAttributesCacheGeneratorP21CustomAttributesCache
VYg:_Text_set_alignment_m88714888
ZVe:_List_1_AddCollection_m4263017124_gshared
_Ij:_GC_allochblk
rri:__ZN21InterfaceFuncInvoker1IbP19Context_t3285446944E6InvokeEjP11Il2CppClassP12Il2CppObjectS1_
Tla:__Z15UnloadGameScenev
EGd:_Array_InternalArray__ICollection_CopyTo_TisKeyframe_t4206410242_m2132255743_gshared
c3j:_glCheckFramebufferStatus__wrapper
R0d:_Image__ctor_m2551076292
D9f:_Dictionary_2_System_Collections_ICollection_CopyTo_m3143696177_gshared
V5g:_Material_HasProperty_m4137769941
sB:__ZN16MecanimAnimationD0Ev
ex:__ZN7mecanim9animation14DeltasFromClipERKNS0_18ClipMuscleConstantERKNS0_12ClipBindingsERKNS_14ValueArrayMaskERNS_10ValueArrayESB_SB_
j7h:_ReadOnlyCollection_1_System_Collections_IEnumerable_GetEnumerator_m3203429155_gshared
F4f:_ShimEnumerator_get_Current_m2203681757_gshared
occ:__Z36Renderer_Get_Custom_PropSortingOrderP12Il2CppObject
a0g:_GUILayoutUtility_Layout_m2226961424
dmj:__ZNK15dense_hashtableINSt3__24pairIK10KeyWrapperIPK10Il2CppTypeEjEES6_N6il2cpp8metadata14Il2CppTypeHashEN14dense_hash_mapIS6_jSB_NS6_14EqualsComparerINSA_26Il2CppTypeEqualityComparerEEENS0_9allocatorIS8_EEE9SelectKeyESF_SH_E13find_positionERS7_
fba:__ZN7Texture5ResetEv
KIb:__Z18Transfer_BlittableI24GenerateTypeTreeTransferLb0E8Vector2fEvRK29SerializationCommandArgumentsR31RuntimeSerializationCommandInfo
Ruf:__ZL54SHA384Managed_t74158575_CustomAttributesCacheGeneratorP21CustomAttributesCache
bri:_Context_get_HasDynamicSinks_m3952434387
xsg:_Latin1Encoding_GetByteCount_m1145650505
DIb:__Z18Transfer_BlittableI24GenerateTypeTreeTransferLb1EhEvRK29SerializationCommandArgumentsR31RuntimeSerializationCommandInfo
Lfg:_DefaultComparer_GetHashCode_m177499767_gshared
Wub:__ZN10VertexData10DeallocateEv
Hjj:__ZNSt3__214__split_bufferIiRNS_9allocatorIiEEEC2EjjS3_
m8b:__ZNK16TypeTreeIterator10ByteOffsetEv
YVj:dynCall_iiifii
r6:__ZnwjRKSt9nothrow_t
Kr:__ZN8Animator11ClearObjectEv
cOi:_Nullable_1_GetHashCode_m4232053575_gshared
jzb:__ZNSt3__26vectorIi13stl_allocatorIiL18MemLabelIdentifier12ELi16EEE8__appendEj
Nze:_ApplicationException__ctor_m2557611022
Zkf:__ZL72Il2CppArray_CustomAttributesCacheGenerator_Array_BinarySearch_m818786257P21CustomAttributesCache
ifa:__ZN14SafeBinaryRead19TransferSTLStyleMapINSt3__23mapI39DeprecatedFastPropertyNameSerializationN18UnityPropertySheet11UnityTexEnvENS1_4lessIS3_EENS1_9allocatorINS1_4pairIKS3_S5_EEEEEEEEvRT_17TransferMetaFlags
pec:__Z45Register_UnityEngine_MonoBehaviour_IsInvokingv
R$e:_List_1_CheckMatch_m579516778_gshared
G9c:_Buffer_ByteLengthInternal_m1388208719
IUf:__ZL92PointerEventData_t3807901092_CustomAttributesCacheGenerator_U3CworldNormalU3Ek__BackingFieldP21CustomAttributesCache
gGd:_Array_InternalArray__ICollection_CopyTo_TisInt64_t3736567304_m2845057751_gshared
$6b:__Z35UnregisterSerializationCacheBuilderPFv17ScriptingClassPtrR23CachedSerializationDataRbE
mWd:_CanvasUpdateRegistry_InternalUnRegisterCanvasElementForGraphicRebuild_m1305837035
zde:_Int64_System_IConvertible_ToUInt32_m109903525_AdjustorThunk
Kda:__Z30GetBuiltinVectorParamArraySize24BuiltinShaderVectorParam
P_:__ZNSt3__25stackIPN9ShaderLab21SerializedShaderStateENS_5dequeIS3_NS_9allocatorIS3_EEEEED2Ev
klj:__ZNSt3__218uninitialized_copyIPNS_4pairIK10KeyWrapperINS1_IPK14Il2CppAssemblyP11Il2CppClassEEEjEESC_EET0_T_SE_SD_
Ebe:_Int32_GetFormatException_m519586683
qPe:_Enumerator_MoveNext_m1131351993_gshared
AEg:_RankException__ctor_m2226473861
_Nd:_Array_InternalArray__get_Item_TisVector2_t2156229523_m2502961026_gshared
X0a:__ZN21RendererUpdateManager11AddRendererER8Renderer
pYb:__Z13RegisterClassI15ResourceManagerEvv
aub:__ZN14SafeBinaryRead21TransferSTLStyleArrayI13dynamic_arrayIfLj4EEEEvRT_17TransferMetaFlags
dkd:_Convert_ToDateTime_m3802186295
KCj:__ZN6il2cpp5utils11StringUtils11Utf16ToUtf8EPKDs
xCg:_UInt64_CompareTo_m1614517204_AdjustorThunk
mQc:__ZN11UnityEngine15PlatformWrapper20IsRootedOrJailbrokenEv
VBh:__Z59RuntimeInvoker_Int32_t2950945753_DateTimeOffset_t3229287507PK10MethodInfoPvPS2_
q$a:__Z33IntersectAABBPlaneBoundsOptimizedRK4AABBPKN4math7_float4Ei
bji:_AnimatorControllerPlayable_INTERNAL_CALL_SetBoolID_m1346286234
gta:__ZN9GfxDevice19EndGeometryJobFrameEv
_1d:_InputField_get_shouldActivateOnSelect_m3055465770
ufg:_DefaultComparer_Equals_m2269092119_gshared
yIb:__ZN27Converter_SimpleNativeClassI17AnimationCurveTplIfEE17ScriptingToNativeER18ScriptingObjectPtrPS1_
ZNe:_KeyValuePair_2_get_Value_m578599035_gshared
zyg:_Type__cctor_m2371893800
ROj:__ZN6il2cpp8metadata24Il2CppGenericInstCompare7CompareERK10KeyWrapperIPK17Il2CppGenericInstES8_
y9i:__ZNK15dense_hashtableINSt3__24pairIK10KeyWrapperIPK19Il2CppGenericMethodEPK26Il2CppGenericMethodIndicesEES6_N6il2cpp8metadata23Il2CppGenericMethodHashEN14dense_hash_mapIS6_SA_SE_NS6_14EqualsComparerINSD_26Il2CppGenericMethodCompareEEENS0_9allocatorISB_EEE9SelectKeyESI_SK_E5beginEv
QQd:_ExecuteEvents_Execute_m3049310229
KKg:__ZN21InterfaceFuncInvoker1IiP12MemberInfo_tE6InvokeEjP11Il2CppClassP12Il2CppObjectS1_
c6c:_Array_get_IsSynchronized_m3066873806
EEf:__ZL82Camera_t4157153871_CustomAttributesCacheGenerator_Camera_FireOnPreCull_m2863664483P21CustomAttributesCache
oHh:__Z116RuntimeInvoker_Void_t1185182177_PlayableHandleU26_t4060785685_Int32_t2950945753_Single_t1397266774_Int32_t2950945753PK10MethodInfoPvPS2_
kGa:__ZN9GfxDevice22UploadTextureCubeArrayE9TextureIDPKhjii13TextureFormati18TextureUploadFlags17TextureColorSpace
LZb:__ZNK17AnimationCurveTplIfE8EvaluateEfPNS0_5CacheE
DLa:__Z31ManagerContextInitializeClassesv
W3h:_ReadOnlyCollection_1_System_Collections_IList_Contains_m2650112051_gshared
ayd:_Array_get_swapper_TisVector3_t3722313464_m1221246401_gshared
E3h:_ReadOnlyCollection_1_CopyTo_m1950082901_gshared
Uzc:_ft_smooth_transform
fxc:_UNITY_FT_List_Finalize
NPh:__Z52RuntimeInvoker_Void_t1185182177_UICharInfo_t75501106PK10MethodInfoPvPS2_
COj:__ZN6il2cpp6icalls8mscorlib6System7Runtime8Remoting10Activation18ActivationServices34AllocateUninitializedClassInstanceEP20Il2CppReflectionType
eVa:__Z20LightAttenuateApproxRKfS0_
m1:__ZN9Scripting30SetCachedPtrOnScriptingWrapperE18ScriptingObjectPtrP6Object
GH:__ZNK12AudioManager26GetTypeInfoVirtualInternalEv
khd:_HashKeys_get_IsSynchronized_m174400341
fLb:__Z18Transfer_BlittableI19StreamedBinaryWriteILb0EELb0EdEvRK29SerializationCommandArgumentsR31RuntimeSerializationCommandInfo
Lab:__ZN17LowLevelAllocator6MallocEj
Imh:_InternalEnumerator_1_get_Current_m1232221964_gshared
b5:__ZN21AssetReferenceStorageD2Ev
vgf:_RepeatContext_get_IsMinimum_m3640286252
wIh:__Z49RuntimeInvoker_Il2CppObject_Il2CppObject_IntPtr_tPK10MethodInfoPvPS2_
HNa:_UNITY_png_write_flush
Bih:_InternalEnumerator_1__ctor_m4055378331_AdjustorThunk
dng:_ObjectRecord_ChainFixup_m1889316362
zkf:__ZL68Il2CppArray_CustomAttributesCacheGenerator_Array_IndexOf_m2805394078P21CustomAttributesCache
Woa:__ZN18BlockRangeInternal16PopLastNodeIndexEP10BlockRangeji
lnj:__ZN6il2cpp2gc19AppendOnlyGCHashMapINSt3__24pairIPK11Il2CppImageP11Il2CppClassEEP22Il2CppReflectionModule17ReflectionMapHashIS9_ENS2_8equal_toIS9_EEE10CopyValuesEPv
ZTd:_TouchInputModule_UpdateModule_m2582897964
wtb:__ZN4MeshD0Ev
zTc:__ZL42RequestRecreateEyeTexturesBeforeNextUpdatev
_ca:__ZNK6Camera20IsCurrentlyRenderingEv
BNc:__Z36CanvasRenderer_CUSTOM_SetPopMaterialP12Il2CppObjectS0_i
cpc:__Z18Transfer_BlittableI9JSONWriteLb0EdEvRK29SerializationCommandArgumentsR31RuntimeSerializationCommandInfo
T1c:_String_System_IConvertible_ToDouble_m3740733360
Phb:__ZN6Camera8TransferI19StreamedBinaryWriteILb0EEEEvRT_
rgi:_Event_Finalize_m1421083088
Oqd:_DBNull_System_IConvertible_ToSByte_m3533624679
vkh:_InternalEnumerator_1_System_Collections_IEnumerator_get_Current_m4235876088_gshared
ZQj:_wctomb
Bbd:_Char_CompareTo_m42489266
Rfh:_InternalEnumerator_1_System_Collections_IEnumerator_get_Current_m3575233890_AdjustorThunk
kxg:_TimeSpan__ctor_m3689759052
iac:__Z27Camera_CUSTOM_GetAllCamerasP11Il2CppArray
UBb:__ZNK13MonoBehaviour25GetNeedsPerObjectTypeTreeEv
Mbi:_Bounds_set_center_m1602292844_AdjustorThunk
rQg:_ParameterInfo_GetCustomAttributes_m2376494592
Aqc:__Z18Transfer_BlittableI8JSONReadLb1EhEvRK29SerializationCommandArgumentsR31RuntimeSerializationCommandInfo
S_d:_Graphic_get_canvasRenderer_m315509948
hWh:_Collection_1_System_Collections_IList_Contains_m3397768605_gshared
qSg:_Navigation_set_selectOnUp_m827629728_AdjustorThunk
J_j:_glBindRenderbuffer__wrapper
eMd:_Dictionary_2_Do_CopyTo_TisInt32_t2950945753_TisInt32_t2950945753_m3384108308_gshared
K6b:__ZN10systeminfo23SupportsLocationServiceEv
Kxd:_CultureInfo_construct_internal_locale_from_name_m3254739477
hnc:__ZN9JSONWrite12AppendToNodeEPN9rapidjson12GenericValueINS0_4UTF8IcEE13JSONAllocatorEEPKcRS5_
gwe:_RSAManaged_remove_KeyGenerated_m2046909903
vVc:_RandomNumberGenerator_Create_m4162970280
csh:__Z50RuntimeInvoker_Boolean_t97287965_Int16_t2552820387PK10MethodInfoPvPS2_
MU:__ZN20LocalFileSystemPosix4ReadER13FileEntryDatayyPvPy
GYa:__ZNSt3__211__sift_downIRN23ForwardShaderRenderLoop18RenderObjectSorterILb0EEEP21ForwardRenderPassDataEEvT0_S7_T_NS_15iterator_traitsIS7_E15difference_typeES7_
N5i:__ZL25UnresolvedVirtualCall_250P12Il2CppObject19Vector4_t3319028937PK10MethodInfo
g_c:_SecurityPermission__ctor_m1462427327
kXj:dynCall_iiiiiiffiiiiiiiiiffffiiii
hCb:__ZN13MonoBehaviour5DoGUIENS_13GUILayoutTypeEii
npi:_ChannelData_get_ClientProviders_m594662942
ivi:_QuickSearch_GetChar_m1297698557
_9a:__ZNK12TLSAllocatorI14StackAllocatorE8ContainsEPKv
Pwb:__ZN11TimeManager8TransferI18StreamedBinaryReadILb0EEEEvRT_
i0g:_GUILayoutUtility_INTERNAL_CALL_Internal_MoveWindow_m2775961852
E0e:_List_1_AddCollection_m1469681717_gshared
qkd:_DateTime__ParseEnum_m253019513
Snd:_Convert_ToUInt32_m2194577773
Jtb:__ZN14BlendShapeData8TransferI14SafeBinaryReadEEvRT_
Tgd:_Hashtable_Remove_m4032631466
due:_DSAManaged_GenerateKeyPair_m2236915969
wBf:__ZL91RSASslSignatureFormatter_t2709678514_CustomAttributesCacheGenerator_U3CU3Ef__switchU24map16P21CustomAttributesCache
Wna:__ZN7Texture25ReloadFromStorageIfNeededEPvb
qDd:_Array_InternalArray__IndexOf_TisBoolean_t97287965_m1161209222_gshared
KHf:__ZL80Mesh_t3648964284_CustomAttributesCacheGenerator_Mesh_get_subMeshCount_m652342060P21CustomAttributesCache
Ezb:__ZN24GenerateTypeTreeTransfer8TransferINSt3__26vectorIN30RuntimeInitializeOnLoadManager15ClassMethodInfoE13stl_allocatorIS4_L18MemLabelIdentifier12ELi16EEEEEEvRT_PKc17TransferMetaFlags
xNj:__ZN6il2cpp2os12Cryptography24OpenCryptographyProviderEv
CKf:__ZL55RaycastHit2D_t2279581989_CustomAttributesCacheGeneratorP21CustomAttributesCache
med:_SynchronizedArrayListWrapper_Clear_m2191301493
nIc:_Update_Max
taj:__ZNK15dense_hashtableI10KeyWrapperIPK19Il2CppGenericMethodES4_N6il2cpp8metadata23Il2CppGenericMethodHashEN14dense_hash_setIS4_S7_NS4_14EqualsComparerINS6_26Il2CppGenericMethodCompareEEENSt3__29allocatorIS4_EEE8IdentityESB_SE_E10test_emptyERK30dense_hashtable_const_iteratorIS4_S4_S7_SG_SB_SE_E
q4e:_Collection_1_InsertItem_m2556122853_gshared
euj:__ZN6il2cpp6icalls8mscorlib6SystemL15ThrowNoWideningEv
R7g:_MessageEventArgs__ctor_m2454461197
VZb:__ZNK23TransformChangeDispatch24GetChangeMaskForInterestENS_12InterestTypeE
Bgc:__Z45Transform_CUSTOM_INTERNAL_CALL_TransformPointP12Il2CppObjectRK8Vector3fRS1_
dKg:_GenericTypeParameterBuilder_InvokeMember_m1647304778
K0d:_HorizontalOrVerticalLayoutGroup_set_childControlWidth_m3261460516
Bbj:__ZN14dense_hash_mapI10KeyWrapperI13dynamic_arrayIPK10Il2CppTypeLj4EEEPFvvEN6il2cpp8metadata19Il2CppSignatureHashENS6_14EqualsComparerINSA_22Il2CppSignatureCompareEEENSt3__29allocatorINSF_4pairIKS6_S8_EEEEEC2EjRKSB_RKSE_
z1g:_GUISkin_set_verticalScrollbar_m2480836745
Hfa:__ZNSt3__26__treeINS_12__value_typeI39DeprecatedFastPropertyNameSerializationfEENS_19__map_value_compareIS2_S3_NS_4lessIS2_EELb1EEENS_9allocatorIS3_EEE7destroyEPNS_11__tree_nodeIS3_PvEE
LBc:_tt_cmap4_char_index
GUd:_AspectRatioFitter_GetParentSize_m3159144324
z0c:_SecurityFrame_get_Assembly_m2874566710
tfh:_InternalEnumerator_1__ctor_m2336656763_AdjustorThunk
MJa:__ZNK12HandlerChain8IsHiddenERK13FileEntryData
TVe:_List_1_System_Collections_IList_get_IsFixedSize_m1752888098_gshared
SHb:__ZL26Transfer_SimpleNativeClassI17RemapPPtrTransfer10RectOffsetLb0EEvRK29SerializationCommandArgumentsR31RuntimeSerializationCommandInfo
Ixc:__Z14ValidateFormatR13dynamic_arrayIN20TextRenderingPrivate16TextFormatChangeELj4EE
qWg:_ScrollRect_CalculateLayoutInputVertical_m3155297482
Yce:_Int32_ToString_m2507389746_AdjustorThunk
Q3i:__ZL25UnresolvedVirtualCall_145P12Il2CppObjectiPK10MethodInfo
zmd:_Decimal_op_Explicit_m438967917
jAf:__ZL62RuntimeMethodHandle_t1133924984_CustomAttributesCacheGeneratorP21CustomAttributesCache
Osf:__ZL55IChannelInfo_t3866172133_CustomAttributesCacheGeneratorP21CustomAttributesCache
vvd:_Environment_get_SocketSecurityEnabled_m190813817
oSf:__ZL57UnityEventBase_t3960448221_CustomAttributesCacheGeneratorP21CustomAttributesCache
Lie:_NullStream_Flush_m3382897993
sSb:__ZNSt3__26vectorIN9ShaderLab20SerializedSubProgram13BufferBindingENS_9allocatorIS3_EEEC2ERKS6_
G2d:_InputField_set_selectionColor_m2084640295
vCe:_ARC4Managed_get_InputBlockSize_m1793471611
j4b:__ZN17TransformInternal27UpdateDeepChildCountUpwardsER18TransformHierarchyii
Mda:__ZNK9ShaderLab20ShaderBlendStateDesc15ToGfxBlendStateEPK19ShaderPropertySheetS3_R13GfxBlendState
bsi:_EnvoyInfo_get_EnvoySinks_m1211050346
fqi:_ConfigHandler_OnIgnorableWhitespace_m278399491
dyf:__ZL77Convert_t2465617642_CustomAttributesCacheGenerator_Convert_ToInt64_m260173354P21CustomAttributesCache
Gv:__ZN11UnityEngine9AnimationL22GenericBindingCallbackEPvS1_i
XHc:_Compute_Point_Displacement
uVb:__ZN9ShaderLab9IntShaderC2Ev
chj:__ZN6il2cpp6icalls8mscorlib6SystemL9IsPrivateEPK9EventInfo
rNj:__ZN6il2cpp6icalls8mscorlib6System10Reflection4Emit11TypeBuilder20setup_internal_classEP27Il2CppReflectionTypeBuilderS7_
eMi:_U3CU3Ec__CompilerGenerated0_U3CRegisterBaseExportersU3Ec__9_m4049900669
eBf:__ZL72PKCS12_t4101533061_CustomAttributesCacheGenerator_U3CU3Ef__switchU24mapCP21CustomAttributesCache
RDd:_Array_InternalArray__IndexOf_TisILTokenInfo_t2325775114_m2602704009_gshared
gHf:__ZL52Matrix4x4_t1817901843_CustomAttributesCacheGeneratorP21CustomAttributesCache
ccg:_Dictionary_2_System_Collections_IDictionary_GetEnumerator_m972834308_gshared
FZe:_List_1_System_Collections_ICollection_get_IsSynchronized_m967177678_gshared
RD:__Z69AnimatorControllerPlayable_CUSTOM_INTERNAL_CALL_GetLayerIndexInternalR9HPlayableP12Il2CppString
ptg:_StringBuilder_AppendFormat_m3255666490
tEg:_OverflowException__ctor_m4029085969
uMg:_TypeBuilder_GetGenericArguments_m2872156836
m6h:_ReadOnlyCollection_1_System_Collections_ICollection_get_SyncRoot_m1036904920_gshared
zti:_MethodCall_get_Uri_m1720935531
aPe:_Enumerator_System_Collections_IEnumerator_Reset_m541923898_AdjustorThunk
R5i:__ZN13Il2CppHashMapIPK22Il2CppGenericParameterP11Il2CppClassN6il2cpp5utils11PointerHashIS1_EENSt3__28equal_toIS2_EENS9_9allocatorINS9_4pairIK10KeyWrapperIS2_ES4_EEEEEC2EjRKS8_RKSB_
uve:_KeyPairPersistence_Remove_m1876145547
QV:__Z15CreateDirectoryRKN4core12basic_stringIcNS_20StringStorageDefaultIcEEEE
Vma:__Z21CalculateGlobalMatrix23TransformAccessReadOnly
vMg:_TypeBuilder_GetGenericTypeDefinition_m1632720438
uyd:_Array_InternalArray__ICollection_Contains_TisLink_t544317964_m163190451_gshared
jqd:_DateTimeOffset_System_IComparable_CompareTo_m176229495_AdjustorThunk
Y3b:__ZN13MonoBehaviour20SetScriptingDataFromERKS_
wjh:_InternalEnumerator_1__ctor_m1486034688_gshared
QRh:__Z48RuntimeInvoker_ClientCertificateType_t1004704908PK10MethodInfoPvPS2_
jxf:__ZL56AppDomainSetup_t123196401_CustomAttributesCacheGeneratorP21CustomAttributesCache
QEi:_TextGenerator_System_IDisposable_Dispose_m4258206356
T0e:_List_1_CheckIndex_m2250397830_gshared
Y2c:_String_LastIndexOf_m578673845
cHi:_Vector2_set_Item_m1664083694_AdjustorThunk
Ugf:_Interval_get_Empty_m3617514670
XEg:_Assembly_GetName_m981771927
zCf:__ZL53RegexOptions_t92845595_CustomAttributesCacheGeneratorP21CustomAttributesCache
Iy:__ZN7mecanim12statemachine24CreateStateMachineOutputEPKNS0_20StateMachineConstantEjRNS_6memory9AllocatorE
mCj:__ZN6il2cpp2vm12GenericClass8GetClassEP18Il2CppGenericClass
Fta:__ZNK9GfxDevice27GetActiveRenderSurfaceWidthEv
Lbb:__ZNK11AssetBundle26GetTypeInfoVirtualInternalEv
ZPc:__ZN11UnityEngine15PlatformWrapper28GetCleanGraphicsFixedVersionEv
bSg:_MaskableGraphic_RecalculateClipping_m1772937317
Cle:_UnmanagedMemoryStream_SetLength_m3752964620
C8a:__ZN16MemoryFileSystem5WriteER13FileEntryDatayyPvPy
cMe:_SslStreamBase_RaiseLocalPrivateKeySelection_m4112368540
nkj:__ZN6il2cpp2vm4Type7GetTypeEPK10Il2CppType
iAe:_ArgumentOutOfRangeException_GetObjectData_m1344552880
nie:_MemoryStream_SetLength_m974389318
vwf:__ZL100CompressedStack_t1202932761_CustomAttributesCacheGenerator_CompressedStack_GetObjectData_m2451703776P21CustomAttributesCache
Qmj:__ZN15dense_hashtableINSt3__24pairIK10KeyWrapperINS1_IPK10MethodInfoP11Il2CppClassEEEjEES9_17ReflectionMapHashIS8_EN14dense_hash_mapIS9_jSD_NS9_14EqualsComparerINS0_8equal_toIS8_EEEENS0_9allocatorISB_EEE9SelectKeyESI_SK_E8min_sizeEjj
H2h:_ReadOnlyCollection_1_System_Collections_Generic_ICollectionU3CTU3E_Remove_m2240544026_gshared
Zjh:_InternalEnumerator_1_get_Current_m165106323_AdjustorThunk
ZUi:_Cmn_Func_getFileMessage_m162541143
$tg:_UTF32Encoding_GetByteCount_m3610769032
owh:__Z35RuntimeInvoker_DateTime_t3738529785PK10MethodInfoPvPS2_
Zia:__ZN6prcoreL17RemapGenericFloatI18TexFormatRGBAFloat17TexFormatRGBAHalfEEvPKNS_9InnerInfoE
fPa:__Z16FindCameraStacksRKNSt3__24listI4PPtrI6CameraENS_9allocatorIS3_EEEERNS_6vectorI11CameraStackNS4_ISA_EEEE
aui:_MatchCollection_CopyTo_m3807326147
opb:__ZN10GISettings8TransferI14SafeBinaryReadEEvRT_
hn:FUNCTION_TABLE_vifff
Omg:_ObjectReader_get_CurrentObject_m2820303483
kVc:_MD5CryptoServiceProvider__ctor_m3271163125
eTi:_ListPool_1_Get_m2875520964_gshared
swf:__ZL95UnicodeEncoding_t1959134050_CustomAttributesCacheGenerator_UnicodeEncoding_GetBytes_m3223155660P21CustomAttributesCache
pba:__ZN13RenderTexture13ApplySettingsEv
dmg:_ObjectReader_RegisterObject_m1853376334
GLg:_ModuleBuilderTokenGenerator_GetToken_m2588853565
P8c:_Boolean_System_IConvertible_ToDecimal_m3176932461_AdjustorThunk
Ue:_JS_Sound_SetListenerPosition
an:FUNCTION_TABLE_fiffi
YVg:_ScrollRect_OnInitializePotentialDrag_m3139711961
rBb:__ZN9TextAsset9SetScriptERKN4core12basic_stringIcNS0_20StringStorageDefaultIcEEEEb
$9a:__ZNK12TLSAllocatorI14StackAllocatorE10GetPtrSizeEPKv
Q3h:_ReadOnlyCollection_1_System_Collections_Generic_IListU3CTU3E_set_Item_m711370667_gshared
RAj:__ZNK15dense_hashtableINSt3__24pairIK10KeyWrapperINS1_IPKcS4_EEEiEES6_24NamespaceAndNamePairHashN14dense_hash_mapIS6_iS9_NS6_14EqualsComparerI26NamespaceAndNamePairEqualsEENS0_9allocatorIS8_EEE9SelectKeyESD_SF_E10test_emptyERK24dense_hashtable_iteratorIS8_S6_S9_SH_SD_SF_E
aGg:_Default_check_arguments_with_score_m3467814020
U6f:_Enumerator_get_Current_m3106599345_gshared
Uje:_StreamWriter_LowLevelWrite_m1081676583
mRe:_Enumerator__ctor_m3875432026_AdjustorThunk
bla:__ZNK8Material16MarkDependenciesER27GarbageCollectorThreadState
EXg:_Slider_set_handleRect_m1101657556
yqd:_DateTimeOffset_ToString_m3985341516_AdjustorThunk
w_h:_Collection_1_System_Collections_IList_Contains_m3348135931_gshared
epc:__ZL17Transfer_GUIStyleI9JSONWriteLb0EEvRK29SerializationCommandArgumentsR31RuntimeSerializationCommandInfo
dTa:__Z28GetHaloVertexPositionsStereoP8Vector3fRKS_S2_f
Pja:__ZN6prcoreL27StretchGenericFloatBilinearI15TexFormatRGHalfEEvPKNS_9InnerInfoE
G9f:_Dictionary_2_System_Collections_IDictionary_GetEnumerator_m751864982_gshared
j3i:__ZL25UnresolvedVirtualCall_112P12Il2CppObjectsS0_aaaPK10MethodInfo
K9d:_SortKey_GetHashCode_m3547067087
Eoj:__ZNK10KeyWrapperINSt3__24pairIPK9EventInfoP11Il2CppClassEEE14EqualsComparerINS0_8equal_toIS7_EEEclERKS8_SE_
OZf:__ZL71SpriteState_t1362986479_CustomAttributesCacheGenerator_m_DisabledSpriteP21CustomAttributesCache
bea:__ZNK9ShaderLab7Program21GetMatchingSubProgramEPK6ShaderPKNS_4PassERK16ShaderKeywordSetjPS7_R19ShaderSnippetResult
Pbf:_PublicKey_DecodeDSA_m3490622362
ffc:__Z49Register_UnityEngine_Resources_GetBuiltinResourcev
HLd:_Dictionary_2_Do_ICollectionCopyTo_TisIl2CppObject_m3233307772_gshared
XBc:_tt_cmap10_char_index
OGe:_TlsException__ctor_m3242533711
l8g:_Object_Internal_InstantiateSingle_m2978472292
bCe:_BitConverterLE_GetUIntBytes_m795219058
j6:__Z18GetITerrainManagerv
Uhd:_SortedList__ctor_m3676552745
t6i:__ZN15dense_hashtableINSt3__24pairIK10KeyWrapperIPK22Il2CppGenericParameterEP11Il2CppClassEES6_N6il2cpp5utils11PointerHashIS4_EEN14dense_hash_mapIS6_S9_SE_NS6_14EqualsComparerINS0_8equal_toIS5_EEEENS0_9allocatorISA_EEE9SelectKeyESJ_SL_E3endEv
Tyc:_UNITY_FT_Destroy_Class_cff_field_handlers
OId:_Array_InternalArray__set_Item_TisColor32_t2600501292_m1891325855_gshared
aUb:__ZN9ShaderLab22SerializedBindChannels8TransferI19StreamedBinaryWriteILb0EEEEvRT_
Mjc:__ZN5IMGUI20MoveWindowFromLayoutER8GUIStateiRK5RectTIfE
fHh:__Z110RuntimeInvoker_Void_t1185182177_PlayableHandleU26_t4060785685_Int32_t2950945753_SByte_t1669577662_Il2CppObjectPK10MethodInfoPvPS2_
lxc:_UNITY_FT_Stream_ReadUShort
OXh:_Collection_1_System_Collections_IList_get_Item_m1677338752_gshared
Gbc:__Z51Register_UnityEngine_GUILayer_INTERNAL_CALL_HitTestv
Fhc:__Z50Register_UnityEngine_Object_FindSceneObjectsOfTypev
gfa:__ZNSt3__26__treeINS_12__value_typeIN4core12basic_stringIcNS2_20StringStorageDefaultIcEEEES6_EENS_19__map_value_compareIS6_S7_NS_4lessIS6_EELb1EEE13stl_allocatorIS7_L18MemLabelIdentifier1ELi16EEE7destroyEPNS_11__tree_nodeIS7_PvEE
NGg:_AssemblyBuilder_get_Location_m384539722
pwg:_Thread_get_ManagedThreadId_m1068113671
ekd:_DateTime_Parse_m3729096069
vne:_MonoType_GetFields_m4176012508
Ytc:__Z12FormatBufferPciPKcz
YNb:__ZN18StreamedBinaryReadILb1EE21TransferSTLStyleArrayI13dynamic_arrayI8Vector2fLj4EEEEvRT_17TransferMetaFlags
Jf:_emscripten_glUniform1fv
Ieb:__ZNK17FileSystemHandler8IsHiddenERK13FileEntryData
iof:__ZL57FileSystemInfo_t3745885336_CustomAttributesCacheGeneratorP21CustomAttributesCache
F6i:__ZN6il2cpp2vm5Class13GetArrayClassEP11Il2CppClassj
sTd:_StandaloneInputModule_set_inputActionsPerSecond_m4057208843
RI:__ZN4FMOD7Channel7setModeEj
Yke:_TextWriter_Write_m164803641
tS:__ZN13EmscriptenWWW6CancelEv
izh:__Z62RuntimeInvoker_Void_t1185182177_Il2CppObject_Int16_t2552820387PK10MethodInfoPvPS2_
Tjc:__ZN11IMGUIModule12AddGUIScriptER8ListNodeI13MonoBehaviourE
mb:invoke_difi
f$j:_glDeleteSamplers__wrapper
S5:__ZL50StaticRegisterSceneLoadedCallback_LightmapSettingsPv
W6e:_HybridDictionary_set_Item_m2997363718
hWa:__ZN29MotionVectorRenderLoopScratch15ThreadedCleanupEv
Bm:FUNCTION_TABLE_iiffi
Poh:_InternalEnumerator_1_get_Current_m1477715453_AdjustorThunk
pCg:_UInt64_System_IConvertible_ToUInt32_m2784653358
oya:__ZN21GLESGpuProgramApplier11ApplyVectorERKN20GpuProgramParameters14ValueParameterEPK8Vector4ft
S_a:__Z17PrepareSceneNodesP11CullResults
lNi:_Lexer_State20_m3151936696
zLj:_GC_make_descriptor
Ivh:__Z130RuntimeInvoker_Int32_t2950945753_Il2CppObject_Il2CppObject_Int32_t2950945753_Int32_t2950945753_Il2CppObject_ContextU26_t3937453398PK10MethodInfoPvPS2_
Mja:__ZN6prcoreL27StretchGenericFloatBilinearI18TexFormatRGBAFloatEEvPKNS_9InnerInfoE
vxj:__ZN15dense_hashtableINSt3__24pairIK10KeyWrapperIP14Il2CppIUnknownEjEES5_N6il2cpp5utils11PointerHashIS3_EEN14dense_hash_mapIS5_jSB_NS5_14EqualsComparerINS0_8equal_toIS4_EEEENS0_9allocatorIS7_EEE9SelectKeyESG_SI_E12expand_arrayEjN21dense_hash_map_traits17integral_constantIbLb0EEE
Gog:_SByte_System_IConvertible_ToDecimal_m2548745278
kEc:_cff_size_done
W3e:_Collection_1_System_Collections_IEnumerable_GetEnumerator_m248963351_gshared
IHj:__ZN6il2cpp6icalls8mscorlib6System7Convert17Base64ToByteArrayEPDsib
jQa:__ZN22RenderingCommandBuffer13GetAndCheckRTE24BuiltinRenderTextureTypeRKN9ShaderLab16FastPropertyNameEPKcPP13RenderTexture
E5a:__ZN6Camera34UpdatePreviousViewProjectionMatrixEv
eea:__ZN9ShaderLab11ShaderState25RemoveUnsupportedProgramsEPK6Shader
NUb:__ZL23AddGpuProgramParametersR20GpuProgramParametersRKNSt3__26vectorIN9ShaderLab20SerializedSubProgram15MatrixParameterENS1_9allocatorIS5_EEEERKNS2_INS4_15VectorParameterENS6_ISB_EEEEiP16PropertyNamesSet
ecj:__ZNK6il2cpp5utils11collections13ArrayValueMapIPK10Il2CppType17Il2CppInteropData26InteropDataToTypeConverterNS_8metadata14Il2CppTypeLessENS8_26Il2CppTypeEqualityComparerEE22LowerBoundFindComparerclERKS6_RKS5_
xhc:__Z44Register_UnityEngine_Object_DestroyImmediatev
Fke:_SynchronizedWriter_WriteLine_m1552352268
Dni:_DefaultDependencyAttribute__ctor_m502524668
Sac:__Z47Register_UnityEngine_Component_BroadcastMessagev
gr:__ZN18StreamedBinaryReadILb0EE21TransferSTLStyleArrayI13dynamic_arrayI4PPtrI6ObjectELj4EEEEvRT_17TransferMetaFlags
_Eh:__Z36RuntimeInvoker_JsonToken_t3605538862PK10MethodInfoPvPS2_
q7b:__Z26scripting_class_has_parent17ScriptingClassPtrS_
Swj:__ZN6il2cpp6icalls8mscorlib6System2IO6MonoIO4ReadE12Il2CppIntPtrP11Il2CppArrayiiPi
Z4:__ZN13RuntimeStaticI21AssetReferenceStorageLb0EE16StaticInitializeEPv
cFi:_TextGenerator_PopulateAlways_m3684656810
wBg:_UInt32_System_IConvertible_ToUInt32_m1744564280_AdjustorThunk
dce:_Int32_System_IConvertible_ToByte_m3832391412_AdjustorThunk
hQf:__ZL86GUIStyle_t3956901511_CustomAttributesCacheGenerator_GUIStyle_get_fontStyle_m1058614208P21CustomAttributesCache
XPj:__ZN6il2cpp8metadata25Il2CppGenericClassCompare7CompareEPK18Il2CppGenericClassS4_
ku:__ZNK8Animator20IsInMatchTargetStateEv
WId:_Array_InternalArray__set_Item_TisUILineInfo_t4195266810_m2313892078_gshared
ykc:__Z36Register_UnityEngine_GUI_set_changedv
jri:_Context_GetServerContextSinkChain_m3154465897
rTg:_GetRayIntersectionAllCallback_EndInvoke_m1583561415
Cmd:_Convert_ToInt64_m2075293963
pDf:__ZL142U3CU3Ec__CompilerGenerated1_t1117331131_CustomAttributesCacheGenerator_U3CU3Ec__CompilerGenerated1_U3CRegisterBaseImportersU3Ec__16_m489636787P21CustomAttributesCache
sy:__ZN27AnimationLayerMixerPlayable18SetInputConnectionEP8Playablei
amc:__Z42Register_UnityEngine_GUIStyle_get_wordWrapv
eIg:_DerivedType_MakeGenericType_m100846339
Osh:__Z71RuntimeInvoker_Il2CppObject_Il2CppObject_Il2CppObject_Int32_t2950945753PK10MethodInfoPvPS2_
T2h:_ReadOnlyCollection_1_System_Collections_IList_Remove_m3588765115_gshared
nra:__ZZ19InitializeGfxDevice20GfxCreateDeviceFlagsEN38PreLateUpdateEndGraphicsJobsLatestruct7ForwardEv
e8i:__ZN6il2cpp2vm5Class40GetInterfaceInvokeDataFromVTableSlowPathEPK12Il2CppObjectPK11Il2CppClassj
_$d:_GridLayoutGroup_set_startAxis_m837106447
Ajb:__ZN20TierGraphicsSettings8TransferI18StreamedBinaryReadILb0EEEEvRT_
wYc:_SHA384Managed_adjustByteCounts_m2921970088
mxf:__ZL150ApplicationIdentity_t1917735356_CustomAttributesCacheGenerator_ApplicationIdentity_System_Runtime_Serialization_ISerializable_GetObjectData_m995105840P21CustomAttributesCache
Cce:_Int32_System_IConvertible_ToUInt64_m2502338186_AdjustorThunk
J2e:_List_1_GetIndex_m582784660_gshared
J0i:__ZL9rshift128PyS_
Sue:__ZN23InterfaceActionInvoker1IP25SmallXmlParser_t973787839E6InvokeEjP11Il2CppClassP12Il2CppObjectS1_
C2:__ZN15dense_hashtableINSt3__24pairIKiP4RTTIEEiN11TypeManager27HashFunctorPersistentTypeIDEN14dense_hash_mapIiS4_S7_NS0_8equal_toIiEE13stl_allocatorIS5_L18MemLabelIdentifier6ELi16EEE9SelectKeyESA_SD_E12resize_deltaEjj
DQe:_Enumerator_VerifyState_m169680537_AdjustorThunk
brj:__ZN14dense_hash_mapI10KeyWrapperINSt3__24pairIPK12PropertyInfoP11Il2CppClassEEEj17ReflectionMapHashIS8_ENS9_14EqualsComparerINS1_8equal_toIS8_EEEENS1_9allocatorINS2_IKS9_jEEEEE13set_empty_keyERSH_
Uj:_glRenderbufferStorage
VAj:__ZNK15dense_hashtableINSt3__24pairIK10KeyWrapperINS1_IPKcS4_EEEiEES6_24NamespaceAndNamePairHashN14dense_hash_mapIS6_iS9_NS6_14EqualsComparerI26NamespaceAndNamePairEqualsEENS0_9allocatorIS8_EEE9SelectKeyESD_SF_E13find_positionERS7_
Ihf:__ZL43Il2CppObject_CustomAttributesCacheGeneratorP21CustomAttributesCache
Zcc:__Z45Register_UnityEngine_Input_get_touchSupportedv
bQc:__ZN11UnityEngine15PlatformWrapper28GetTextureFormatSupportFlagsEv
Nzc:_UNITY_FT_Create_Class_pshinter_module_class
rwh:__Z83RuntimeInvoker_Void_t1185182177_Il2CppObject_Int32U26_t1369213839_Int32_t2950945753PK10MethodInfoPvPS2_
Fyi:_Uri_EscapeString_m3864445955
vbh:_RectTransform_SendReapplyDrivenProperties_m3862170524
PEc:_cf2_setError
W_f:__ZL78LayoutRebuilder_t541313304_CustomAttributesCacheGenerator_U3CU3Ef__mgU24cache0P21CustomAttributesCache
tFg:_AssemblyName_get_FullName_m3351492191
Oma:__Z33InterpolateLightProbeCoefficientsRK17LightProbeContextRK29LightProbeSamplingCoordinatesR20SphericalHarmonicsL2
MZc:_X509Certificate__ctor_m1321742168
S4d:_U3CMouseDragOutsideRectU3Ec__Iterator1_System_Collections_Generic_IEnumeratorU3CobjectU3E_get_Current_m3688496850
VYd:_Dropdown_Awake_m3140021404
Ug:_glDisable
MOc:__Z44Register_UnityEngine_Canvas_get_pixelPerfectv
JIf:__ZL90Texture2D_t3840446185_CustomAttributesCacheGenerator_Texture2D_get_whiteTexture_m675948068P21CustomAttributesCache
dDh:__Z44RuntimeInvoker_Il2CppObject_Byte_t1134296376PK10MethodInfoPvPS2_
Bqf:__ZL53IsVolatile_t2097058663_CustomAttributesCacheGeneratorP21CustomAttributesCache
emb:__ZN4PPtrI9Texture2DE8TransferI14SafeBinaryReadEEvRT_
CEf:__ZL88Camera_t4157153871_CustomAttributesCacheGenerator_Camera_get_allCamerasCount_m1052940671P21CustomAttributesCache
dDj:__ZN6il2cpp5utils11StringUtils15StringDuplicateEPKDsj
twi:_Regex_Match_m4145799399
b3c:_String_IsNullOrEmpty_m2969720369
H6f:_Enumerator_MoveNext_m2602845255_gshared
PPf:__ZL84GUIStyle_t3956901511_CustomAttributesCacheGenerator_GUIStyle_get_clipping_m756870033P21CustomAttributesCache
cJh:__Z73RuntimeInvoker_Int32_t2950945753_IntPtr_t_Il2CppObject_Single_t1397266774PK10MethodInfoPvPS2_
Lre:_BigInteger_LowestSetBit_m3082714978
M5:__ZNSt3__26vectorINS_4pairIyP17VertexDeclarationEENS_9allocatorIS4_EEE6assignIPS4_EENS_9enable_ifIXaasr21__is_forward_iteratorIT_EE5valuesr16is_constructibleIS4_NS_15iterator_traitsISB_E9referenceEEE5valueEvE4typeESB_SB_
K3j:b118
L3j:b119
AWa:__ZNK8Material12GetPassCountEv
tXc:_RSAParameters_t1728406613_marshal_pinvoke
bhf:_Interval_IsDisjoint_m1532171337_AdjustorThunk
E3j:b112
QUj:_bitshift64Ashr
G3j:b114
H3j:b115
I3j:b116
Uea:__ZNK8Material26GetTypeInfoVirtualInternalEv
mWj:dynCall_diii
bRg:_LayoutUtility_GetFlexibleWidth_m22831835
Nii:_AnimatorControllerPlayable_SetFloat_m3844828210
mRd:_ExecuteEvents_get_endDragHandler_m2879610446
Tdh:_ArrayReadOnlyList_1_ReadOnlyError_m865416608_gshared
xfd:_CollectionBase_System_Collections_IList_get_Item_m3743372945
d$c:_Evidence_GetEnumerator_m302914965
Qza:__ZN4crnd12crn_unpacker22decode_alpha_endpointsEv
S$a:__Z23CullDynamicObjectsUmbraPK4AABBPKN5Umbra15OcclusionBufferER9IndexList
$Le:_SslStreamBase_RaiseRemoteCertificateValidation2_m2908038766
Tdi:_WriteOnlyAttribute__ctor_m4139616771
MBc:_tt_cmap4_char_next
OCg:_UIntPtr__ctor_m4250165422_AdjustorThunk
jXd:_ColorTween_set_startColor_m2562993758_AdjustorThunk
esf:__ZL115SynchronizationAttribute_t3946661254_CustomAttributesCacheGenerator_SynchronizationAttribute_IsContextOK_m324067792P21CustomAttributesCache
fOb:__ZN18StreamedBinaryReadILb1EE21TransferSTLStyleArrayI13dynamic_arrayIiLj4EEEEvRT_17TransferMetaFlags
dY:__ZN17DirectorFrameTime14ResetDSPValuesEv
wld:_Convert_ToDecimal_m1233667008
xnh:_InternalEnumerator_1_MoveNext_m2734554195_gshared
HGa:__ZN9GfxDevice20SetComputeBufferDataE15ComputeBufferIDPKvj
mDe:_MD5SHA1_HashCore_m4171647335
DI:__ZN4FMOD7Channel11setPositionEjj
Mh:_glBindSampler
P6:__Z22CreateMutexLockedQueuev
uFe:_ClientContext_get_ClientHelloProtocol_m1654639078
MUi:_AES256Cipher__ctor_m3840702609
Ph:_glGetVertexAttribiv
h7f:_Enumerator_System_Collections_IEnumerator_get_Current_m1975949486_gshared
Jui:_PatternCompiler_EmitSub_m193323684
h9i:__ZNSt3__218uninitialized_fillIPNS_4pairIK10KeyWrapperIPKcEP11Il2CppClassEES9_EEvT_SB_RKT0_
vKc:__ZN2UI11CanvasGroup23VirtualRedirectTransferER18StreamedBinaryReadILb0EE
XBf:__ZL110WebProxy_t2016760542_CustomAttributesCacheGenerator_WebProxy_t2016760542____UseDefaultCredentials_PropertyInfoP21CustomAttributesCache
Orc:__ZN8JSONRead8TransferIbEEvRT_PKc17TransferMetaFlagsb
kfi:_CullingGroup_t2096318768_marshal_pinvoke
fyg:_TimeSpan_ToString_m1128692466
_qh:__Z45RuntimeInvoker_Double_t594665363_Il2CppObjectPK10MethodInfoPvPS2_
LLh:__Z70RuntimeInvoker_Single_t1397266774_Int32_t2950945753_Single_t1397266774PK10MethodInfoPvPS2_
sCd:__ZN21InterfaceFuncInvoker1Ii28AnimatorClipInfo_t3156717155E6InvokeEjP11Il2CppClassP12Il2CppObjectS0_
Osg:_StringBuilder__ctor_m2367297767
_ob:__ZN26CustomRenderTextureManager19PreAllocateMaterialEP19CustomRenderTexture
xAh:__Z53RuntimeInvoker_DateTime_t3738529785_Int32_t2950945753PK10MethodInfoPvPS2_
euc:__ZN19ControllerHitReport13onObstacleHitERKN5physx23PxControllerObstacleHitE
IIj:_GC_promote_black_lists
Fxd:_CultureInfo_construct_datetime_format_m1928121315
zsc:__Z29Transfer_Blittable_ArrayFieldI8JSONRead8Vector4fEvRT_R9ArrayInfoRK23StaticTransferFieldInfo
Pxc:__ZNK13TextRendering4Font9GetAscentEv
Hn:FUNCTION_TABLE_vf
OFg:_Binder_GetDerivedLevel_m3216810447
fo:FUNCTION_TABLE_vd
qgf:_RepeatContext_get_Start_m1076992038
TQf:__ZL54SliderState_t2207048770_CustomAttributesCacheGeneratorP21CustomAttributesCache
qtg:_StringBuilder_AppendFormat_m2403596038
krg:_DSASignatureDeformatter_SetHashAlgorithm_m3186995552
z1h:_ReadOnlyCollection_1_System_Collections_Generic_ICollectionU3CTU3E_Clear_m2772202961_gshared
kqc:__ZN9JSONWrite8TransferI13dynamic_arrayI4AABBLj4EEEEvRT_PKc17TransferMetaFlags
tC:__ZNK8Animator17HasBoundPlayablesEv
Hai:_AssetBundleCreateRequest__ctor_m172787386
rni:_ResourceSet_ReadResources_m3663669011
jXh:_Collection_1_GetEnumerator_m3990758110_gshared
lBf:__ZL74X509Crl_t1148767388_CustomAttributesCacheGenerator_U3CU3Ef__switchU24map13P21CustomAttributesCache
KPh:__Z54RuntimeInvoker_Void_t1185182177_RaycastHit_t1056001966PK10MethodInfoPvPS2_
_Lh:__Z91RuntimeInvoker_Void_t1185182177_Vector3_t3722313464_Color32_t2600501292_Vector2_t2156229523PK10MethodInfoPvPS2_
G0e:_List_1_AddEnumerable_m1267044261_gshared
fCc:_tt_cmap13_char_index
ua:invoke_iiifiii
ahi:_InvokableCall_Invoke_m3416177260
jvj:__ZN6il2cpp2vm9Exception11FromNameMsgEPK11Il2CppImagePKcS6_S6_
IBj:__ZNSt3__26__treeINS_12__value_typeIP24Il2CppReflectionAssemblyPvEENS_19__map_value_compareIS3_S5_NS_4lessIS3_EELb1EEENS_9allocatorIS5_EEE12__find_equalIS3_EERPNS_16__tree_node_baseIS4_EESH_RKT_
Um:FUNCTION_TABLE_fiiifii
fkb:__ZN5LightD2Ev
OB:__ZN10HumanTrait15InitializeClassEv
JZ:__Z14GetTimeManagerv
Dwh:__Z42RuntimeInvoker_DictionaryEntry_t3123975638PK10MethodInfoPvPS2_
tNi:_Lexer_State28_m2838297024
blf:__ZL61ArrayReadOnlyList_1_t221793636_CustomAttributesCacheGeneratorP21CustomAttributesCache
Mfb:__Z12GUIDToStringRK9UnityGUIDPc
mdb:__ZN15FileSystemEntry4LockE12FileLockModeP12FileAccessor
P1j:_emscripten_glDrawArrays__wrapper
Lce:_Int32_Equals_m2976157357
H9g:_RaycastHit_t1056001966_marshal_pinvoke_back
w1e:_List_1_System_Collections_IList_get_IsReadOnly_m1601400230_gshared
Jed:_BitArray_get_IsSynchronized_m3546284417
Tii:_AnimatorControllerPlayable_GetBool_m1289149128
IKe:_TlsException__ctor_m3717683709
aDj:__ZN4utf88internal20is_overlong_sequenceIiEEbjT_
waj:__ZN6il2cpp2vm13MetadataCache8RegisterEPK22Il2CppCodeRegistrationPK26Il2CppMetadataRegistrationPK20Il2CppCodeGenOptions
Eqe:_SortKeyBuffer__ctor_m1384677558
IZd:_U3CDelayedDestroyDropdownListU3Ec__Iterator0_System_Collections_IEnumerator_get_Current_m1619733476
zyf:__ZL79Convert_t2465617642_CustomAttributesCacheGenerator_Convert_ToUInt16_m4064261444P21CustomAttributesCache
W$g:_GUILayoutGroup_SetVertical_m2369884376
JXa:__Z30SetupBakedOcclusionForGeometrybRK26SharedLightmapSettingsDataRK15LightmapIndicesR17ShaderPassContext
UKg:_MethodBuilder_get_Attributes_m2740229145
Yac:__Z41Register_UnityEngine_Cursor_get_lockStatev
Gof:__ZL123GenericTypeParameterBuilder_t1988827940_CustomAttributesCacheGenerator_GenericTypeParameterBuilder_IsSubclassOf_m2266644074P21CustomAttributesCache
NWe:_List_1_System_Collections_Generic_ICollectionU3CTU3E_get_IsReadOnly_m1452623799_gshared
tae:_Guid_CompareTo_m243656946
KZb:__Z20DestroyObjectDelayedP6Objectf
$S:__ZN20DynamicHeapAllocatorI17LowLevelAllocatorED0Ev
tee:_IntPtr_ToPointer_m4157623054
UHe:_Context_get_LastHandshakeMsg_m2730646725
sUa:__ZN9DepthPassD2Ev
aej:__ZN6il2cpp6icalls6System6System3Net7Sockets6Socket4SendE12Il2CppIntPtrP11Il2CppArrayiiNS4_11SocketFlagsEPi
xH:__ZN11AudioFilter6GetDSPEv
Hwe:_SymmetricTransform_CFB_m1051508796
jpi:_UrlAttribute_GetPropertiesForNewContext_m2281450996
sXc:_RSACryptoServiceProvider_OnKeyGenerated_m863837376
oZe:_List_1_get_Capacity_m3047075120_gshared
Fwc:__ZN20TextRenderingPrivate15DynamicFontData36GetFaceForCharacterIfAvailableInFontERKNS_7FontRefERKNSt3__26vectorI4PPtrIN13TextRendering4FontEE13stl_allocatorIS9_L18MemLabelIdentifier34ELi16EEEEj
KMf:__ZL153AnimatorControllerPlayable_t1397024487_CustomAttributesCacheGenerator_AnimatorControllerPlayable_INTERNAL_CALL_IsParameterControlledByCurveID_m4241372991P21CustomAttributesCache
lUg:_Scrollbar_OnDrag_m4289602768
Q$:__ZN19RuntimeSceneManager14CanUnloadSceneEP10UnityScene
IUa:__Z22ExtractRenderNodeQueueRK11CullResults15ExtractionFlagsR15RenderNodeQueue
qZi:_GenericEqualityComparer_1_GetHashCode_m457148860_gshared
CMe:_SslStreamBase_get_CipherStrength_m449292740
FEj:__ZN6il2cpp2vm6Method7GetNameEPK10MethodInfo
GOe:_KeyValuePair_2_get_Key_m1218836954_gshared
G9h:_AnimationEvent_get_animatorStateInfo_m3909257444
fwc:__ZNSt3__26vectorIh13stl_allocatorIhL18MemLabelIdentifier1ELi16EEE8__appendEj
b2d:_OnValidateInput_Invoke_m1009124904
bSh:__Z44RuntimeInvoker_ParameterModifier_t1461694466PK10MethodInfoPvPS2_
Wch:_U3CGetEnumeratorU3Ec__Iterator0_System_Collections_IEnumerator_get_Current_m283764921_gshared
rXi:_EqualityComparer_1_System_Collections_IEqualityComparer_GetHashCode_m3578195399_gshared
iwc:__ZN20TextRenderingPrivate8FontImpl16ResetPackingDataEv
Bwd:_CultureInfo_get_IcuName_m2258611679
ikf:__ZL87Il2CppArray_CustomAttributesCacheGenerator_Array_CreateInstance_m2175520447____lengths1P21CustomAttributesCache
Cba:__Z21GetAsyncUploadManagerv
xj:_emscripten_glDetachShader
Ywh:__Z32RuntimeInvoker_Double_t594665363PK10MethodInfoPvPS2_
p6f:_Transform_1_BeginInvoke_m3697921475_gshared
aza:__ZN17GenericDynamicVBO20ReleaseChunkInternalERK21DynamicVBOChunkHandlejj
_Ic:__ZL27CleanupModule_TextRenderingv
CFg:_AssemblyName_GetObjectData_m1516383869
_jh:_InternalEnumerator_1__ctor_m39232262_gshared
Iwe:_SymmetricTransform_OFB_m3842617151
yca:__ZN12CachedWriter11Align4WriteEv
LVa:__Z20DoDeferredRenderLoopR17RenderLoopContextR13dynamic_arrayI16RenderObjectDataLj4EES4_RK11CullResultsRP13RenderTextureSA_Pb
Odb:__ZNSt3__26vectorIiNS_9allocatorIiEEE21__push_back_slow_pathIKiEEvRT_
iqa:__ZN19RuntimeSceneManager11CreateSceneEv
qui:_PatternCompiler_Emit_m1540115729
aEc:_ps_get_standard_strings
IXa:__Z27SetupBakedOcclusionForLightbRK15SharedLightDataR17ShaderPassContext
sOj:__ZN6il2cpp2os5Mutex6UnlockEv
Jie:_NullStream_get_Position_m4048431226
h5c:_EncoderFallbackException__ctor_m1051987327
VZh:__ZN21InterfaceFuncInvoker1I19Vector2_t2156229523iE6InvokeEjP11Il2CppClassP12Il2CppObjecti
kIe:_Context_set_RandomSC_m2364786761
Rtf:__ZL73AsymmetricSignatureDeformatter_t2681190756_CustomAttributesCacheGeneratorP21CustomAttributesCache
Ure:_BigInteger_ToString_m3278248272
hrd:_Decimal_System_IConvertible_ToBoolean_m1123794670
mRg:_Mask__ctor_m1269055150
Zwf:__ZL99WaitHandle_t1743403487_CustomAttributesCacheGenerator_WaitHandle_t1743403487____Handle_PropertyInfoP21CustomAttributesCache
Laf:_WebRequest_AddPrefix_m3187775913
xVf:__ZL98PointerEventData_t3807901092_CustomAttributesCacheGenerator_PointerEventData_get_button_m359423249P21CustomAttributesCache
Ccj:__ZNSt3__26__treeINS_12__value_typeIPFvvEPK10MethodInfoEENS_19__map_value_compareIS3_S7_NS_4lessIS3_EELb1EEENS_9allocatorIS7_EEE4findIS3_EENS_15__tree_iteratorIS7_PNS_11__tree_nodeIS7_PvEEiEERKT_
K8d:_NumberFormatInfo_get_CurrencyNegativePattern_m2134016253
KCf:__ZL85UriParser_t3890150400_CustomAttributesCacheGenerator_UriParser_OnRegister_m3283921560P21CustomAttributesCache
CWf:__ZL59Dropdown_t2274391225_CustomAttributesCacheGenerator_m_ValueP21CustomAttributesCache
GPa:__Z18RenderImageFiltersR10RenderLoopb
NS:__Z19free_alloc_internalPv18MemLabelIdentifier
hfb:__ZNK23ArchiveStorageConverter16GetDirectoryInfoEv
xNc:__Z43CanvasRenderer_Get_Custom_PropMaterialCountP12Il2CppObject
C3a:__ZN10GameObjectD2Ev
E2h:_ReadOnlyCollection_1_System_Collections_Generic_ICollectionU3CTU3E_Add_m2327307210_gshared
gZe:_List_1_Remove_m1457733883_gshared
ap:__ZN6Object23VirtualRedirectTransferER19StreamedBinaryWriteILb1EE
t8b:__ZNK9BlobWrite24HasOffsetPtrWithDebugPtrEv
cAb:__ZN33AssetBundleLoadFromAsyncOperation12IsCrc32ValidEv
Iif:__ZL80String_t_CustomAttributesCacheGenerator_String_FormatHelper_m3913915042____args3P21CustomAttributesCache
hOg:_MonoEventInfo_GetEventInfo_m873645389
god:_Convert_ToUInt64_m1745056470
aDe:_MD4Managed_Encode_m386285215
q5:__ZN10InputEventD2Ev
LKb:__Z18Transfer_BlittableI19StreamedBinaryWriteILb0EELb0E5RectTIfEEvRK29SerializationCommandArgumentsR31RuntimeSerializationCommandInfo
j4i:__ZL25UnresolvedVirtualCall_166P12Il2CppObject25RaycastResult_t3360306849PK10MethodInfo
I0:__ZL23OutOfBoundsReadingErrorPKN5Unity4TypeEiiR6Object
Mmh:_InternalEnumerator_1_MoveNext_m1590908934_AdjustorThunk
Ppj:__ZNK15dense_hashtableINSt3__24pairIK10KeyWrapperIPK14Il2CppAssemblyEPK16MonoAssemblyNameEES6_N6il2cpp5utils11PointerHashIS4_EEN14dense_hash_mapIS6_SA_SF_NS6_14EqualsComparerINS0_8equal_toIS5_EEEENS0_9allocatorISB_EEE9SelectKeyESK_SM_E3endEv
vKh:__Z51RuntimeInvoker_Color_t2555686324_Single_t1397266774PK10MethodInfoPvPS2_
Szh:__Z101RuntimeInvoker_Int32_t2950945753_Il2CppObject_Int32_t2950945753_CharU26_t1697032762_SByte_t1669577662PK10MethodInfoPvPS2_
B0f:__ZL79Panel_MainScene_t1057628098_CustomAttributesCacheGenerator_U3CU3Ef__amU24cache0P21CustomAttributesCache
m9:__Z20SetPlayerPauseDirect11PlayerPause
eRj:_isalpha
QUg:_U3CClickRepeatU3Ec__Iterator0_Dispose_m4248496038
_jd:_Convert_ToChar_m1442101407
bMe:_SslClientStream_OnLocalPrivateKeySelection_m1934775249
FTf:__ZL66U3CU3Ec__DisplayClass41_t1856309237_CustomAttributesCacheGeneratorP21CustomAttributesCache
vRi:_UnityEvent_1_GetDelegate_m1085214430_gshared
Q$d:__ZN21InterfaceFuncInvoker1IP19Graphic_t1660335611iE6InvokeEjP11Il2CppClassP12Il2CppObjecti
Aqd:_DateTimeOffset_get_Offset_m2040541042_AdjustorThunk
KSf:__ZL80Logger_t274032455_CustomAttributesCacheGenerator_U3ClogHandlerU3Ek__BackingFieldP21CustomAttributesCache
Nej:__ZN6il2cpp2vmL17IsSocketAsyncCallEP14Il2CppDelegate
Y$f:__ZL87Button_ForgotPassword_t1443603808_CustomAttributesCacheGenerator_ForgotPasswordPanelObjP21CustomAttributesCache
whd:_Slot_t3975888750_marshal_pinvoke_back
$Gj:__ZN6il2cpp2vm6String6NewLenEPKcj
XWg:_Selectable_get_image_m1928917691
zhb:__ZN6Camera23VirtualRedirectTransferER19StreamedBinaryWriteILb0EE
RDj:__ZN6il2cpp2os6Thread12GetApartmentEv
Sag:_Dictionary_2_ToTValue_m931419598_gshared
zIh:__Z120RuntimeInvoker_Void_t1185182177_Rect_t2360479859_SByte_t1669577662_SByte_t1669577662_SByte_t1669577662_SByte_t1669577662PK10MethodInfoPvPS2_
XGa:__ZN9GfxDevice28UpdateComputeConstantBuffersEjP12ObjectHandleI18ConstantBuffer_TagPvEjjPKhPKjS8_PKi
uhi:_UnityEventBase_GetValidMethodInfo_m1761163145
Mk:_time
Tcb:__Z31GetAllScenePathsFromAssetBundleR11AssetBundleRNSt3__26vectorIN4core12basic_stringIcNS3_20StringStorageDefaultIcEEEENS1_9allocatorIS7_EEEE
_Wd:_ContentSizeFitter_set_verticalFit_m1831566876
GZc:_TripleDESCryptoServiceProvider_CreateDecryptor_m740960117
cSi:_UnityEvent_3_GetDelegate_m3568004668_gshared
Uoa:__ZN14BatchAllocator6CommitE18MemLabelIdentifier
wFc:_cf2_stack_free
GYc:_SHA512Managed_HashCore_m2377807474
Lde:_Int64_Parse_m3309897583
$wd:_CompareInfo_IndexOf_m667936183
h1e:_List_1__ctor_m2203182218_gshared
OVe:_List_1_System_Collections_IList_Insert_m1011775503_gshared
n0:__ZN15dense_hashtableINSt3__24pairIKiP6ObjectEEi21InstanceIDHashFunctorN14dense_hash_mapIiS4_S6_NS0_8equal_toIiEE13stl_allocatorIS5_L18MemLabelIdentifier65ELi16EEE9SelectKeyES9_SC_E12resize_deltaEjj
sA:__ZN8Animator31ClearInternalControllerPlayableEv
yNi:_ObjectMetadata_t3566284522_marshal_pinvoke_cleanup
j_i:_HashSet_1__ctor_m620629637_gshared
pbf:_X509EnhancedKeyUsageExtension_ToString_m350388564
CJd:_Array_Resize_TisKeyValuePair_2_t2530217319_m2383251369_gshared
Bjf:__ZL79Delegate_t1188392813_CustomAttributesCacheGenerator_Delegate_Combine_m558799649P21CustomAttributesCache
$dd:_SimpleEnumerator_MoveNext_m3113120129
xog:_RuntimeTypeHandle_GetHashCode_m3999856879_AdjustorThunk
d2d:_InputField_SendOnValueChanged_m2560301445
txi:_CapturingGroup_get_Name_m3747712535
V1a:__ZN13RenderTexture19SetAutoGenerateMipsEb
wha:__Z20GetTextureFormatInfo13TextureFormat
_lc:__Z43Register_UnityEngine_GUIStyle_get_alignmentv
Q0b:__Z40InitializeLightAnimationBindingInterfacev
eEe:_RSAManaged_ToXmlString_m2369501989
lz:__ZN26AnimatorControllerPlayable8GetFloatEiRf
J4d:_InputField_get_layoutPriority_m2945430764
ahf:_Interval_get_Size_m4163671410_AdjustorThunk
xwi:_Regex_ToString_m1548107455
Y6i:__ZN6il2cpp2vm5Class4InitEP11Il2CppClass
IKc:__ZN2UI14CanvasRenderer13AwakeFromLoadE17AwakeFromLoadMode
Aif:__ZL64String_t_CustomAttributesCacheGenerator_String_Split_m3580120853P21CustomAttributesCache
v_c:_String_memcpy4_m979367827
NMj:__ZN6il2cpp5utils10MemoryPool6MallocEj
cG:__ZN11SoundHandle8InstanceD2Ev
bni:_ResourceEnumerator_Reset_m3754276504
t7:__ZN31CanvasBatchIntermediateRenderer13StaticDestroyEPv
Ucj:__ZNK15dense_hashtableINSt3__24pairIK10KeyWrapperIPK11Il2CppClassEPKcEES6_N6il2cpp5utils11PointerHashIS3_EEN14dense_hash_mapIS6_S9_SE_NS6_14EqualsComparerINS0_8equal_toIS5_EEEENS0_9allocatorISA_EEE9SelectKeyESJ_SL_E10test_emptyERK24dense_hashtable_iteratorISA_S6_SE_SN_SJ_SL_E
rAd:_ExecuteEvents_CanHandleEvent_TisIl2CppObject_m1442722301_gshared
zdc:__Z29Mesh_CUSTOM_RecalculateBoundsP12Il2CppObject
F$j:_emscripten_glBindProgramARB__wrapper
Vac:__Z41Register_UnityEngine_CullingGroup_Disposev
Nui:_PatternCompiler_EmitRepeat_m697083858
S5e:_Collection_1_get_Item_m4103760396_gshared
Woi:_ConstructionLevelActivator__ctor_m3779412964
PIa:__ZN25MultiBlocksMemoryFileData5WriteEyyPKv
a_h:_Collection_1_GetEnumerator_m344341702_gshared
ooj:__ZNSt3__218uninitialized_fillIPNS_4pairIK10KeyWrapperINS1_IPK12PropertyInfoP11Il2CppClassEEEjEESB_EEvT_SD_RKT0_
Gmi:_ResourceReader_Read7BitEncodedInt_m3568166465
LLa:__ZZ23InitPlayerLoopCallbacksvEN47InitializationAsyncUploadTimeSlicedUpdatestruct7ForwardEv
nYd:_DefaultControls_CreateInputField_m1003102365
Hac:__Z35Component_CUSTOM_SendMessageUpwardsP12Il2CppObjectP12Il2CppStringS0_i
X5c:_Array_get_LongLength_m978104875
$Aa:__ZL17ProgramUniform2fvPK7ApiGLESjiihPKv
X2g:_GUIStyle_Draw_m2539426750
ouh:__Z58RuntimeInvoker_Il2CppObject_Il2CppObject_SByte_t1669577662PK10MethodInfoPvPS2_
awc:__ZN20TextRenderingPrivate8FontImpl21HasCharacterInTextureEjijfPj
aHf:__ZL100Input_t1431474628_CustomAttributesCacheGenerator_Input_INTERNAL_get_compositionCursorPos_m2665216230P21CustomAttributesCache
xYd:_OptionData__ctor_m2529924901
C_f:__ZL93HorizontalOrVerticalLayoutGroup_t729725570_CustomAttributesCacheGenerator_m_ChildControlWidthP21CustomAttributesCache
apd:_DateTime_System_IConvertible_ToUInt16_m4182197229_AdjustorThunk
Vgf:_Interval_get_IsDiscontiguous_m3016063288
AMe:_SslStreamBase_get_CheckCertRevocationStatus_m2739906607
ASj:_htonl
o6g:_Mathf_Clamp01_m4133291925
mwa:__Z20GetBufferManagerGLESv
y0j:b82
QYc:_SHA512Managed_Sigma1_m922902398
kPb:__ZN18StreamedBinaryReadILb0EE21TransferSTLStyleArrayI31ArrayOfManagedObjectsTransfererEEvRT_17TransferMetaFlags
ADg:_ValueType__ctor_m2036258423
BSj:_htons
Tqc:__Z18Transfer_BlittableI8JSONReadLb0EtEvRK29SerializationCommandArgumentsR31RuntimeSerializationCommandInfo
Ooj:__ZN15dense_hashtableINSt3__24pairIK10KeyWrapperINS1_IPK9EventInfoP11Il2CppClassEEEjEES9_17ReflectionMapHashIS8_EN14dense_hash_mapIS9_jSD_NS9_14EqualsComparerINS0_8equal_toIS8_EEEENS0_9allocatorISB_EEE9SelectKeyESI_SK_E12expand_arrayEjN21dense_hash_map_traits17integral_constantIbLb0EEE
SLa:__ZZ23InitPlayerLoopCallbacksvEN44EarlyUpdateResetFrameStatsAfterPresentstruct7ForwardEv
zZc:_TripleDES_IsWeakKey_m2147489852
fob:__ZNK7Cubemap20GetTextureLayerCountEv
Eu:__ZN34AnimationStateMachineMixerPlayable13EndTransitionEv
_yf:__ZL79Convert_t2465617642_CustomAttributesCacheGenerator_Convert_ToUInt64_m2343585091P21CustomAttributesCache
gI:__ZN12AudioManager21FixMasterGroupRoutingEv
JQa:__ZNK19ShaderPropertySheet11HasPropertyERKN9ShaderLab16FastPropertyNameE
EWj:dynCall_viffffii
hGi:_Transform_INTERNAL_get_localPosition_m2432827925
o0d:_GridLayoutGroup_SetLayoutHorizontal_m2838109254
B3g:_GUIStyle_get_isHeightDependantOnWidth_m802385395
sYd:_Dropdown_RefreshShownValue_m2806045241
tEb:__Z18Transfer_BlittableI14SafeBinaryReadLb1E4AABBEvRK29SerializationCommandArgumentsR31RuntimeSerializationCommandInfo
oDj:__ZN6il2cpp6icalls8mscorlib6System4Enum12get_hashcodeEP12Il2CppObject
GLj:_GC_set_no_dls
wWd:_ColorBlock_set_normalColor_m254595671_AdjustorThunk
$Pj:__ZN6il2cpp8metadata26Il2CppGenericMethodCompare6EqualsEPK19Il2CppGenericMethodS4_
d_h:_Collection_1_InsertItem_m1996433897_gshared
omh:_InternalEnumerator_1_get_Current_m1007906068_gshared
oU:__ZNK13ScreenManager16GetScreenTimeoutEv
q4i:__ZL25UnresolvedVirtualCall_173P12Il2CppObject19Vector2_t2156229523S1_PK10MethodInfo
bed:_SimpleEnumerator_Reset_m1520014659
jvf:__ZL53IPrincipal_t2343618843_CustomAttributesCacheGeneratorP21CustomAttributesCache
RG:__ZN9AudioClip7WWWOpenEPKciPjPPvS4_
HGe:_ClientRecordProtocol_createServerHandshakeMessage_m2804371400
BNe:_AuthorityKeyIdentifierExtension__ctor_m2197389230
fof:__ZL54FileOptions_t1024913468_CustomAttributesCacheGeneratorP21CustomAttributesCache
ZAj:__ZN15dense_hashtableINSt3__24pairIK10KeyWrapperINS1_IPKcS4_EEEiEES6_24NamespaceAndNamePairHashN14dense_hash_mapIS6_iS9_NS6_14EqualsComparerI26NamespaceAndNamePairEqualsEENS0_9allocatorIS8_EEE9SelectKeyESD_SF_E12resize_deltaEjj
ZZ:__ZN13RuntimeStaticINSt3__23setI19RepeatingLogMessageNS0_4lessIS2_EE13stl_allocatorIS2_L18MemLabelIdentifier70ELi16EEEELb0EE16StaticInitializeEPv
ZRb:__ZN15SerializeTraitsIN9ShaderLab20SerializedSubProgram16TextureParameterEE8TransferI14SafeBinaryReadEEvRS2_RT_
Cjg:_RemotingServices_GetRemoteObject_m2117098022
wHf:__ZL88Mesh_t3648964284_CustomAttributesCacheGenerator_Mesh_PrintErrorCantAccessMesh_m868675854P21CustomAttributesCache
Agi:_Event_get_type_m1523589438
Ucc:__Z53Register_UnityEngine_Input_INTERNAL_get_mousePositionv
Wve:_EncryptedPrivateKeyInfo_get_Salt_m3453455261
hbg:_Dictionary_2_System_Collections_Generic_ICollectionU3CSystem_Collections_Generic_KeyValuePairU3CTKeyU2CTValueU3EU3E_CopyTo_m1833521940_gshared
skd:_DateTime__ParseNumber_m1240316250
YCi:_X509Extension_GetHashCode_m1797796679
Qte:_CryptoConvert_ToInt32LE_m3340980429
st:__ZN11UnityEngine9Animation31SetHumanTransformPropertyValuesERKNS0_21AvatarBindingConstantERKN7mecanim8skeleton13SkeletonPoseTIN4math4trsXEEEbb
Sfi:_Display__ctor_m2273944945
gLd:_Array_swap_TisCustomAttributeNamedArgument_t287865710_m2628186452_gshared
xRh:__Z52RuntimeInvoker_TypeTag_t3541821701_Int32_t2950945753PK10MethodInfoPvPS2_
txd:_CultureInfo_get_TextInfo_m2342840448
ZDd:_Array_InternalArray__IndexOf_TisMark_t3471605523_m2905388260_gshared
YPd:_EventSystem_set_pixelDragThreshold_m890385646
ZGa:__ZN9GfxDevice22DispatchComputeProgramE12ObjectHandleI18ComputeProgram_TagPvEjjj
gd:_SDL_GetTicks
Dsd:_Delegate_GetCandidateMethod_m640765260
SLc:__ZN2UI14CanvasRenderer11SyncCullingENS0_8SyncFlagE
mnj:__ZN15dense_hashtableINSt3__24pairIK10KeyWrapperINS1_IPK11Il2CppImageP11Il2CppClassEEEjEES9_17ReflectionMapHashIS8_EN14dense_hash_mapIS9_jSD_NS9_14EqualsComparerINS0_8equal_toIS8_EEEENS0_9allocatorISB_EEE9SelectKeyESI_SK_E6insertERKSB_
Lv:__Z16AppendPathToHashRKN7mecanim5crc32EPKc
x$a:__Z21CreateShadowCullerJobP30CreateUmbraShadowCullerJobData
T4h:_ReadOnlyCollection_1_System_Collections_Generic_ICollectionU3CTU3E_Remove_m4072504734_gshared
TAa:__ZL18ProgramUniform2uivPK7ApiGLESjiihPKv
nVd:_U3COnFinishSubmitU3Ec__Iterator0_MoveNext_m2729496168
h1j:_glUniform4iv__wrapper
wYa:__Z33GenerateShadowCasterPartsSortDataRK16ShadowCasterDatajRK15RenderNodeQueueRKNSt3__26vectorI20ShadowCasterPartData13stl_allocatorIS7_L18MemLabelIdentifier2ELi16EEEERK10Matrix4x4fRjP20ShadowCasterSortData
Kxg:_TimeSpan_Compare_m753151303
R_g:_GUIStyle_get_none_m2186533979
JEc:_cf2_computeDarkening
SW:__GLOBAL__sub_I_runtime_gfxdevice_lump_cpp
CPg:_MonoPropertyInfo_get_property_info_m1599555644
C0e:_List_1_Add_m2298161512_gshared
Jqg:_DESTransform_CipherFunct_m3527261721
cJj:_GC_expand_hp_inner
$aj:__ZNK15dense_hashtableINSt3__24pairIK10KeyWrapperI13dynamic_arrayIPK10Il2CppTypeLj4EEEPFvvEEES8_N6il2cpp8metadata19Il2CppSignatureHashEN14dense_hash_mapIS8_SB_SF_NS8_14EqualsComparerINSE_22Il2CppSignatureCompareEEENS0_9allocatorISC_EEE9SelectKeyESJ_SL_E12test_deletedEj
Xyj:__ZNK15dense_hashtableI10KeyWrapperIP18Il2CppGenericClassES3_N6il2cpp8metadata22Il2CppGenericClassHashEN14dense_hash_setIS3_S6_NS3_14EqualsComparerINS5_25Il2CppGenericClassCompareEEENSt3__29allocatorIS3_EEE8IdentityESA_SD_E12test_deletedEj
rcc:__Z25Screen_Get_Custom_PropDpiv
JLb:__Z29Transfer_Blittable_ArrayFieldI19StreamedBinaryWriteILb0EEsEvRT_R9ArrayInfoRK23StaticTransferFieldInfo
Jvi:_Parser_ParseSpecial_m1961501104
e9h:_AnimationCurve__ctor_m1499663178
RCj:__ZN4utf812find_invalidIPKcEET_S3_S3_
Q3d:_InputField_OnEndDrag_m4127187089
q7h:_ReadOnlyCollection_1_System_Collections_IList_RemoveAt_m2555465054_gshared
Rlf:__ZL72RuntimeCompatibilityAttribute_t1169614002_CustomAttributesCacheGeneratorP21CustomAttributesCache
kFe:_CipherSuite_Write_m1172814058
KOg:_MonoField_CheckGeneric_m453069507
Xsh:__Z63RuntimeInvoker_Il2CppObject_Int16_t2552820387_Int32_t2950945753PK10MethodInfoPvPS2_
Pvc:__ZN20TextRenderingPrivate19NativeTextGenerator23FixLineHorizontalOffsetEiii
Sfg:_DefaultComparer_Equals_m3348496647_gshared
CGg:_CustomAttributeNamedArgument_ToString_m1488801416_AdjustorThunk
hed:_SynchronizedArrayListWrapper_get_IsFixedSize_m3396437476
rmg:_ObjectReader_ReadArrayOfString_m3550800559
vme:_MonoCustomAttrs_GetCustomAttributesInternal_m648304078
S$h:_ReadOnlyCollection_1_System_Collections_Generic_IListU3CTU3E_Insert_m1998376997_gshared
Vv:__ZN7mecanim9animation19DestroyAnimationSetEPNS0_12AnimationSetERNS_6memory9AllocatorE
pYj:_emscripten_glDepthRange__wrapper
k2:__ZN14SerializedFile7ReleaseEv
z8a:__ZN16MemoryFileSystem4OpenER13FileEntryData14FilePermission16FileAutoBehavior
Xwd:_CompareInfo_GetSortKey_m1915852346
f7:__ZN13RuntimeStaticI13RendererSceneLb0EE13StaticDestroyEPv
kph:_DefaultComparer_Compare_m1297750557_gshared
bT:__ZN20DynamicHeapAllocatorI17LowLevelAllocatorE10ReallocateEPvji
OM:__ZN12AudioManager12CleanupClassEv
hJb:__Z18Transfer_BlittableI24GenerateTypeTreeTransferLb1E12PropertyNameEvRK29SerializationCommandArgumentsR31RuntimeSerializationCommandInfo
PZg:_Toggle_OnEnable_m1421694809
N0b:__ZN5Light15InitializeClassEv
H2f:_Enumerator_Reset_m3756080284_gshared
bxb:__ZN14SafeBinaryRead21TransferSTLStyleArrayI10vector_mapIPKN5Unity4TypeE7Hash128NSt3__24lessIS5_EENS7_9allocatorINS7_4pairIS5_S6_EEEEEEEvRT_17TransferMetaFlags
